                              1 ;--------------------------------------------------------
                              2 ; File Created by SDCC : FreeWare ANSI-C Compiler
                              3 ; Version 2.2.1 Thu Jun 20 23:20:39 2019
                              4 
                              5 ;--------------------------------------------------------
                              6 	.module lcc182000
                              7 	
                              8 ;--------------------------------------------------------
                              9 ; Public variables in this module
                             10 ;--------------------------------------------------------
                             11 	.globl _salaryGuyTiles
                             12 	.globl _radianlogo_map
                             13 	.globl _radianlogo_data
                             14 	.globl _splashscreen3_map
                             15 	.globl _splashscreen3_data
                             16 	.globl _bulletSprite2
                             17 	.globl _bulletSprite
                             18 	.globl _tiosprite
                             19 	.globl _beasprite
                             20 	.globl _fontTiles
                             21 	.globl _backmap1_map
                             22 	.globl _backmap1_data
                             23 	.globl _TileLabelo
                             24 	.globl _collisionData
                             25 	.globl _main
                             26 	.globl _playSong
                             27 	.globl _setupCharacter
                             28 	.globl _PlaySound
                             29 	.globl _print_repeat
                             30 	.globl _font_set
                             31 	.globl _font_load
                             32 	.globl _font_init
                             33 	.globl _gets
                             34 	.globl _puts
                             35 	.globl _sprintf
                             36 	.globl _printf
                             37 	.globl _putchar
                             38 	.globl _Input
                             39 	.globl _Jump
                             40 	.globl _setDirection
                             41 	.globl _Animate
                             42 	.globl _checkcollision
                             43 	.globl _MoveChar
                             44 	.globl _checkStagecollision
                             45 	.globl _get_tiles
                             46 	.globl _set_tiles
                             47 	.globl _get_data
                             48 	.globl _set_data
                             49 	.globl _scroll_sprite
                             50 	.globl _move_sprite
                             51 	.globl _get_sprite_prop
                             52 	.globl _set_sprite_prop
                             53 	.globl _get_sprite_tile
                             54 	.globl _set_sprite_tile
                             55 	.globl _get_sprite_data
                             56 	.globl _set_sprite_data
                             57 	.globl _scroll_win
                             58 	.globl _move_win
                             59 	.globl _get_win_tiles
                             60 	.globl _set_win_tiles
                             61 	.globl _set_win_data
                             62 	.globl _scroll_bkg
                             63 	.globl _move_bkg
                             64 	.globl _get_bkg_tiles
                             65 	.globl _set_bkg_tiles
                             66 	.globl _set_bkg_data
                             67 	.globl _hiramcpy
                             68 	.globl _display_off
                             69 	.globl _wait_vbl_done
                             70 	.globl _reset
                             71 	.globl _set_interrupts
                             72 	.globl _disable_interrupts
                             73 	.globl _enable_interrupts
                             74 	.globl _waitpadup
                             75 	.globl _waitpad
                             76 	.globl _joypad
                             77 	.globl _delay
                             78 	.globl _receive_byte
                             79 	.globl _send_byte
                             80 	.globl _get_mode
                             81 	.globl _mode
                             82 	.globl _add_TIM
                             83 	.globl _add_LCD
                             84 	.globl _add_VBL
                             85 	.globl _remove_JOY
                             86 	.globl _remove_SIO
                             87 	.globl _remove_TIM
                             88 	.globl _remove_LCD
                             89 	.globl _remove_VBL
                             90 	.globl _cgb_compatibility
                             91 	.globl _cpu_fast
                             92 	.globl _cpu_slow
                             93 	.globl _set_sprite_palette_entry
                             94 	.globl _set_bkg_palette_entry
                             95 	.globl _set_sprite_palette
                             96 	.globl _set_bkg_palette
                             97 	.globl _sgb_check
                             98 	.globl _salaryGuy
                             99 	.globl _onigiri
                            100 	.globl _bullet
                            101 	.globl _beachan
                            102 	.globl _mrGuy
                            103 	.globl _min_font
                            104 	.globl _currentSpriteIndex
                            105 	.globl _speed
                            106 	.globl _tile
                            107 	.globl _j
                            108 	.globl _i
                            109 	.globl _isFalling
                            110 	.globl _isJumping
                            111 	.globl _originalY
                            112 	.globl _base_Posy
                            113 	.globl _jumpHeight
                            114 	.globl _maxJumpHeight
                            115 	.globl _onigiriIndex
                            116 	.globl _numberOfOnigiris
                            117 	.globl _index
                            118 	.globl _y
                            119 	.globl _x
                            120 	.globl _gravity
                            121 ;--------------------------------------------------------
                            122 ; Externals used
                            123 ;--------------------------------------------------------
                            124 	.globl _IE_REG
                            125 	.globl _SVBK_REG
                            126 	.globl _OCPD_REG
                            127 	.globl _OCPS_REG
                            128 	.globl _BCPD_REG
                            129 	.globl _BCPS_REG
                            130 	.globl _RP_REG
                            131 	.globl _HDMA5_REG
                            132 	.globl _HDMA4_REG
                            133 	.globl _HDMA3_REG
                            134 	.globl _HDMA2_REG
                            135 	.globl _HDMA1_REG
                            136 	.globl _VBK_REG
                            137 	.globl _KEY1_REG
                            138 	.globl _WX_REG
                            139 	.globl _WY_REG
                            140 	.globl _OBP1_REG
                            141 	.globl _OBP0_REG
                            142 	.globl _BGP_REG
                            143 	.globl _DMA_REG
                            144 	.globl _LYC_REG
                            145 	.globl _LY_REG
                            146 	.globl _SCX_REG
                            147 	.globl _SCY_REG
                            148 	.globl _STAT_REG
                            149 	.globl _LCDC_REG
                            150 	.globl _NR52_REG
                            151 	.globl _NR51_REG
                            152 	.globl _NR50_REG
                            153 	.globl _NR44_REG
                            154 	.globl _NR43_REG
                            155 	.globl _NR42_REG
                            156 	.globl _NR41_REG
                            157 	.globl _NR34_REG
                            158 	.globl _NR33_REG
                            159 	.globl _NR32_REG
                            160 	.globl _NR31_REG
                            161 	.globl _NR30_REG
                            162 	.globl _NR24_REG
                            163 	.globl _NR23_REG
                            164 	.globl _NR22_REG
                            165 	.globl _NR21_REG
                            166 	.globl _NR14_REG
                            167 	.globl _NR13_REG
                            168 	.globl _NR12_REG
                            169 	.globl _NR11_REG
                            170 	.globl _NR10_REG
                            171 	.globl _IF_REG
                            172 	.globl _TAC_REG
                            173 	.globl _TMA_REG
                            174 	.globl _TIMA_REG
                            175 	.globl _DIV_REG
                            176 	.globl _SC_REG
                            177 	.globl _SB_REG
                            178 	.globl _P1_REG
                            179 	.globl _font_ibm_fixed
                            180 	.globl _font_min
                            181 	.globl _font_ibm
                            182 	.globl _font_italic
                            183 	.globl _font_spect
                            184 	.globl __io_out
                            185 	.globl __io_in
                            186 	.globl __io_status
                            187 	.globl _sys_time
                            188 	.globl __cpu
                            189 ;--------------------------------------------------------
                            190 ; special function registers
                            191 ;--------------------------------------------------------
                            192 ;--------------------------------------------------------
                            193 ; special function bits 
                            194 ;--------------------------------------------------------
                            195 ;--------------------------------------------------------
                            196 ; internal ram data
                            197 ;--------------------------------------------------------
                            198 	.area _DATA
   0000                     199 _gravity::
   0000                     200 	.ds 1
   0001                     201 _x::
   0001                     202 	.ds 1
   0002                     203 _y::
   0002                     204 	.ds 1
   0003                     205 _index::
   0003                     206 	.ds 1
   0004                     207 _numberOfOnigiris::
   0004                     208 	.ds 1
   0005                     209 _onigiriIndex::
   0005                     210 	.ds 1
   0006                     211 _maxJumpHeight::
   0006                     212 	.ds 1
   0007                     213 _jumpHeight::
   0007                     214 	.ds 1
   0008                     215 _base_Posy::
   0008                     216 	.ds 1
   0009                     217 _originalY::
   0009                     218 	.ds 1
   000A                     219 _isJumping::
   000A                     220 	.ds 1
   000B                     221 _isFalling::
   000B                     222 	.ds 1
   000C                     223 _i::
   000C                     224 	.ds 1
   000D                     225 _j::
   000D                     226 	.ds 1
   000E                     227 _tile::
   000E                     228 	.ds 1
   000F                     229 _speed::
   000F                     230 	.ds 1
   0010                     231 _currentSpriteIndex::
   0010                     232 	.ds 1
   0011                     233 _min_font::
   0011                     234 	.ds 2
   0013                     235 _mrGuy::
   0013                     236 	.ds 16
   0023                     237 _beachan::
   0023                     238 	.ds 16
   0033                     239 _bullet::
   0033                     240 	.ds 16
   0043                     241 _onigiri::
   0043                     242 	.ds 80
   0093                     243 _salaryGuy::
   0093                     244 	.ds 16
                            245 ;--------------------------------------------------------
                            246 ; overlayable items in internal ram 
                            247 ;--------------------------------------------------------
                            248 	.area _OVERLAY
                            249 ;--------------------------------------------------------
                            250 ; indirectly addressable internal ram data
                            251 ;--------------------------------------------------------
                            252 	.area _ISEG
                            253 ;--------------------------------------------------------
                            254 ; bit data
                            255 ;--------------------------------------------------------
                            256 	.area _BSEG
                            257 ;--------------------------------------------------------
                            258 ; external ram data
                            259 ;--------------------------------------------------------
                            260 	.area _XSEG
                            261 ;--------------------------------------------------------
                            262 ; global & static initialisations
                            263 ;--------------------------------------------------------
                            264 	.area _GSINIT
                            265 	.area _GSFINAL
                            266 	.area _GSINIT
                            267 ;	main.c 208
                            268 ; genAssign
                            269 ; AOP_HL for _gravity
   0000 21 00 00            270 	ld	hl,#_gravity + 0
   0003 36 FF               271 	ld	(hl),#0xFF
                            272 ;	main.c 208
                            273 ; genAssign
                            274 ; AOP_HL for _x
   0005 21 01 00            275 	ld	hl,#_x + 0
   0008 36 00               276 	ld	(hl),#0x00
                            277 ;	main.c 208
                            278 ; genAssign
                            279 ; AOP_HL for _y
   000A 21 02 00            280 	ld	hl,#_y + 0
   000D 36 00               281 	ld	(hl),#0x00
                            282 ;	main.c 208
                            283 ; genAssign
                            284 ; AOP_HL for _index
   000F 21 03 00            285 	ld	hl,#_index + 0
   0012 36 00               286 	ld	(hl),#0x00
                            287 ;	main.c 208
                            288 ; genAssign
                            289 ; AOP_HL for _numberOfOnigiris
   0014 21 04 00            290 	ld	hl,#_numberOfOnigiris + 0
   0017 36 05               291 	ld	(hl),#0x05
                            292 ;	main.c 208
                            293 ; genAssign
                            294 ; AOP_HL for _onigiriIndex
   0019 21 05 00            295 	ld	hl,#_onigiriIndex + 0
   001C 36 00               296 	ld	(hl),#0x00
                            297 ;	main.c 208
                            298 ; genAssign
                            299 ; AOP_HL for _maxJumpHeight
   001E 21 06 00            300 	ld	hl,#_maxJumpHeight + 0
   0021 36 D3               301 	ld	(hl),#0xD3
                            302 ;	main.c 208
                            303 ; genAssign
                            304 ; AOP_HL for _jumpHeight
   0023 21 07 00            305 	ld	hl,#_jumpHeight + 0
   0026 36 00               306 	ld	(hl),#0x00
                            307 ;	main.c 208
                            308 ; genAssign
                            309 ; AOP_HL for _base_Posy
   0028 21 08 00            310 	ld	hl,#_base_Posy + 0
   002B 36 60               311 	ld	(hl),#0x60
                            312 ;	main.c 208
                            313 ; genAssign
                            314 ; AOP_HL for _originalY
   002D 21 09 00            315 	ld	hl,#_originalY + 0
   0030 36 00               316 	ld	(hl),#0x00
                            317 ;	main.c 208
                            318 ; genAssign
                            319 ; AOP_HL for _isJumping
   0032 21 0A 00            320 	ld	hl,#_isJumping + 0
   0035 36 00               321 	ld	(hl),#0x00
                            322 ;	main.c 208
                            323 ; genAssign
                            324 ; AOP_HL for _i
   0037 21 0C 00            325 	ld	hl,#_i + 0
   003A 36 00               326 	ld	(hl),#0x00
                            327 ;	main.c 208
                            328 ; genAssign
                            329 ; AOP_HL for _j
   003C 21 0D 00            330 	ld	hl,#_j + 0
   003F 36 00               331 	ld	(hl),#0x00
                            332 ;	main.c 208
                            333 ; genAssign
                            334 ; AOP_HL for _tile
   0041 21 0E 00            335 	ld	hl,#_tile + 0
   0044 36 00               336 	ld	(hl),#0x00
                            337 ;	main.c 208
                            338 ; genAssign
                            339 ; AOP_HL for _speed
   0046 21 0F 00            340 	ld	hl,#_speed + 0
   0049 36 12               341 	ld	(hl),#0x12
                            342 ;	main.c 208
                            343 ; genAssign
                            344 ; AOP_HL for _currentSpriteIndex
   004B 21 10 00            345 	ld	hl,#_currentSpriteIndex + 0
   004E 36 00               346 	ld	(hl),#0x00
                            347 ;--------------------------------------------------------
                            348 ; code
                            349 ;--------------------------------------------------------
                            350 	.area _CODE
                            351 ;	GameObject.c 24
                            352 ; genLabel
                            353 ; genFunction
                            354 ;	---------------------------------
                            355 ; Function checkStagecollision
                            356 ; ---------------------------------
   0000                     357 ___checkStagecollision_start:
   0000                     358 _checkStagecollision:
   0000 C5                  359 	push	bc
                            360 ;	GameObject.c 28
                            361 ; genCast
                            362 ; AOP_STK for 
   0001 F8 04               363 	lda	hl,4(sp)
   0003 4E                  364 	ld	c,(hl)
   0004 06 00               365 	ld	b,#0x00
                            366 ; genCmpLt
   0006 AF                  367 	xor	a,a
   0007 79                  368 	ld	a,c
   0008 DE 46               369 	sbc	a,#0x46 ; 2
   000A 78                  370 	ld	a,b
   000B DE 00               371 	sbc	a,#0x00 ; 2
   000D D2 33 00            372 	jp	nc,00105$
                            373 ;	GameObject.c 30
                            374 ; genMinus
                            375 ; AOP_STK for 
   0010 7E                  376 	ld	a,(hl)
   0011 C6 DD               377 	add	a,#0xDD
   0013 4F                  378 	ld	c,a
                            379 ; genPlus
   0014 3E D6               380 	ld	a,#<_collisionData
   0016 81                  381 	add	a,c
   0017 5F                  382 	ld	e,a
   0018 3E 0C               383 	ld	a,#>_collisionData
   001A CE 00               384 	adc	a,#0x00
   001C 57                  385 	ld	d,a
                            386 ; genPointerGet
   001D 1A                  387 	ld	a,(de)
   001E 4F                  388 	ld	c,a
                            389 ; genCmpEq
   001F 79                  390 	ld	a,c
   0020 B7                  391 	or	a,a
   0021 C2 26 00            392 	jp	nz,00111$
   0024 18 03               393 	jr	00112$
   0026                     394 00111$:
   0026 C3 2E 00            395 	jp	00102$
   0029                     396 00112$:
                            397 ;	GameObject.c 31
                            398 ; genRet
   0029 1E 00               399 	ld	e,#0x00
   002B C3 35 00            400 	jp	00107$
                            401 ; genLabel
   002E                     402 00102$:
                            403 ;	GameObject.c 34
                            404 ; genRet
   002E 1E 01               405 	ld	e,#0x01
   0030 C3 35 00            406 	jp	00107$
                            407 ; genLabel
   0033                     408 00105$:
                            409 ;	GameObject.c 43
                            410 ; genRet
   0033 1E 01               411 	ld	e,#0x01
                            412 ; genLabel
   0035                     413 00107$:
                            414 ; genEndFunction
   0035 C1                  415 	pop	bc
   0036 C9                  416 	ret
   0037                     417 ___checkStagecollision_end:
                            418 ;	GameObject.c 46
                            419 ; genLabel
                            420 ; genFunction
                            421 ;	---------------------------------
                            422 ; Function MoveChar
                            423 ; ---------------------------------
   0037                     424 ___MoveChar_start:
   0037                     425 _MoveChar:
   0037 C5                  426 	push	bc
   0038 E8 F1               427 	lda sp,-15(sp)
                            428 ;	GameObject.c 48
                            429 ; genAssign
                            430 ; AOP_STK for 
                            431 ; AOP_STK for _MoveChar_sloc1_1_0
   003A F8 13               432 	lda	hl,19(sp)
   003C 2A                  433 	ld	a,(hl+)
   003D 5E                  434 	ld	e,(hl)
   003E F8 09               435 	lda	hl,9(sp)
   0040 77                  436 	ld	(hl),a ; 3
   0041 23                  437 	inc	hl
   0042 73                  438 	ld	(hl),e ; 3
                            439 ; genPlus
                            440 ; AOP_STK for _MoveChar_sloc1_1_0
                            441 ; AOP_STK for _MoveChar_sloc0_1_0
                            442 ; genPlusIncr
   0043 2B                  443 	dec	hl
   0044 7E                  444 	ld	a,(hl)
   0045 C6 02               445 	add	a,#0x02
   0047 23                  446 	inc	hl
   0048 23                  447 	inc	hl
   0049 77                  448 	ld	(hl),a ; 3
   004A 2B                  449 	dec	hl
   004B 7E                  450 	ld	a,(hl)
   004C CE 00               451 	adc	a,#0x00
   004E 23                  452 	inc	hl
   004F 23                  453 	inc	hl
   0050 77                  454 	ld	(hl),a ; 3
                            455 ; genPointerGet
                            456 ; AOP_STK for _MoveChar_sloc0_1_0
   0051 2B                  457 	dec	hl
   0052 5E                  458 	ld	e,(hl)
   0053 23                  459 	inc	hl
   0054 56                  460 	ld	d,(hl)
   0055 1A                  461 	ld	a,(de)
                            462 ; genPlus
                            463 ; AOP_STK for 
   0056 F8 15               464 	lda	hl,21(sp)
   0058 86                  465 	add	a,(hl)
   0059 4F                  466 	ld	c,a
                            467 ; genIpush
   005A 3E 00               468 	ld	a,#0x00
   005C F5                  469 	push	af
   005D 33                  470 	inc	sp
                            471 ; genIpush
   005E 79                  472 	ld	a,c
   005F F5                  473 	push	af
   0060 33                  474 	inc	sp
                            475 ; genCall
   0061 CD 00 00            476 	call	_checkStagecollision
   0064 43                  477 	ld	b,e
   0065 E8 02               478 	lda	sp,2(sp)
                            479 ; genCmpEq
   0067 78                  480 	ld	a,b
   0068 B7                  481 	or	a,a
   0069 C2 6E 00            482 	jp	nz,00118$
   006C 18 03               483 	jr	00119$
   006E                     484 00118$:
   006E C3 65 01            485 	jp	00111$
   0071                     486 00119$:
                            487 ;	GameObject.c 51
                            488 ; genAssign (pointer)
                            489 ; AOP_STK for _MoveChar_sloc0_1_0
   0071 F8 0B               490 	lda	hl,11(sp)
   0073 5E                  491 	ld	e,(hl)
   0074 23                  492 	inc	hl
   0075 56                  493 	ld	d,(hl)
   0076 79                  494 	ld	a,c
   0077 12                  495 	ld	(de),a
                            496 ;	GameObject.c 52
                            497 ; genPlus
                            498 ; AOP_STK for _MoveChar_sloc1_1_0
                            499 ; AOP_STK for _MoveChar_sloc3_1_0
                            500 ; genPlusIncr
   0078 F8 09               501 	lda	hl,9(sp)
   007A 7E                  502 	ld	a,(hl)
   007B C6 03               503 	add	a,#0x03
   007D F8 06               504 	lda	hl,6(sp)
   007F 77                  505 	ld	(hl),a ; 3
   0080 F8 0A               506 	lda	hl,10(sp)
   0082 7E                  507 	ld	a,(hl)
   0083 CE 00               508 	adc	a,#0x00
   0085 F8 07               509 	lda	hl,7(sp)
   0087 77                  510 	ld	(hl),a ; 3
                            511 ; genPointerGet
                            512 ; AOP_STK for _MoveChar_sloc3_1_0
                            513 ; AOP_STK for _MoveChar_sloc2_1_0
   0088 2B                  514 	dec	hl
   0089 5E                  515 	ld	e,(hl)
   008A 23                  516 	inc	hl
   008B 56                  517 	ld	d,(hl)
   008C 1A                  518 	ld	a,(de)
   008D 23                  519 	inc	hl
   008E 77                  520 	ld	(hl),a ; 3
                            521 ; genCast
                            522 ; AOP_STK for _MoveChar_sloc2_1_0
   008F 4E                  523 	ld	c,(hl)
   0090 06 00               524 	ld	b,#0x00
                            525 ; genPlus
                            526 ; AOP_STK for 
   0092 79                  527 	ld	a,c
   0093 F8 16               528 	lda	hl,22(sp)
   0095 86                  529 	add	a,(hl)
   0096 4F                  530 	ld	c,a
   0097 78                  531 	ld	a,b
   0098 23                  532 	inc	hl
   0099 8E                  533 	adc	a,(hl)
   009A 47                  534 	ld	b,a
                            535 ; genCast
                            536 ; Removed redundent load
                            537 ; genAssign (pointer)
                            538 ; AOP_STK for _MoveChar_sloc3_1_0
   009B F8 06               539 	lda	hl,6(sp)
   009D 5E                  540 	ld	e,(hl)
   009E 23                  541 	inc	hl
   009F 56                  542 	ld	d,(hl)
   00A0 79                  543 	ld	a,c
   00A1 12                  544 	ld	(de),a
                            545 ;	GameObject.c 53
                            546 ; genPlus
                            547 ; AOP_STK for _MoveChar_sloc1_1_0
                            548 ; genPlusIncr
   00A2 23                  549 	inc	hl
   00A3 23                  550 	inc	hl
   00A4 7E                  551 	ld	a,(hl)
   00A5 C6 06               552 	add	a,#0x06
   00A7 5F                  553 	ld	e,a
   00A8 23                  554 	inc	hl
   00A9 7E                  555 	ld	a,(hl)
   00AA CE 00               556 	adc	a,#0x00
   00AC 57                  557 	ld	d,a
                            558 ; genPointerGet
                            559 ; AOP_HL for _index
   00AD 1A                  560 	ld	a,(de)
   00AE 21 03 00            561 	ld	hl,#_index + 0
   00B1 77                  562 	ld	(hl),a
                            563 ;	GameObject.c 54
                            564 ; genAssign
                            565 ; AOP_HL for _y
   00B2 21 02 00            566 	ld	hl,#_y + 0
   00B5 36 00               567 	ld	(hl),#0x00
                            568 ; genPlus
                            569 ; AOP_STK for _MoveChar_sloc1_1_0
                            570 ; AOP_STK for _MoveChar_sloc4_1_0
                            571 ; genPlusIncr
   00B7 F8 09               572 	lda	hl,9(sp)
   00B9 7E                  573 	ld	a,(hl)
   00BA C6 01               574 	add	a,#0x01
   00BC F8 04               575 	lda	hl,4(sp)
   00BE 77                  576 	ld	(hl),a ; 3
   00BF F8 0A               577 	lda	hl,10(sp)
   00C1 7E                  578 	ld	a,(hl)
   00C2 CE 00               579 	adc	a,#0x00
   00C4 F8 05               580 	lda	hl,5(sp)
   00C6 77                  581 	ld	(hl),a ; 3
                            582 ; genLabel
   00C7                     583 00107$:
                            584 ; genPointerGet
                            585 ; AOP_STK for _MoveChar_sloc4_1_0
   00C7 F8 04               586 	lda	hl,4(sp)
   00C9 5E                  587 	ld	e,(hl)
   00CA 23                  588 	inc	hl
   00CB 56                  589 	ld	d,(hl)
   00CC 1A                  590 	ld	a,(de)
   00CD 4F                  591 	ld	c,a
                            592 ; genCmpLt
                            593 ; AOP_HL for _y
   00CE AF                  594 	xor	a,a
   00CF 21 02 00            595 	ld	hl,#_y + 0
   00D2 7E                  596 	ld	a,(hl)
   00D3 99                  597 	sbc	a,c ; 2
   00D4 D2 60 01            598 	jp	nc,00110$
                            599 ;	GameObject.c 56
                            600 ; genAssign
                            601 ; AOP_HL for _x
   00D7 21 01 00            602 	ld	hl,#_x + 0
   00DA 36 00               603 	ld	(hl),#0x00
                            604 ; genLabel
   00DC                     605 00103$:
                            606 ; genPointerGet
                            607 ; AOP_STK for _MoveChar_sloc1_1_0
                            608 ; AOP_STK for _MoveChar_sloc5_1_0
   00DC F8 09               609 	lda	hl,9(sp)
   00DE 5E                  610 	ld	e,(hl)
   00DF 23                  611 	inc	hl
   00E0 56                  612 	ld	d,(hl)
   00E1 1A                  613 	ld	a,(de)
   00E2 F8 03               614 	lda	hl,3(sp)
   00E4 77                  615 	ld	(hl),a ; 3
                            616 ; genCmpLt
                            617 ; AOP_HL for _x
                            618 ; AOP_STK for _MoveChar_sloc5_1_0
                            619 ; AOP_STK for _MoveChar_sloc2_1_0
   00E5 AF                  620 	xor	a,a
   00E6 21 01 00            621 	ld	hl,#_x + 0
   00E9 7E                  622 	ld	a,(hl)
   00EA F8 03               623 	lda	hl,3(sp)
   00EC 9E                  624 	sbc	a,(hl) ; 2
   00ED 3E 00               625 	ld	a,#0x00
   00EF 17                  626 	rla
   00F0 F8 08               627 	lda	hl,8(sp)
   00F2 77                  628 	ld	(hl),a ; 3
                            629 ; genIfx
                            630 ; AOP_STK for _MoveChar_sloc2_1_0
                            631 ; Removed redundent or a,a
   00F3 AF                  632 	xor	a,a
   00F4 B6                  633 	or	a,(hl)
   00F5 CA 59 01            634 	jp	z,00109$
                            635 ;	GameObject.c 58
                            636 ; genLeftShift
                            637 ; AOP_HL for _x
                            638 ; AOP_STK for _MoveChar_sloc6_1_0
   00F8 21 01 00            639 	ld	hl,#_x + 0
   00FB 7E                  640 	ld	a,(hl)
   00FC CB 17               641 	rl	a
   00FE CB 17               642 	rl	a
   0100 CB 17               643 	rl	a
   0102 E6 F8               644 	and	a,#0xF8
   0104 F8 02               645 	lda	hl,2(sp)
   0106 77                  646 	ld	(hl),a ; 3
                            647 ; genPointerGet
                            648 ; AOP_STK for _MoveChar_sloc0_1_0
   0107 F8 0B               649 	lda	hl,11(sp)
   0109 5E                  650 	ld	e,(hl)
   010A 23                  651 	inc	hl
   010B 56                  652 	ld	d,(hl)
   010C 1A                  653 	ld	a,(de)
                            654 ; genPlus
                            655 ; AOP_STK for _MoveChar_sloc6_1_0
                            656 ; AOP_STK for _MoveChar_X_4_4
   010D F8 02               657 	lda	hl,2(sp)
   010F 86                  658 	add	a,(hl)
   0110 F8 0E               659 	lda	hl,14(sp)
   0112 77                  660 	ld	(hl),a ; 3
                            661 ; genAssign
                            662 ; AOP_STK for _MoveChar_X_4_4
                            663 ; (registers are the same)
                            664 ;	GameObject.c 59
                            665 ; genLeftShift
                            666 ; AOP_HL for _y
                            667 ; AOP_STK for _MoveChar_sloc7_1_0
   0113 21 02 00            668 	ld	hl,#_y + 0
   0116 7E                  669 	ld	a,(hl)
   0117 CB 17               670 	rl	a
   0119 CB 17               671 	rl	a
   011B CB 17               672 	rl	a
   011D E6 F8               673 	and	a,#0xF8
   011F F8 01               674 	lda	hl,1(sp)
   0121 77                  675 	ld	(hl),a ; 3
                            676 ; genPointerGet
                            677 ; AOP_STK for _MoveChar_sloc3_1_0
   0122 F8 06               678 	lda	hl,6(sp)
   0124 5E                  679 	ld	e,(hl)
   0125 23                  680 	inc	hl
   0126 56                  681 	ld	d,(hl)
   0127 1A                  682 	ld	a,(de)
                            683 ; genPlus
                            684 ; AOP_STK for _MoveChar_sloc7_1_0
                            685 ; AOP_STK for _MoveChar_Y_4_4
   0128 F8 01               686 	lda	hl,1(sp)
   012A 86                  687 	add	a,(hl)
   012B F8 0D               688 	lda	hl,13(sp)
   012D 77                  689 	ld	(hl),a ; 3
                            690 ; genAssign
                            691 ; AOP_STK for _MoveChar_Y_4_4
                            692 ; (registers are the same)
                            693 ;	GameObject.c 60
                            694 ; genIpush
                            695 ; AOP_STK for _MoveChar_Y_4_4
   012E 7E                  696 	ld	a,(hl)
   012F F5                  697 	push	af
   0130 33                  698 	inc	sp
                            699 ; genIpush
                            700 ; AOP_STK for _MoveChar_X_4_4
   0131 23                  701 	inc	hl
   0132 7E                  702 	ld	a,(hl)
   0133 F5                  703 	push	af
   0134 33                  704 	inc	sp
                            705 ; genIpush
                            706 ; AOP_HL for _index
   0135 21 03 00            707 	ld	hl,#_index + 0
   0138 7E                  708 	ld	a,(hl)
   0139 F5                  709 	push	af
   013A 33                  710 	inc	sp
                            711 ; genCall
   013B CD 00 00            712 	call	_move_sprite
   013E E8 03               713 	lda	sp,3(sp)
                            714 ;	GameObject.c 62
                            715 ; genPlus
                            716 ; AOP_HL for _index
                            717 ; AOP_STK for _MoveChar_sloc8_1_0
                            718 ; genPlusIncr
   0140 21 03 00            719 	ld	hl,#_index + 0
   0143 7E                  720 	ld	a,(hl)
   0144 C6 01               721 	add	a,#0x01
   0146 F8 00               722 	lda	hl,0(sp)
   0148 77                  723 	ld	(hl),a ; 3
                            724 ; genAssign
                            725 ; AOP_STK for _MoveChar_sloc8_1_0
                            726 ; AOP_HL for _index
   0149 7E                  727 	ld	a,(hl)
   014A 21 03 00            728 	ld	hl,#_index + 0
   014D 77                  729 	ld	(hl),a
                            730 ; genAssign
                            731 ; AOP_HL for _index
                            732 ; (registers are the same)
                            733 ;	GameObject.c 56
                            734 ; genPlus
                            735 ; AOP_HL for _x
                            736 ; genPlusIncr
   014E 21 01 00            737 	ld	hl,#_x + 0
   0151 7E                  738 	ld	a,(hl)
   0152 C6 01               739 	add	a,#0x01
   0154 4F                  740 	ld	c,a
                            741 ; genAssign
                            742 ; AOP_HL for _x
   0155 71                  743 	ld	(hl),c
                            744 ; genAssign
                            745 ; AOP_HL for _x
                            746 ; (registers are the same)
                            747 ; genGoto
   0156 C3 DC 00            748 	jp	00103$
                            749 ; genLabel
   0159                     750 00109$:
                            751 ;	GameObject.c 54
                            752 ; genPlus
                            753 ; AOP_HL for _y
                            754 ; genPlusIncr
   0159 21 02 00            755 	ld	hl,#_y + 0
   015C 34                  756 	inc	(hl)
                            757 ; genGoto
   015D C3 C7 00            758 	jp	00107$
                            759 ; genLabel
   0160                     760 00110$:
                            761 ;	GameObject.c 66
                            762 ; genAssign
                            763 ; AOP_HL for _index
   0160 21 03 00            764 	ld	hl,#_index + 0
   0163 36 00               765 	ld	(hl),#0x00
                            766 ; genLabel
   0165                     767 00111$:
                            768 ; genEndFunction
   0165 E8 0F               769 	lda	sp,15(sp)
   0167 C1                  770 	pop bc
   0168 C9                  771 	ret
   0169                     772 ___MoveChar_end:
                            773 ;	GameObject.c 70
                            774 ; genLabel
                            775 ; genFunction
                            776 ;	---------------------------------
                            777 ; Function checkcollision
                            778 ; ---------------------------------
   0169                     779 ___checkcollision_start:
   0169                     780 _checkcollision:
   0169 C5                  781 	push	bc
   016A E8 FE               782 	lda sp,-2(sp)
                            783 ;	GameObject.c 72
                            784 ; genAssign
                            785 ; AOP_STK for 
   016C F8 08               786 	lda	hl,8(sp)
   016E 4E                  787 	ld	c,(hl)
   016F 23                  788 	inc	hl
   0170 46                  789 	ld	b,(hl)
                            790 ; genPlus
                            791 ; AOP_STK for _checkcollision_sloc0_1_0
                            792 ; genPlusIncr
   0171 79                  793 	ld	a,c
   0172 C6 02               794 	add	a,#0x02
   0174 F8 00               795 	lda	hl,0(sp)
   0176 77                  796 	ld	(hl),a ; 3
   0177 78                  797 	ld	a,b
   0178 CE 00               798 	adc	a,#0x00
   017A 23                  799 	inc	hl
   017B 77                  800 	ld	(hl),a ; 3
                            801 ; genAssign
                            802 ; AOP_STK for 
   017C F8 06               803 	lda	hl,6(sp)
   017E 4E                  804 	ld	c,(hl)
   017F 23                  805 	inc	hl
   0180 46                  806 	ld	b,(hl)
                            807 ; genPlus
                            808 ; genPlusIncr
   0181 59                  809 	ld	e,c
   0182 50                  810 	ld	d,b
   0183 13                  811 	inc	de
   0184 13                  812 	inc	de
                            813 ; genPointerGet
   0185 1A                  814 	ld	a,(de)
   0186 4F                  815 	ld	c,a
                            816 ; genPointerGet
                            817 ; AOP_STK for _checkcollision_sloc0_1_0
   0187 F8 00               818 	lda	hl,0(sp)
   0189 5E                  819 	ld	e,(hl)
   018A 23                  820 	inc	hl
   018B 56                  821 	ld	d,(hl)
   018C 1A                  822 	ld	a,(de)
   018D 47                  823 	ld	b,a
                            824 ; genCmpGt
   018E AF                  825 	xor	a,a
   018F 79                  826 	ld	a,c
   0190 98                  827 	sbc	a,b ; 2
   0191 D2 99 01            828 	jp	nc,00102$
                            829 ;	GameObject.c 78
                            830 ; genRet
   0194 1E 01               831 	ld	e,#0x01
   0196 C3 9B 01            832 	jp	00103$
                            833 ; genLabel
   0199                     834 00102$:
                            835 ;	GameObject.c 80
                            836 ; genRet
   0199 1E 00               837 	ld	e,#0x00
                            838 ; genLabel
   019B                     839 00103$:
                            840 ; genEndFunction
   019B E8 02               841 	lda	sp,2(sp)
   019D C1                  842 	pop bc
   019E C9                  843 	ret
   019F                     844 ___checkcollision_end:
                            845 ;	GameObject.c 83
                            846 ; genLabel
                            847 ; genFunction
                            848 ;	---------------------------------
                            849 ; Function Animate
                            850 ; ---------------------------------
   019F                     851 ___Animate_start:
   019F                     852 _Animate:
   019F C5                  853 	push	bc
   01A0 E8 EC               854 	lda sp,-20(sp)
                            855 ;	GameObject.c 86
                            856 ; genAssign
                            857 ; AOP_STK for 
                            858 ; AOP_STK for _Animate_sloc2_1_0
   01A2 F8 18               859 	lda	hl,24(sp)
   01A4 2A                  860 	ld	a,(hl+)
   01A5 5E                  861 	ld	e,(hl)
   01A6 F8 0E               862 	lda	hl,14(sp)
   01A8 77                  863 	ld	(hl),a ; 3
   01A9 23                  864 	inc	hl
   01AA 73                  865 	ld	(hl),e ; 3
                            866 ; genPlus
                            867 ; AOP_STK for _Animate_sloc2_1_0
                            868 ; genPlusIncr
   01AB 2B                  869 	dec	hl
   01AC 7E                  870 	ld	a,(hl)
   01AD C6 06               871 	add	a,#0x06
   01AF 5F                  872 	ld	e,a
   01B0 23                  873 	inc	hl
   01B1 7E                  874 	ld	a,(hl)
   01B2 CE 00               875 	adc	a,#0x00
   01B4 57                  876 	ld	d,a
                            877 ; genPointerGet
                            878 ; AOP_HL for _index
   01B5 1A                  879 	ld	a,(de)
   01B6 21 03 00            880 	ld	hl,#_index + 0
   01B9 77                  881 	ld	(hl),a
                            882 ;	GameObject.c 87
                            883 ; genPlus
                            884 ; AOP_STK for _Animate_sloc2_1_0
                            885 ; genPlusIncr
   01BA F8 0E               886 	lda	hl,14(sp)
   01BC 7E                  887 	ld	a,(hl)
   01BD C6 0B               888 	add	a,#0x0B
   01BF 5F                  889 	ld	e,a
   01C0 23                  890 	inc	hl
   01C1 7E                  891 	ld	a,(hl)
   01C2 CE 00               892 	adc	a,#0x00
   01C4 57                  893 	ld	d,a
                            894 ; genAssign (pointer)
                            895 ; AOP_STK for 
   01C5 F8 1A               896 	lda	hl,26(sp)
   01C7 7E                  897 	ld	a,(hl)
   01C8 12                  898 	ld	(de),a
                            899 ;	GameObject.c 88
                            900 ; genAssign
                            901 ; AOP_HL for _y
   01C9 21 02 00            902 	ld	hl,#_y + 0
   01CC 36 00               903 	ld	(hl),#0x00
                            904 ; genPlus
                            905 ; AOP_STK for _Animate_sloc2_1_0
                            906 ; AOP_STK for _Animate_sloc0_1_0
                            907 ; genPlusIncr
   01CE F8 0E               908 	lda	hl,14(sp)
   01D0 7E                  909 	ld	a,(hl)
   01D1 C6 02               910 	add	a,#0x02
   01D3 F8 12               911 	lda	hl,18(sp)
   01D5 77                  912 	ld	(hl),a ; 3
   01D6 F8 0F               913 	lda	hl,15(sp)
   01D8 7E                  914 	ld	a,(hl)
   01D9 CE 00               915 	adc	a,#0x00
   01DB F8 13               916 	lda	hl,19(sp)
   01DD 77                  917 	ld	(hl),a ; 3
                            918 ; genPlus
                            919 ; AOP_STK for _Animate_sloc2_1_0
                            920 ; AOP_STK for _Animate_sloc1_1_0
                            921 ; genPlusIncr
   01DE F8 0E               922 	lda	hl,14(sp)
   01E0 7E                  923 	ld	a,(hl)
   01E1 C6 03               924 	add	a,#0x03
   01E3 23                  925 	inc	hl
   01E4 23                  926 	inc	hl
   01E5 77                  927 	ld	(hl),a ; 3
   01E6 2B                  928 	dec	hl
   01E7 7E                  929 	ld	a,(hl)
   01E8 CE 00               930 	adc	a,#0x00
   01EA 23                  931 	inc	hl
   01EB 23                  932 	inc	hl
   01EC 77                  933 	ld	(hl),a ; 3
                            934 ; genMinus
                            935 ; AOP_STK for 
                            936 ; AOP_STK for _Animate_sloc3_1_0
   01ED F8 1A               937 	lda	hl,26(sp)
   01EF 7E                  938 	ld	a,(hl)
   01F0 C6 FF               939 	add	a,#0xFF
   01F2 F8 0D               940 	lda	hl,13(sp)
   01F4 77                  941 	ld	(hl),a ; 3
                            942 ; genPlus
                            943 ; AOP_STK for _Animate_sloc2_1_0
                            944 ; AOP_STK for _Animate_sloc5_1_0
                            945 ; genPlusIncr
   01F5 23                  946 	inc	hl
   01F6 7E                  947 	ld	a,(hl)
   01F7 C6 01               948 	add	a,#0x01
   01F9 F8 0A               949 	lda	hl,10(sp)
   01FB 77                  950 	ld	(hl),a ; 3
   01FC F8 0F               951 	lda	hl,15(sp)
   01FE 7E                  952 	ld	a,(hl)
   01FF CE 00               953 	adc	a,#0x00
   0201 F8 0B               954 	lda	hl,11(sp)
   0203 77                  955 	ld	(hl),a ; 3
                            956 ; genLabel
   0204                     957 00105$:
                            958 ; genPointerGet
                            959 ; AOP_STK for _Animate_sloc5_1_0
                            960 ; AOP_STK for _Animate_sloc4_1_0
   0204 F8 0A               961 	lda	hl,10(sp)
   0206 5E                  962 	ld	e,(hl)
   0207 23                  963 	inc	hl
   0208 56                  964 	ld	d,(hl)
   0209 1A                  965 	ld	a,(de)
   020A 23                  966 	inc	hl
   020B 77                  967 	ld	(hl),a ; 3
                            968 ; genCmpLt
                            969 ; AOP_HL for _y
                            970 ; AOP_STK for _Animate_sloc4_1_0
   020C AF                  971 	xor	a,a
   020D 21 02 00            972 	ld	hl,#_y + 0
   0210 7E                  973 	ld	a,(hl)
   0211 F8 0C               974 	lda	hl,12(sp)
   0213 9E                  975 	sbc	a,(hl) ; 2
   0214 D2 DB 02            976 	jp	nc,00108$
                            977 ;	GameObject.c 90
                            978 ; genAssign
                            979 ; AOP_HL for _x
   0217 21 01 00            980 	ld	hl,#_x + 0
   021A 36 00               981 	ld	(hl),#0x00
                            982 ; genLabel
   021C                     983 00101$:
                            984 ; genPointerGet
                            985 ; AOP_STK for _Animate_sloc2_1_0
                            986 ; AOP_STK for _Animate_sloc7_1_0
   021C F8 0E               987 	lda	hl,14(sp)
   021E 5E                  988 	ld	e,(hl)
   021F 23                  989 	inc	hl
   0220 56                  990 	ld	d,(hl)
   0221 1A                  991 	ld	a,(de)
   0222 F8 08               992 	lda	hl,8(sp)
   0224 77                  993 	ld	(hl),a ; 3
                            994 ; genCmpLt
                            995 ; AOP_HL for _x
                            996 ; AOP_STK for _Animate_sloc7_1_0
                            997 ; AOP_STK for _Animate_sloc6_1_0
   0225 AF                  998 	xor	a,a
   0226 21 01 00            999 	ld	hl,#_x + 0
   0229 7E                 1000 	ld	a,(hl)
   022A F8 08              1001 	lda	hl,8(sp)
   022C 9E                 1002 	sbc	a,(hl) ; 2
   022D 3E 00              1003 	ld	a,#0x00
   022F 17                 1004 	rla
   0230 23                 1005 	inc	hl
   0231 77                 1006 	ld	(hl),a ; 3
                           1007 ; genIfx
                           1008 ; AOP_STK for _Animate_sloc6_1_0
                           1009 ; Removed redundent or a,a
   0232 AF                 1010 	xor	a,a
   0233 B6                 1011 	or	a,(hl)
   0234 CA D4 02           1012 	jp	z,00107$
                           1013 ;	GameObject.c 92
                           1014 ; genLeftShift
                           1015 ; AOP_HL for _y
                           1016 ; AOP_STK for _Animate_sloc9_1_0
   0237 21 02 00           1017 	ld	hl,#_y + 0
   023A 7E                 1018 	ld	a,(hl)
   023B CB 17              1019 	rl	a
   023D CB 17              1020 	rl	a
   023F CB 17              1021 	rl	a
   0241 E6 F8              1022 	and	a,#0xF8
   0243 F8 06              1023 	lda	hl,6(sp)
   0245 77                 1024 	ld	(hl),a ; 3
                           1025 ; genPointerGet
                           1026 ; AOP_STK for _Animate_sloc1_1_0
   0246 F8 10              1027 	lda	hl,16(sp)
   0248 5E                 1028 	ld	e,(hl)
   0249 23                 1029 	inc	hl
   024A 56                 1030 	ld	d,(hl)
   024B 1A                 1031 	ld	a,(de)
                           1032 ; genPlus
                           1033 ; AOP_STK for _Animate_sloc9_1_0
                           1034 ; AOP_STK for _Animate_sloc8_1_0
   024C F8 06              1035 	lda	hl,6(sp)
   024E 86                 1036 	add	a,(hl)
   024F 23                 1037 	inc	hl
   0250 77                 1038 	ld	(hl),a ; 3
                           1039 ; genLeftShift
                           1040 ; AOP_HL for _x
                           1041 ; AOP_STK for _Animate_sloc12_1_0
   0251 21 01 00           1042 	ld	hl,#_x + 0
   0254 7E                 1043 	ld	a,(hl)
   0255 CB 17              1044 	rl	a
   0257 CB 17              1045 	rl	a
   0259 CB 17              1046 	rl	a
   025B E6 F8              1047 	and	a,#0xF8
   025D F8 03              1048 	lda	hl,3(sp)
   025F 77                 1049 	ld	(hl),a ; 3
                           1050 ; genPointerGet
                           1051 ; AOP_STK for _Animate_sloc0_1_0
   0260 F8 12              1052 	lda	hl,18(sp)
   0262 5E                 1053 	ld	e,(hl)
   0263 23                 1054 	inc	hl
   0264 56                 1055 	ld	d,(hl)
   0265 1A                 1056 	ld	a,(de)
                           1057 ; genPlus
                           1058 ; AOP_STK for _Animate_sloc12_1_0
                           1059 ; AOP_STK for _Animate_sloc10_1_0
   0266 F8 03              1060 	lda	hl,3(sp)
   0268 86                 1061 	add	a,(hl)
   0269 23                 1062 	inc	hl
   026A 23                 1063 	inc	hl
   026B 77                 1064 	ld	(hl),a ; 3
                           1065 ; genIpush
                           1066 ; AOP_STK for _Animate_sloc8_1_0
   026C 23                 1067 	inc	hl
   026D 23                 1068 	inc	hl
   026E 7E                 1069 	ld	a,(hl)
   026F F5                 1070 	push	af
   0270 33                 1071 	inc	sp
                           1072 ; genIpush
                           1073 ; AOP_STK for _Animate_sloc10_1_0
   0271 2B                 1074 	dec	hl
   0272 2B                 1075 	dec	hl
   0273 7E                 1076 	ld	a,(hl)
   0274 F5                 1077 	push	af
   0275 33                 1078 	inc	sp
                           1079 ; genIpush
                           1080 ; AOP_HL for _index
   0276 21 03 00           1081 	ld	hl,#_index + 0
   0279 7E                 1082 	ld	a,(hl)
   027A F5                 1083 	push	af
   027B 33                 1084 	inc	sp
                           1085 ; genCall
   027C CD 00 00           1086 	call	_move_sprite
   027F E8 03              1087 	lda	sp,3(sp)
                           1088 ;	GameObject.c 93
                           1089 ; genIpush
                           1090 ; AOP_STK for _Animate_sloc4_1_0
   0281 F8 0C              1091 	lda	hl,12(sp)
   0283 7E                 1092 	ld	a,(hl)
   0284 F5                 1093 	push	af
   0285 33                 1094 	inc	sp
                           1095 ; genIpush
                           1096 ; AOP_STK for _Animate_sloc7_1_0
   0286 F8 09              1097 	lda	hl,9(sp)
   0288 7E                 1098 	ld	a,(hl)
   0289 F5                 1099 	push	af
   028A 33                 1100 	inc	sp
                           1101 ; genCall
   028B CD 00 00           1102 	call	__muluchar
                           1103 ; AOP_STK for _Animate_sloc11_1_0
   028E F8 06              1104 	lda	hl,6(sp)
   0290 73                 1105 	ld	(hl),e ; 3
   0291 E8 02              1106 	lda	sp,2(sp)
                           1107 ; genIpush
                           1108 ; AOP_STK for _Animate_sloc11_1_0
   0293 7E                 1109 	ld	a,(hl)
   0294 F5                 1110 	push	af
   0295 33                 1111 	inc	sp
                           1112 ; genIpush
                           1113 ; AOP_STK for _Animate_sloc3_1_0
   0296 F8 0E              1114 	lda	hl,14(sp)
   0298 7E                 1115 	ld	a,(hl)
   0299 F5                 1116 	push	af
   029A 33                 1117 	inc	sp
                           1118 ; genCall
   029B CD 00 00           1119 	call	__muluchar
                           1120 ; AOP_STK for _Animate_sloc14_1_0
   029E F8 03              1121 	lda	hl,3(sp)
   02A0 73                 1122 	ld	(hl),e ; 3
   02A1 E8 02              1123 	lda	sp,2(sp)
                           1124 ; genPlus
                           1125 ; AOP_HL for _index
                           1126 ; AOP_STK for _Animate_sloc14_1_0
                           1127 ; AOP_STK for _Animate_sloc13_1_0
   02A3 21 03 00           1128 	ld	hl,#_index + 0
   02A6 7E                 1129 	ld	a,(hl)
   02A7 F8 01              1130 	lda	hl,1(sp)
   02A9 86                 1131 	add	a,(hl)
   02AA 23                 1132 	inc	hl
   02AB 77                 1133 	ld	(hl),a ; 3
                           1134 ; genIpush
                           1135 ; AOP_STK for _Animate_sloc13_1_0
   02AC 7E                 1136 	ld	a,(hl)
   02AD F5                 1137 	push	af
   02AE 33                 1138 	inc	sp
                           1139 ; genIpush
                           1140 ; AOP_HL for _index
   02AF 21 03 00           1141 	ld	hl,#_index + 0
   02B2 7E                 1142 	ld	a,(hl)
   02B3 F5                 1143 	push	af
   02B4 33                 1144 	inc	sp
                           1145 ; genCall
   02B5 CD 00 00           1146 	call	_set_sprite_tile
   02B8 E8 02              1147 	lda	sp,2(sp)
                           1148 ;	GameObject.c 95
                           1149 ; genPlus
                           1150 ; AOP_HL for _index
                           1151 ; AOP_STK for _Animate_sloc15_1_0
                           1152 ; genPlusIncr
   02BA 21 03 00           1153 	ld	hl,#_index + 0
   02BD 7E                 1154 	ld	a,(hl)
   02BE C6 01              1155 	add	a,#0x01
   02C0 F8 00              1156 	lda	hl,0(sp)
   02C2 77                 1157 	ld	(hl),a ; 3
                           1158 ; genAssign
                           1159 ; AOP_STK for _Animate_sloc15_1_0
                           1160 ; AOP_HL for _index
   02C3 7E                 1161 	ld	a,(hl)
   02C4 21 03 00           1162 	ld	hl,#_index + 0
   02C7 77                 1163 	ld	(hl),a
                           1164 ; genAssign
                           1165 ; AOP_HL for _index
                           1166 ; (registers are the same)
                           1167 ;	GameObject.c 90
                           1168 ; genPlus
                           1169 ; AOP_HL for _x
                           1170 ; genPlusIncr
   02C8 21 01 00           1171 	ld	hl,#_x + 0
   02CB 7E                 1172 	ld	a,(hl)
   02CC C6 01              1173 	add	a,#0x01
   02CE 47                 1174 	ld	b,a
                           1175 ; genAssign
   02CF 48                 1176 	ld	c,b
                           1177 ; genAssign
                           1178 ; AOP_HL for _x
   02D0 71                 1179 	ld	(hl),c
                           1180 ; genGoto
   02D1 C3 1C 02           1181 	jp	00101$
                           1182 ; genLabel
   02D4                    1183 00107$:
                           1184 ;	GameObject.c 88
                           1185 ; genPlus
                           1186 ; AOP_HL for _y
                           1187 ; genPlusIncr
   02D4 21 02 00           1188 	ld	hl,#_y + 0
   02D7 34                 1189 	inc	(hl)
                           1190 ; genGoto
   02D8 C3 04 02           1191 	jp	00105$
                           1192 ; genLabel
   02DB                    1193 00108$:
                           1194 ;	GameObject.c 98
                           1195 ; genAssign
                           1196 ; AOP_HL for _index
   02DB 21 03 00           1197 	ld	hl,#_index + 0
   02DE 36 00              1198 	ld	(hl),#0x00
                           1199 ; genLabel
   02E0                    1200 00109$:
                           1201 ; genEndFunction
   02E0 E8 14              1202 	lda	sp,20(sp)
   02E2 C1                 1203 	pop bc
   02E3 C9                 1204 	ret
   02E4                    1205 ___Animate_end:
                           1206 ;	GameObject.c 101
                           1207 ; genLabel
                           1208 ; genFunction
                           1209 ;	---------------------------------
                           1210 ; Function setDirection
                           1211 ; ---------------------------------
   02E4                    1212 ___setDirection_start:
   02E4                    1213 _setDirection:
   02E4 C5                 1214 	push	bc
   02E5 E8 E7              1215 	lda sp,-25(sp)
                           1216 ;	GameObject.c 103
                           1217 ; genAssign
                           1218 ; AOP_STK for 
                           1219 ; AOP_STK for _setDirection_sloc0_1_0
   02E7 F8 1D              1220 	lda	hl,29(sp)
   02E9 2A                 1221 	ld	a,(hl+)
   02EA 5E                 1222 	ld	e,(hl)
   02EB F8 16              1223 	lda	hl,22(sp)
   02ED 77                 1224 	ld	(hl),a ; 3
   02EE 23                 1225 	inc	hl
   02EF 73                 1226 	ld	(hl),e ; 3
                           1227 ; genPlus
                           1228 ; AOP_STK for _setDirection_sloc0_1_0
                           1229 ; genPlusIncr
   02F0 2B                 1230 	dec	hl
   02F1 7E                 1231 	ld	a,(hl)
   02F2 C6 0B              1232 	add	a,#0x0B
   02F4 5F                 1233 	ld	e,a
   02F5 23                 1234 	inc	hl
   02F6 7E                 1235 	ld	a,(hl)
   02F7 CE 00              1236 	adc	a,#0x00
   02F9 57                 1237 	ld	d,a
                           1238 ; genPointerGet
                           1239 ; AOP_STK for _setDirection_newindex_1_1
   02FA 1A                 1240 	ld	a,(de)
   02FB 23                 1241 	inc	hl
   02FC 77                 1242 	ld	(hl),a ; 3
                           1243 ;	GameObject.c 104
                           1244 ; genPlus
                           1245 ; AOP_STK for _setDirection_sloc0_1_0
                           1246 ; genPlusIncr
   02FD 2B                 1247 	dec	hl
   02FE 2B                 1248 	dec	hl
   02FF 7E                 1249 	ld	a,(hl)
   0300 C6 06              1250 	add	a,#0x06
   0302 5F                 1251 	ld	e,a
   0303 23                 1252 	inc	hl
   0304 7E                 1253 	ld	a,(hl)
   0305 CE 00              1254 	adc	a,#0x00
   0307 57                 1255 	ld	d,a
                           1256 ; genPointerGet
                           1257 ; AOP_HL for _index
   0308 1A                 1258 	ld	a,(de)
   0309 21 03 00           1259 	ld	hl,#_index + 0
   030C 77                 1260 	ld	(hl),a
                           1261 ;	GameObject.c 106
                           1262 ; genAssign
                           1263 ; AOP_HL for _y
   030D 21 02 00           1264 	ld	hl,#_y + 0
   0310 36 00              1265 	ld	(hl),#0x00
                           1266 ; genCmpEq
                           1267 ; AOP_STK for 
                           1268 ; AOP_STK for _setDirection_sloc2_1_0
   0312 F8 1F              1269 	lda	hl,31(sp)
   0314 7E                 1270 	ld	a,(hl)
   0315 B7                 1271 	or	a,a
   0316 C2 1D 03           1272 	jp	nz,00132$
   0319 3E 01              1273 	ld	a,#0x01
   031B 18 01              1274 	jr	00133$
   031D                    1275 00132$:
   031D AF                 1276 	xor	a,a
   031E                    1277 00133$:
   031E F8 14              1278 	lda	hl,20(sp)
   0320 77                 1279 	ld	(hl),a ; 3
                           1280 ; genMinus
                           1281 ; AOP_STK for _setDirection_newindex_1_1
                           1282 ; AOP_STK for _setDirection_sloc1_1_0
   0321 F8 18              1283 	lda	hl,24(sp)
   0323 7E                 1284 	ld	a,(hl)
   0324 C6 FF              1285 	add	a,#0xFF
   0326 F8 15              1286 	lda	hl,21(sp)
   0328 77                 1287 	ld	(hl),a ; 3
                           1288 ; genPlus
                           1289 ; AOP_STK for _setDirection_sloc0_1_0
                           1290 ; AOP_STK for _setDirection_sloc4_1_0
                           1291 ; genPlusIncr
   0329 23                 1292 	inc	hl
   032A 7E                 1293 	ld	a,(hl)
   032B C6 01              1294 	add	a,#0x01
   032D F8 11              1295 	lda	hl,17(sp)
   032F 77                 1296 	ld	(hl),a ; 3
   0330 F8 17              1297 	lda	hl,23(sp)
   0332 7E                 1298 	ld	a,(hl)
   0333 CE 00              1299 	adc	a,#0x00
   0335 F8 12              1300 	lda	hl,18(sp)
   0337 77                 1301 	ld	(hl),a ; 3
                           1302 ; genLabel
   0338                    1303 00116$:
                           1304 ; genPointerGet
                           1305 ; AOP_STK for _setDirection_sloc4_1_0
                           1306 ; AOP_STK for _setDirection_sloc3_1_0
   0338 F8 11              1307 	lda	hl,17(sp)
   033A 5E                 1308 	ld	e,(hl)
   033B 23                 1309 	inc	hl
   033C 56                 1310 	ld	d,(hl)
   033D 1A                 1311 	ld	a,(de)
   033E 23                 1312 	inc	hl
   033F 77                 1313 	ld	(hl),a ; 3
                           1314 ; genCmpLt
                           1315 ; AOP_HL for _y
                           1316 ; AOP_STK for _setDirection_sloc3_1_0
   0340 AF                 1317 	xor	a,a
   0341 21 02 00           1318 	ld	hl,#_y + 0
   0344 7E                 1319 	ld	a,(hl)
   0345 F8 13              1320 	lda	hl,19(sp)
   0347 9E                 1321 	sbc	a,(hl) ; 2
   0348 D2 BE 04           1322 	jp	nc,00119$
                           1323 ;	GameObject.c 108
                           1324 ; genAssign
                           1325 ; AOP_HL for _x
   034B 21 01 00           1326 	ld	hl,#_x + 0
   034E 36 00              1327 	ld	(hl),#0x00
                           1328 ; genLabel
   0350                    1329 00112$:
                           1330 ; genPointerGet
                           1331 ; AOP_STK for _setDirection_sloc0_1_0
                           1332 ; AOP_STK for _setDirection_sloc9_1_0
   0350 F8 16              1333 	lda	hl,22(sp)
   0352 5E                 1334 	ld	e,(hl)
   0353 23                 1335 	inc	hl
   0354 56                 1336 	ld	d,(hl)
   0355 1A                 1337 	ld	a,(de)
   0356 F8 0C              1338 	lda	hl,12(sp)
   0358 77                 1339 	ld	(hl),a ; 3
                           1340 ; genCmpLt
                           1341 ; AOP_HL for _x
                           1342 ; AOP_STK for _setDirection_sloc9_1_0
                           1343 ; AOP_STK for _setDirection_sloc5_1_0
   0359 AF                 1344 	xor	a,a
   035A 21 01 00           1345 	ld	hl,#_x + 0
   035D 7E                 1346 	ld	a,(hl)
   035E F8 0C              1347 	lda	hl,12(sp)
   0360 9E                 1348 	sbc	a,(hl) ; 2
   0361 3E 00              1349 	ld	a,#0x00
   0363 17                 1350 	rla
   0364 F8 10              1351 	lda	hl,16(sp)
   0366 77                 1352 	ld	(hl),a ; 3
                           1353 ; genIfx
                           1354 ; AOP_STK for _setDirection_sloc5_1_0
                           1355 ; Removed redundent or a,a
   0367 AF                 1356 	xor	a,a
   0368 B6                 1357 	or	a,(hl)
   0369 CA B7 04           1358 	jp	z,00118$
                           1359 ;	GameObject.c 110
                           1360 ; genCmpEq
                           1361 ; AOP_HL for _x
                           1362 ; AOP_STK for _setDirection_sloc6_1_0
   036C 21 01 00           1363 	ld	hl,#_x + 0
   036F 7E                 1364 	ld	a,(hl)
   0370 B7                 1365 	or	a,a
   0371 C2 78 03           1366 	jp	nz,00134$
   0374 3E 01              1367 	ld	a,#0x01
   0376 18 01              1368 	jr	00135$
   0378                    1369 00134$:
   0378 AF                 1370 	xor	a,a
   0379                    1371 00135$:
   0379 F8 0F              1372 	lda	hl,15(sp)
   037B 77                 1373 	ld	(hl),a ; 3
                           1374 ; genIfx
                           1375 ; AOP_STK for _setDirection_sloc6_1_0
                           1376 ; Removed redundent or a,a
   037C AF                 1377 	xor	a,a
   037D B6                 1378 	or	a,(hl)
   037E CA D0 03           1379 	jp	z,00109$
                           1380 ; genIfx
                           1381 ; AOP_STK for _setDirection_sloc2_1_0
   0381 AF                 1382 	xor	a,a
   0382 F8 14              1383 	lda	hl,20(sp)
   0384 B6                 1384 	or	a,(hl)
   0385 B7                 1385 	or	a,a
   0386 C2 D0 03           1386 	jp	nz,00109$
                           1387 ;	GameObject.c 112
                           1388 ; genPlus
                           1389 ; AOP_HL for _index
                           1390 ; AOP_STK for _setDirection_sloc7_1_0
                           1391 ; genPlusIncr
   0389 21 03 00           1392 	ld	hl,#_index + 0
   038C 7E                 1393 	ld	a,(hl)
   038D C6 02              1394 	add	a,#0x02
   038F F8 0E              1395 	lda	hl,14(sp)
   0391 77                 1396 	ld	(hl),a ; 3
                           1397 ; genIpush
                           1398 ; AOP_STK for _setDirection_sloc3_1_0
   0392 F8 13              1399 	lda	hl,19(sp)
   0394 7E                 1400 	ld	a,(hl)
   0395 F5                 1401 	push	af
   0396 33                 1402 	inc	sp
                           1403 ; genIpush
                           1404 ; AOP_STK for _setDirection_sloc9_1_0
   0397 F8 0D              1405 	lda	hl,13(sp)
   0399 7E                 1406 	ld	a,(hl)
   039A F5                 1407 	push	af
   039B 33                 1408 	inc	sp
                           1409 ; genCall
   039C CD 00 00           1410 	call	__muluchar
                           1411 ; AOP_STK for _setDirection_sloc8_1_0
   039F F8 0F              1412 	lda	hl,15(sp)
   03A1 73                 1413 	ld	(hl),e ; 3
   03A2 E8 02              1414 	lda	sp,2(sp)
                           1415 ; genIpush
                           1416 ; AOP_STK for _setDirection_sloc1_1_0
   03A4 F8 15              1417 	lda	hl,21(sp)
   03A6 7E                 1418 	ld	a,(hl)
   03A7 F5                 1419 	push	af
   03A8 33                 1420 	inc	sp
                           1421 ; genIpush
                           1422 ; AOP_STK for _setDirection_sloc8_1_0
   03A9 F8 0E              1423 	lda	hl,14(sp)
   03AB 7E                 1424 	ld	a,(hl)
   03AC F5                 1425 	push	af
   03AD 33                 1426 	inc	sp
                           1427 ; genCall
   03AE CD 00 00           1428 	call	__muluchar
                           1429 ; AOP_STK for _setDirection_sloc13_1_0
   03B1 F8 0A              1430 	lda	hl,10(sp)
   03B3 73                 1431 	ld	(hl),e ; 3
   03B4 E8 02              1432 	lda	sp,2(sp)
                           1433 ; genPlus
                           1434 ; AOP_STK for _setDirection_sloc7_1_0
                           1435 ; AOP_STK for _setDirection_sloc13_1_0
                           1436 ; AOP_STK for _setDirection_sloc10_1_0
   03B6 F8 0E              1437 	lda	hl,14(sp)
   03B8 7E                 1438 	ld	a,(hl)
   03B9 F8 08              1439 	lda	hl,8(sp)
   03BB 86                 1440 	add	a,(hl)
   03BC F8 0B              1441 	lda	hl,11(sp)
   03BE 77                 1442 	ld	(hl),a ; 3
                           1443 ; genIpush
                           1444 ; AOP_STK for _setDirection_sloc10_1_0
   03BF 7E                 1445 	ld	a,(hl)
   03C0 F5                 1446 	push	af
   03C1 33                 1447 	inc	sp
                           1448 ; genIpush
                           1449 ; AOP_HL for _index
   03C2 21 03 00           1450 	ld	hl,#_index + 0
   03C5 7E                 1451 	ld	a,(hl)
   03C6 F5                 1452 	push	af
   03C7 33                 1453 	inc	sp
                           1454 ; genCall
   03C8 CD 00 00           1455 	call	_set_sprite_tile
   03CB E8 02              1456 	lda	sp,2(sp)
                           1457 ; genGoto
   03CD C3 8D 04           1458 	jp	00110$
                           1459 ; genLabel
   03D0                    1460 00109$:
                           1461 ;	GameObject.c 114
                           1462 ; genCmpEq
                           1463 ; AOP_HL for _x
                           1464 ; AOP_STK for _setDirection_sloc11_1_0
   03D0 21 01 00           1465 	ld	hl,#_x + 0
   03D3 7E                 1466 	ld	a,(hl) ; 2
   03D4 FE 01              1467 	cp	a,#0x01
   03D6 C2 DD 03           1468 	jp	nz,00136$
   03D9 3E 01              1469 	ld	a,#0x01
   03DB 18 01              1470 	jr	00137$
   03DD                    1471 00136$:
   03DD AF                 1472 	xor	a,a
   03DE                    1473 00137$:
   03DE F8 0A              1474 	lda	hl,10(sp)
   03E0 77                 1475 	ld	(hl),a ; 3
                           1476 ; genIfx
                           1477 ; AOP_STK for _setDirection_sloc11_1_0
                           1478 ; Removed redundent or a,a
   03E1 AF                 1479 	xor	a,a
   03E2 B6                 1480 	or	a,(hl)
   03E3 CA 2C 04           1481 	jp	z,00105$
                           1482 ; genIfx
                           1483 ; AOP_STK for _setDirection_sloc2_1_0
   03E6 AF                 1484 	xor	a,a
   03E7 F8 14              1485 	lda	hl,20(sp)
   03E9 B6                 1486 	or	a,(hl)
   03EA B7                 1487 	or	a,a
   03EB C2 2C 04           1488 	jp	nz,00105$
                           1489 ;	GameObject.c 116
                           1490 ; genIpush
                           1491 ; AOP_STK for _setDirection_sloc3_1_0
   03EE 2B                 1492 	dec	hl
   03EF 7E                 1493 	ld	a,(hl)
   03F0 F5                 1494 	push	af
   03F1 33                 1495 	inc	sp
                           1496 ; genIpush
                           1497 ; AOP_STK for _setDirection_sloc9_1_0
   03F2 F8 0D              1498 	lda	hl,13(sp)
   03F4 7E                 1499 	ld	a,(hl)
   03F5 F5                 1500 	push	af
   03F6 33                 1501 	inc	sp
                           1502 ; genCall
   03F7 CD 00 00           1503 	call	__muluchar
                           1504 ; AOP_STK for _setDirection_sloc12_1_0
   03FA F8 0B              1505 	lda	hl,11(sp)
   03FC 73                 1506 	ld	(hl),e ; 3
   03FD E8 02              1507 	lda	sp,2(sp)
                           1508 ; genIpush
                           1509 ; AOP_STK for _setDirection_sloc1_1_0
   03FF F8 15              1510 	lda	hl,21(sp)
   0401 7E                 1511 	ld	a,(hl)
   0402 F5                 1512 	push	af
   0403 33                 1513 	inc	sp
                           1514 ; genIpush
                           1515 ; AOP_STK for _setDirection_sloc12_1_0
   0404 F8 0A              1516 	lda	hl,10(sp)
   0406 7E                 1517 	ld	a,(hl)
   0407 F5                 1518 	push	af
   0408 33                 1519 	inc	sp
                           1520 ; genCall
   0409 CD 00 00           1521 	call	__muluchar
                           1522 ; AOP_STK for _setDirection_sloc18_1_0
   040C F8 05              1523 	lda	hl,5(sp)
   040E 73                 1524 	ld	(hl),e ; 3
   040F E8 02              1525 	lda	sp,2(sp)
                           1526 ; genPlus
                           1527 ; AOP_HL for _index
                           1528 ; AOP_STK for _setDirection_sloc18_1_0
                           1529 ; AOP_STK for _setDirection_sloc14_1_0
   0411 21 03 00           1530 	ld	hl,#_index + 0
   0414 7E                 1531 	ld	a,(hl)
   0415 F8 03              1532 	lda	hl,3(sp)
   0417 86                 1533 	add	a,(hl)
   0418 F8 07              1534 	lda	hl,7(sp)
   041A 77                 1535 	ld	(hl),a ; 3
                           1536 ; genIpush
                           1537 ; AOP_STK for _setDirection_sloc14_1_0
   041B 7E                 1538 	ld	a,(hl)
   041C F5                 1539 	push	af
   041D 33                 1540 	inc	sp
                           1541 ; genIpush
                           1542 ; AOP_HL for _index
   041E 21 03 00           1543 	ld	hl,#_index + 0
   0421 7E                 1544 	ld	a,(hl)
   0422 F5                 1545 	push	af
   0423 33                 1546 	inc	sp
                           1547 ; genCall
   0424 CD 00 00           1548 	call	_set_sprite_tile
   0427 E8 02              1549 	lda	sp,2(sp)
                           1550 ; genGoto
   0429 C3 8D 04           1551 	jp	00110$
                           1552 ; genLabel
   042C                    1553 00105$:
                           1554 ;	GameObject.c 119
                           1555 ; genCmpEq
                           1556 ; AOP_HL for _x
                           1557 ; AOP_STK for _setDirection_sloc15_1_0
   042C 21 01 00           1558 	ld	hl,#_x + 0
   042F 7E                 1559 	ld	a,(hl) ; 2
   0430 FE 02              1560 	cp	a,#0x02
   0432 C2 39 04           1561 	jp	nz,00138$
   0435 3E 01              1562 	ld	a,#0x01
   0437 18 01              1563 	jr	00139$
   0439                    1564 00138$:
   0439 AF                 1565 	xor	a,a
   043A                    1566 00139$:
   043A F8 06              1567 	lda	hl,6(sp)
   043C 77                 1568 	ld	(hl),a ; 3
                           1569 ; genIfx
                           1570 ; AOP_STK for _setDirection_sloc15_1_0
                           1571 ; Removed redundent or a,a
   043D AF                 1572 	xor	a,a
   043E B6                 1573 	or	a,(hl)
   043F CA 8D 04           1574 	jp	z,00110$
                           1575 ; genIfx
                           1576 ; AOP_STK for _setDirection_sloc2_1_0
   0442 AF                 1577 	xor	a,a
   0443 F8 14              1578 	lda	hl,20(sp)
   0445 B6                 1579 	or	a,(hl)
   0446 B7                 1580 	or	a,a
   0447 C2 8D 04           1581 	jp	nz,00110$
                           1582 ;	GameObject.c 121
                           1583 ; genMinus
                           1584 ; AOP_HL for _index
                           1585 ; AOP_STK for _setDirection_sloc16_1_0
   044A 21 03 00           1586 	ld	hl,#_index + 0
   044D 7E                 1587 	ld	a,(hl)
   044E C6 FE              1588 	add	a,#0xFE
   0450 F8 05              1589 	lda	hl,5(sp)
   0452 77                 1590 	ld	(hl),a ; 3
                           1591 ; genIpush
                           1592 ; AOP_STK for _setDirection_sloc3_1_0
   0453 F8 13              1593 	lda	hl,19(sp)
   0455 7E                 1594 	ld	a,(hl)
   0456 F5                 1595 	push	af
   0457 33                 1596 	inc	sp
                           1597 ; genIpush
                           1598 ; AOP_STK for _setDirection_sloc9_1_0
   0458 F8 0D              1599 	lda	hl,13(sp)
   045A 7E                 1600 	ld	a,(hl)
   045B F5                 1601 	push	af
   045C 33                 1602 	inc	sp
                           1603 ; genCall
   045D CD 00 00           1604 	call	__muluchar
                           1605 ; AOP_STK for _setDirection_sloc17_1_0
   0460 F8 06              1606 	lda	hl,6(sp)
   0462 73                 1607 	ld	(hl),e ; 3
   0463 E8 02              1608 	lda	sp,2(sp)
                           1609 ; genIpush
                           1610 ; AOP_STK for _setDirection_sloc1_1_0
   0465 F8 15              1611 	lda	hl,21(sp)
   0467 7E                 1612 	ld	a,(hl)
   0468 F5                 1613 	push	af
   0469 33                 1614 	inc	sp
                           1615 ; genIpush
                           1616 ; AOP_STK for _setDirection_sloc17_1_0
   046A F8 05              1617 	lda	hl,5(sp)
   046C 7E                 1618 	ld	a,(hl)
   046D F5                 1619 	push	af
   046E 33                 1620 	inc	sp
                           1621 ; genCall
   046F CD 00 00           1622 	call	__muluchar
                           1623 ; AOP_STK for _setDirection_sloc20_1_0
   0472 F8 03              1624 	lda	hl,3(sp)
   0474 73                 1625 	ld	(hl),e ; 3
   0475 E8 02              1626 	lda	sp,2(sp)
                           1627 ; genPlus
                           1628 ; AOP_STK for _setDirection_sloc16_1_0
                           1629 ; AOP_STK for _setDirection_sloc20_1_0
                           1630 ; AOP_STK for _setDirection_sloc19_1_0
   0477 F8 05              1631 	lda	hl,5(sp)
   0479 7E                 1632 	ld	a,(hl)
   047A F8 01              1633 	lda	hl,1(sp)
   047C 86                 1634 	add	a,(hl)
   047D 23                 1635 	inc	hl
   047E 77                 1636 	ld	(hl),a ; 3
                           1637 ; genIpush
                           1638 ; AOP_STK for _setDirection_sloc19_1_0
   047F 7E                 1639 	ld	a,(hl)
   0480 F5                 1640 	push	af
   0481 33                 1641 	inc	sp
                           1642 ; genIpush
                           1643 ; AOP_HL for _index
   0482 21 03 00           1644 	ld	hl,#_index + 0
   0485 7E                 1645 	ld	a,(hl)
   0486 F5                 1646 	push	af
   0487 33                 1647 	inc	sp
                           1648 ; genCall
   0488 CD 00 00           1649 	call	_set_sprite_tile
   048B E8 02              1650 	lda	sp,2(sp)
                           1651 ; genLabel
   048D                    1652 00110$:
                           1653 ;	GameObject.c 124
                           1654 ; genIpush
                           1655 ; AOP_STK for 
   048D F8 1F              1656 	lda	hl,31(sp)
   048F 7E                 1657 	ld	a,(hl)
   0490 F5                 1658 	push	af
   0491 33                 1659 	inc	sp
                           1660 ; genIpush
                           1661 ; AOP_HL for _index
   0492 21 03 00           1662 	ld	hl,#_index + 0
   0495 7E                 1663 	ld	a,(hl)
   0496 F5                 1664 	push	af
   0497 33                 1665 	inc	sp
                           1666 ; genCall
   0498 CD 00 00           1667 	call	_set_sprite_prop
   049B E8 02              1668 	lda	sp,2(sp)
                           1669 ;	GameObject.c 126
                           1670 ; genPlus
                           1671 ; AOP_HL for _index
                           1672 ; AOP_STK for _setDirection_sloc21_1_0
                           1673 ; genPlusIncr
   049D 21 03 00           1674 	ld	hl,#_index + 0
   04A0 7E                 1675 	ld	a,(hl)
   04A1 C6 01              1676 	add	a,#0x01
   04A3 F8 00              1677 	lda	hl,0(sp)
   04A5 77                 1678 	ld	(hl),a ; 3
                           1679 ; genAssign
                           1680 ; AOP_STK for _setDirection_sloc21_1_0
                           1681 ; AOP_HL for _index
   04A6 7E                 1682 	ld	a,(hl)
   04A7 21 03 00           1683 	ld	hl,#_index + 0
   04AA 77                 1684 	ld	(hl),a
                           1685 ; genAssign
                           1686 ; AOP_HL for _index
                           1687 ; (registers are the same)
                           1688 ;	GameObject.c 108
                           1689 ; genPlus
                           1690 ; AOP_HL for _x
                           1691 ; genPlusIncr
   04AB 21 01 00           1692 	ld	hl,#_x + 0
   04AE 7E                 1693 	ld	a,(hl)
   04AF C6 01              1694 	add	a,#0x01
   04B1 47                 1695 	ld	b,a
                           1696 ; genAssign
   04B2 48                 1697 	ld	c,b
                           1698 ; genAssign
                           1699 ; AOP_HL for _x
   04B3 71                 1700 	ld	(hl),c
                           1701 ; genGoto
   04B4 C3 50 03           1702 	jp	00112$
                           1703 ; genLabel
   04B7                    1704 00118$:
                           1705 ;	GameObject.c 106
                           1706 ; genPlus
                           1707 ; AOP_HL for _y
                           1708 ; genPlusIncr
   04B7 21 02 00           1709 	ld	hl,#_y + 0
   04BA 34                 1710 	inc	(hl)
                           1711 ; genGoto
   04BB C3 38 03           1712 	jp	00116$
                           1713 ; genLabel
   04BE                    1714 00119$:
                           1715 ;	GameObject.c 129
                           1716 ; genAssign
                           1717 ; AOP_HL for _index
   04BE 21 03 00           1718 	ld	hl,#_index + 0
   04C1 36 00              1719 	ld	(hl),#0x00
                           1720 ; genLabel
   04C3                    1721 00120$:
                           1722 ; genEndFunction
   04C3 E8 19              1723 	lda	sp,25(sp)
   04C5 C1                 1724 	pop bc
   04C6 C9                 1725 	ret
   04C7                    1726 ___setDirection_end:
                           1727 ;	GameObject.c 134
                           1728 ; genLabel
                           1729 ; genFunction
                           1730 ;	---------------------------------
                           1731 ; Function Jump
                           1732 ; ---------------------------------
   04C7                    1733 ___Jump_start:
   04C7                    1734 _Jump:
   04C7 C5                 1735 	push	bc
   04C8 E8 FA              1736 	lda sp,-6(sp)
                           1737 ;	GameObject.c 136
                           1738 ; genAssign
                           1739 ; AOP_STK for 
                           1740 ; AOP_STK for _Jump_sloc1_1_0
   04CA F8 0A              1741 	lda	hl,10(sp)
   04CC 2A                 1742 	ld	a,(hl+)
   04CD 5E                 1743 	ld	e,(hl)
   04CE F8 02              1744 	lda	hl,2(sp)
   04D0 77                 1745 	ld	(hl),a ; 3
   04D1 23                 1746 	inc	hl
   04D2 73                 1747 	ld	(hl),e ; 3
                           1748 ; genPlus
                           1749 ; AOP_STK for _Jump_sloc1_1_0
                           1750 ; AOP_STK for _Jump_sloc0_1_0
                           1751 ; genPlusIncr
   04D3 2B                 1752 	dec	hl
   04D4 7E                 1753 	ld	a,(hl)
   04D5 C6 0F              1754 	add	a,#0x0F
   04D7 23                 1755 	inc	hl
   04D8 23                 1756 	inc	hl
   04D9 77                 1757 	ld	(hl),a ; 3
   04DA 2B                 1758 	dec	hl
   04DB 7E                 1759 	ld	a,(hl)
   04DC CE 00              1760 	adc	a,#0x00
   04DE 23                 1761 	inc	hl
   04DF 23                 1762 	inc	hl
   04E0 77                 1763 	ld	(hl),a ; 3
                           1764 ; genPointerGet
                           1765 ; AOP_STK for _Jump_sloc0_1_0
   04E1 2B                 1766 	dec	hl
   04E2 5E                 1767 	ld	e,(hl)
   04E3 23                 1768 	inc	hl
   04E4 56                 1769 	ld	d,(hl)
   04E5 1A                 1770 	ld	a,(de)
   04E6 4F                 1771 	ld	c,a
                           1772 ; genUminus
   04E7 AF                 1773 	xor	a,a
   04E8 3E 00              1774 	ld	a,#0x00
   04EA 99                 1775 	sbc	a,c
   04EB 4F                 1776 	ld	c,a
                           1777 ; genCast
                           1778 ; Removed redundent load
   04EC 06 00              1779 	ld	b,#0x00
                           1780 ; genIpush
   04EE C5                 1781 	push	bc
                           1782 ; genIpush
   04EF 3E 00              1783 	ld	a,#0x00
   04F1 F5                 1784 	push	af
   04F2 33                 1785 	inc	sp
                           1786 ; genIpush
                           1787 ; AOP_STK for _Jump_sloc1_1_0
   04F3 F8 05              1788 	lda	hl,5(sp)
   04F5 2A                 1789 	ld	a,(hl+)
   04F6 66                 1790 	ld	h,(hl)
   04F7 6F                 1791 	ld	l,a
   04F8 E5                 1792 	push	hl
                           1793 ; genCall
   04F9 CD 37 00           1794 	call	_MoveChar
   04FC E8 05              1795 	lda	sp,5(sp)
                           1796 ;	GameObject.c 137
                           1797 ; genPointerGet
                           1798 ; AOP_STK for _Jump_sloc0_1_0
   04FE F8 04              1799 	lda	hl,4(sp)
   0500 5E                 1800 	ld	e,(hl)
   0501 23                 1801 	inc	hl
   0502 56                 1802 	ld	d,(hl)
   0503 1A                 1803 	ld	a,(de)
                           1804 ; genPlus
                           1805 ; AOP_HL for _gravity
   0504 21 00 00           1806 	ld	hl,#_gravity + 0
   0507 86                 1807 	add	a,(hl)
   0508 4F                 1808 	ld	c,a
                           1809 ; genAssign (pointer)
                           1810 ; AOP_STK for _Jump_sloc0_1_0
   0509 F8 04              1811 	lda	hl,4(sp)
   050B 5E                 1812 	ld	e,(hl)
   050C 23                 1813 	inc	hl
   050D 56                 1814 	ld	d,(hl)
   050E 79                 1815 	ld	a,c
   050F 12                 1816 	ld	(de),a
                           1817 ;	GameObject.c 138
                           1818 ; genAssign
                           1819 ; AOP_SFR for _NR10_REG
   0510 3E 16              1820 	ld	a,#0x16
   0512 E0 00              1821 	ldh	(_NR10_REG+0),a
                           1822 ;	GameObject.c 139
                           1823 ; genAssign
                           1824 ; AOP_SFR for _NR11_REG
   0514 3E 40              1825 	ld	a,#0x40
   0516 E0 00              1826 	ldh	(_NR11_REG+0),a
                           1827 ;	GameObject.c 140
                           1828 ; genAssign
                           1829 ; AOP_SFR for _NR12_REG
   0518 3E C2              1830 	ld	a,#0xC2
   051A E0 00              1831 	ldh	(_NR12_REG+0),a
                           1832 ;	GameObject.c 141
                           1833 ; genAssign
                           1834 ; AOP_SFR for _NR13_REG
   051C 3E 00              1835 	ld	a,#0x00
   051E E0 00              1836 	ldh	(_NR13_REG+0),a
                           1837 ;	GameObject.c 142
                           1838 ; genAssign
                           1839 ; AOP_SFR for _NR14_REG
   0520 3E FF              1840 	ld	a,#0xFF
   0522 E0 00              1841 	ldh	(_NR14_REG+0),a
                           1842 ;	GameObject.c 143
                           1843 ; genPlus
                           1844 ; AOP_STK for _Jump_sloc1_1_0
                           1845 ; AOP_STK for _Jump_sloc2_1_0
                           1846 ; genPlusIncr
   0524 F8 02              1847 	lda	hl,2(sp)
   0526 7E                 1848 	ld	a,(hl)
   0527 C6 03              1849 	add	a,#0x03
   0529 2B                 1850 	dec	hl
   052A 2B                 1851 	dec	hl
   052B 77                 1852 	ld	(hl),a ; 3
   052C F8 03              1853 	lda	hl,3(sp)
   052E 7E                 1854 	ld	a,(hl)
   052F CE 00              1855 	adc	a,#0x00
   0531 2B                 1856 	dec	hl
   0532 2B                 1857 	dec	hl
   0533 77                 1858 	ld	(hl),a ; 3
                           1859 ; genPlus
                           1860 ; AOP_STK for _Jump_sloc1_1_0
                           1861 ; genPlusIncr
   0534 23                 1862 	inc	hl
   0535 7E                 1863 	ld	a,(hl)
   0536 C6 0D              1864 	add	a,#0x0D
   0538 5F                 1865 	ld	e,a
   0539 23                 1866 	inc	hl
   053A 7E                 1867 	ld	a,(hl)
   053B CE 00              1868 	adc	a,#0x00
   053D 57                 1869 	ld	d,a
                           1870 ; genPointerGet
   053E 1A                 1871 	ld	a,(de)
   053F 4F                 1872 	ld	c,a
                           1873 ; genPointerGet
                           1874 ; AOP_STK for _Jump_sloc2_1_0
   0540 F8 00              1875 	lda	hl,0(sp)
   0542 5E                 1876 	ld	e,(hl)
   0543 23                 1877 	inc	hl
   0544 56                 1878 	ld	d,(hl)
   0545 1A                 1879 	ld	a,(de)
   0546 47                 1880 	ld	b,a
                           1881 ; genCmpLt
   0547 AF                 1882 	xor	a,a
   0548 78                 1883 	ld	a,b
   0549 99                 1884 	sbc	a,c ; 2
   054A DA 7B 05           1885 	jp	c,00103$
                           1886 ;	GameObject.c 145
                           1887 ; genPlus
                           1888 ; AOP_STK for _Jump_sloc1_1_0
                           1889 ; genPlusIncr
   054D 23                 1890 	inc	hl
   054E 7E                 1891 	ld	a,(hl)
   054F C6 0C              1892 	add	a,#0x0C
   0551 5F                 1893 	ld	e,a
   0552 23                 1894 	inc	hl
   0553 7E                 1895 	ld	a,(hl)
   0554 CE 00              1896 	adc	a,#0x00
   0556 57                 1897 	ld	d,a
                           1898 ; genAssign (pointer)
   0557 3E 00              1899 	ld	a,#0x00
   0559 12                 1900 	ld	(de),a
                           1901 ;	GameObject.c 146
                           1902 ; genAssign (pointer)
                           1903 ; AOP_STK for _Jump_sloc0_1_0
   055A 23                 1904 	inc	hl
   055B 5E                 1905 	ld	e,(hl)
   055C 23                 1906 	inc	hl
   055D 56                 1907 	ld	d,(hl)
   055E 3E 08              1908 	ld	a,#0x08
   0560 12                 1909 	ld	(de),a
                           1910 ;	GameObject.c 148
                           1911 ; genAssign (pointer)
                           1912 ; AOP_STK for _Jump_sloc2_1_0
   0561 F8 00              1913 	lda	hl,0(sp)
   0563 5E                 1914 	ld	e,(hl)
   0564 23                 1915 	inc	hl
   0565 56                 1916 	ld	d,(hl)
   0566 79                 1917 	ld	a,c
   0567 12                 1918 	ld	(de),a
                           1919 ;	GameObject.c 149
                           1920 ; genIpush
   0568 21 00 00           1921 	ld	hl,#0x0000
   056B E5                 1922 	push	hl
                           1923 ; genIpush
   056C 3E 00              1924 	ld	a,#0x00
   056E F5                 1925 	push	af
   056F 33                 1926 	inc	sp
                           1927 ; genIpush
                           1928 ; AOP_STK for _Jump_sloc1_1_0
   0570 F8 05              1929 	lda	hl,5(sp)
   0572 2A                 1930 	ld	a,(hl+)
   0573 66                 1931 	ld	h,(hl)
   0574 6F                 1932 	ld	l,a
   0575 E5                 1933 	push	hl
                           1934 ; genCall
   0576 CD 37 00           1935 	call	_MoveChar
   0579 E8 05              1936 	lda	sp,5(sp)
                           1937 ; genLabel
   057B                    1938 00103$:
                           1939 ; genEndFunction
   057B E8 06              1940 	lda	sp,6(sp)
   057D C1                 1941 	pop bc
   057E C9                 1942 	ret
   057F                    1943 ___Jump_end:
                           1944 ;	Input.C 4
                           1945 ; genLabel
                           1946 ; genFunction
                           1947 ;	---------------------------------
                           1948 ; Function Input
                           1949 ; ---------------------------------
   057F                    1950 ___Input_start:
   057F                    1951 _Input:
   057F C5                 1952 	push	bc
   0580 E8 FA              1953 	lda sp,-6(sp)
                           1954 ;	Input.C 6
                           1955 ; genCall
   0582 CD 00 00           1956 	call	_joypad
                           1957 ;	Input.C 10
                           1958 ; genCall
   0585 CD 00 00           1959 	call	_joypad
   0588 4B                 1960 	ld	c,e
                           1961 ; genAnd
   0589 79                 1962 	ld	a,c
   058A CB 67              1963 	bit	4,a
   058C CA F8 05           1964 	jp	z,00105$
                           1965 ;	Input.C 13
                           1966 ; genAssign
                           1967 ; AOP_STK for 
                           1968 ; AOP_STK for _Input_sloc1_1_0
   058F F8 0A              1969 	lda	hl,10(sp)
   0591 2A                 1970 	ld	a,(hl+)
   0592 5E                 1971 	ld	e,(hl)
   0593 F8 02              1972 	lda	hl,2(sp)
   0595 77                 1973 	ld	(hl),a ; 3
   0596 23                 1974 	inc	hl
   0597 73                 1975 	ld	(hl),e ; 3
                           1976 ; genPlus
                           1977 ; AOP_STK for _Input_sloc1_1_0
                           1978 ; AOP_STK for _Input_sloc0_1_0
                           1979 ; genPlusIncr
   0598 2B                 1980 	dec	hl
   0599 7E                 1981 	ld	a,(hl)
   059A C6 0C              1982 	add	a,#0x0C
   059C 23                 1983 	inc	hl
   059D 23                 1984 	inc	hl
   059E 77                 1985 	ld	(hl),a ; 3
   059F 2B                 1986 	dec	hl
   05A0 7E                 1987 	ld	a,(hl)
   05A1 CE 00              1988 	adc	a,#0x00
   05A3 23                 1989 	inc	hl
   05A4 23                 1990 	inc	hl
   05A5 77                 1991 	ld	(hl),a ; 3
                           1992 ; genPointerGet
                           1993 ; AOP_STK for _Input_sloc0_1_0
   05A6 2B                 1994 	dec	hl
   05A7 5E                 1995 	ld	e,(hl)
   05A8 23                 1996 	inc	hl
   05A9 56                 1997 	ld	d,(hl)
   05AA 1A                 1998 	ld	a,(de)
   05AB 4F                 1999 	ld	c,a
                           2000 ; genCmpEq
   05AC 79                 2001 	ld	a,c
   05AD B7                 2002 	or	a,a
   05AE C2 B3 05           2003 	jp	nz,00126$
   05B1 18 03              2004 	jr	00127$
   05B3                    2005 00126$:
   05B3 C3 F8 05           2006 	jp	00105$
   05B6                    2007 00127$:
                           2008 ; genPlus
                           2009 ; AOP_STK for _Input_sloc1_1_0
                           2010 ; genPlusIncr
   05B6 F8 02              2011 	lda	hl,2(sp)
   05B8 7E                 2012 	ld	a,(hl)
   05B9 C6 0E              2013 	add	a,#0x0E
   05BB 5F                 2014 	ld	e,a
   05BC 23                 2015 	inc	hl
   05BD 7E                 2016 	ld	a,(hl)
   05BE CE 00              2017 	adc	a,#0x00
   05C0 57                 2018 	ld	d,a
                           2019 ; genPointerGet
   05C1 1A                 2020 	ld	a,(de)
   05C2 4F                 2021 	ld	c,a
                           2022 ; genCmpEq
   05C3 79                 2023 	ld	a,c
   05C4 B7                 2024 	or	a,a
   05C5 C2 CA 05           2025 	jp	nz,00128$
   05C8 18 03              2026 	jr	00129$
   05CA                    2027 00128$:
   05CA C3 F8 05           2028 	jp	00105$
   05CD                    2029 00129$:
                           2030 ;	Input.C 15
                           2031 ; genPlus
                           2032 ; AOP_STK for _Input_sloc1_1_0
                           2033 ; AOP_STK for _Input_sloc2_1_0
                           2034 ; genPlusIncr
   05CD F8 02              2035 	lda	hl,2(sp)
   05CF 7E                 2036 	ld	a,(hl)
   05D0 C6 0D              2037 	add	a,#0x0D
   05D2 2B                 2038 	dec	hl
   05D3 2B                 2039 	dec	hl
   05D4 77                 2040 	ld	(hl),a ; 3
   05D5 F8 03              2041 	lda	hl,3(sp)
   05D7 7E                 2042 	ld	a,(hl)
   05D8 CE 00              2043 	adc	a,#0x00
   05DA 2B                 2044 	dec	hl
   05DB 2B                 2045 	dec	hl
   05DC 77                 2046 	ld	(hl),a ; 3
                           2047 ; genPlus
                           2048 ; AOP_STK for _Input_sloc1_1_0
                           2049 ; genPlusIncr
   05DD 23                 2050 	inc	hl
   05DE 7E                 2051 	ld	a,(hl)
   05DF C6 03              2052 	add	a,#0x03
   05E1 5F                 2053 	ld	e,a
   05E2 23                 2054 	inc	hl
   05E3 7E                 2055 	ld	a,(hl)
   05E4 CE 00              2056 	adc	a,#0x00
   05E6 57                 2057 	ld	d,a
                           2058 ; genPointerGet
   05E7 1A                 2059 	ld	a,(de)
   05E8 4F                 2060 	ld	c,a
                           2061 ; genAssign (pointer)
                           2062 ; AOP_STK for _Input_sloc2_1_0
   05E9 F8 00              2063 	lda	hl,0(sp)
   05EB 5E                 2064 	ld	e,(hl)
   05EC 23                 2065 	inc	hl
   05ED 56                 2066 	ld	d,(hl)
   05EE 79                 2067 	ld	a,c
   05EF 12                 2068 	ld	(de),a
                           2069 ;	Input.C 16
                           2070 ; genAssign (pointer)
                           2071 ; AOP_STK for _Input_sloc0_1_0
   05F0 F8 04              2072 	lda	hl,4(sp)
   05F2 5E                 2073 	ld	e,(hl)
   05F3 23                 2074 	inc	hl
   05F4 56                 2075 	ld	d,(hl)
   05F5 3E 01              2076 	ld	a,#0x01
   05F7 12                 2077 	ld	(de),a
                           2078 ; genLabel
   05F8                    2079 00105$:
                           2080 ;	Input.C 19
                           2081 ; genCall
   05F8 CD 00 00           2082 	call	_joypad
   05FB 4B                 2083 	ld	c,e
                           2084 ; genAnd
   05FC 79                 2085 	ld	a,c
   05FD CB 4F              2086 	bit	1,a
   05FF CA 70 06           2087 	jp	z,00109$
                           2088 ;	Input.C 21
                           2089 ; genIpush
   0602 3E 00              2090 	ld	a,#0x00
   0604 F5                 2091 	push	af
   0605 33                 2092 	inc	sp
                           2093 ; genIpush
   0606 3E FB              2094 	ld	a,#0xFB
   0608 F5                 2095 	push	af
   0609 33                 2096 	inc	sp
                           2097 ; genCall
   060A CD 00 00           2098 	call	_scroll_bkg
   060D E8 02              2099 	lda	sp,2(sp)
                           2100 ;	Input.C 22
                           2101 ; genIpush
   060F 21 00 00           2102 	ld	hl,#0x0000
   0612 E5                 2103 	push	hl
                           2104 ; genIpush
   0613 3E FF              2105 	ld	a,#0xFF
   0615 F5                 2106 	push	af
   0616 33                 2107 	inc	sp
                           2108 ; genIpush
                           2109 ; AOP_STK for 
   0617 F8 0D              2110 	lda	hl,13(sp)
   0619 2A                 2111 	ld	a,(hl+)
   061A 66                 2112 	ld	h,(hl)
   061B 6F                 2113 	ld	l,a
   061C E5                 2114 	push	hl
                           2115 ; genCall
   061D CD 37 00           2116 	call	_MoveChar
   0620 E8 05              2117 	lda	sp,5(sp)
                           2118 ;	Input.C 23
                           2119 ; genAssign
                           2120 ; AOP_STK for 
                           2121 ; AOP_STK for _Input_sloc1_1_0
   0622 F8 0A              2122 	lda	hl,10(sp)
   0624 2A                 2123 	ld	a,(hl+)
   0625 5E                 2124 	ld	e,(hl)
   0626 F8 02              2125 	lda	hl,2(sp)
   0628 77                 2126 	ld	(hl),a ; 3
   0629 23                 2127 	inc	hl
   062A 73                 2128 	ld	(hl),e ; 3
                           2129 ; genPlus
                           2130 ; AOP_STK for _Input_sloc1_1_0
                           2131 ; AOP_STK for _Input_sloc2_1_0
                           2132 ; genPlusIncr
   062B 2B                 2133 	dec	hl
   062C 7E                 2134 	ld	a,(hl)
   062D C6 0B              2135 	add	a,#0x0B
   062F 2B                 2136 	dec	hl
   0630 2B                 2137 	dec	hl
   0631 77                 2138 	ld	(hl),a ; 3
   0632 F8 03              2139 	lda	hl,3(sp)
   0634 7E                 2140 	ld	a,(hl)
   0635 CE 00              2141 	adc	a,#0x00
   0637 2B                 2142 	dec	hl
   0638 2B                 2143 	dec	hl
   0639 77                 2144 	ld	(hl),a ; 3
                           2145 ; genPointerGet
                           2146 ; AOP_STK for _Input_sloc2_1_0
   063A 2B                 2147 	dec	hl
   063B 5E                 2148 	ld	e,(hl)
   063C 23                 2149 	inc	hl
   063D 56                 2150 	ld	d,(hl)
   063E 1A                 2151 	ld	a,(de)
   063F 4F                 2152 	ld	c,a
                           2153 ; genPlus
                           2154 ; genPlusIncr
   0640 0C                 2155 	inc	c
                           2156 ; genAssign (pointer)
                           2157 ; AOP_STK for _Input_sloc2_1_0
   0641 2B                 2158 	dec	hl
   0642 5E                 2159 	ld	e,(hl)
   0643 23                 2160 	inc	hl
   0644 56                 2161 	ld	d,(hl)
   0645 79                 2162 	ld	a,c
   0646 12                 2163 	ld	(de),a
                           2164 ;	Input.C 24
                           2165 ; genPlus
                           2166 ; AOP_STK for _Input_sloc1_1_0
                           2167 ; genPlusIncr
   0647 23                 2168 	inc	hl
   0648 7E                 2169 	ld	a,(hl)
   0649 C6 0A              2170 	add	a,#0x0A
   064B 5F                 2171 	ld	e,a
   064C 23                 2172 	inc	hl
   064D 7E                 2173 	ld	a,(hl)
   064E CE 00              2174 	adc	a,#0x00
   0650 57                 2175 	ld	d,a
                           2176 ; genPointerGet
   0651 1A                 2177 	ld	a,(de)
   0652 47                 2178 	ld	b,a
                           2179 ; genCmpGt
   0653 AF                 2180 	xor	a,a
   0654 78                 2181 	ld	a,b
   0655 99                 2182 	sbc	a,c ; 2
   0656 D2 61 06           2183 	jp	nc,00107$
                           2184 ;	Input.C 25
                           2185 ; genAssign (pointer)
                           2186 ; AOP_STK for _Input_sloc2_1_0
   0659 F8 00              2187 	lda	hl,0(sp)
   065B 5E                 2188 	ld	e,(hl)
   065C 23                 2189 	inc	hl
   065D 56                 2190 	ld	d,(hl)
   065E 3E 01              2191 	ld	a,#0x01
   0660 12                 2192 	ld	(de),a
                           2193 ; genLabel
   0661                    2194 00107$:
                           2195 ;	Input.C 26
                           2196 ; genIpush
   0661 3E 20              2197 	ld	a,#0x20
   0663 F5                 2198 	push	af
   0664 33                 2199 	inc	sp
                           2200 ; genIpush
                           2201 ; AOP_STK for _Input_sloc1_1_0
   0665 F8 03              2202 	lda	hl,3(sp)
   0667 2A                 2203 	ld	a,(hl+)
   0668 66                 2204 	ld	h,(hl)
   0669 6F                 2205 	ld	l,a
   066A E5                 2206 	push	hl
                           2207 ; genCall
   066B CD E4 02           2208 	call	_setDirection
   066E E8 03              2209 	lda	sp,3(sp)
                           2210 ; genLabel
   0670                    2211 00109$:
                           2212 ;	Input.C 30
                           2213 ; genCall
   0670 CD 00 00           2214 	call	_joypad
   0673 4B                 2215 	ld	c,e
                           2216 ; genAnd
   0674 79                 2217 	ld	a,c
   0675 CB 47              2218 	bit	0,a
   0677 CA 10 07           2219 	jp	z,00113$
                           2220 ;	Input.C 32
                           2221 ; genAssign
                           2222 ; AOP_SFR for _NR10_REG
   067A 3E 16              2223 	ld	a,#0x16
   067C E0 00              2224 	ldh	(_NR10_REG+0),a
                           2225 ;	Input.C 33
                           2226 ; genAssign
                           2227 ; AOP_SFR for _NR11_REG
   067E 3E 40              2228 	ld	a,#0x40
   0680 E0 00              2229 	ldh	(_NR11_REG+0),a
                           2230 ;	Input.C 34
                           2231 ; genAssign
                           2232 ; AOP_SFR for _NR12_REG
   0682 3E C2              2233 	ld	a,#0xC2
   0684 E0 00              2234 	ldh	(_NR12_REG+0),a
                           2235 ;	Input.C 35
                           2236 ; genAssign
                           2237 ; AOP_SFR for _NR13_REG
   0686 3E 00              2238 	ld	a,#0x00
   0688 E0 00              2239 	ldh	(_NR13_REG+0),a
                           2240 ;	Input.C 36
                           2241 ; genAssign
                           2242 ; AOP_SFR for _NR14_REG
   068A 3E FF              2243 	ld	a,#0xFF
   068C E0 00              2244 	ldh	(_NR14_REG+0),a
                           2245 ;	Input.C 37
                           2246 ; genIpush
   068E 3E 00              2247 	ld	a,#0x00
   0690 F5                 2248 	push	af
   0691 33                 2249 	inc	sp
                           2250 ; genIpush
   0692 3E 05              2251 	ld	a,#0x05
   0694 F5                 2252 	push	af
   0695 33                 2253 	inc	sp
                           2254 ; genCall
   0696 CD 00 00           2255 	call	_scroll_bkg
   0699 E8 02              2256 	lda	sp,2(sp)
                           2257 ;	Input.C 38
                           2258 ; genIpush
   069B 21 00 00           2259 	ld	hl,#0x0000
   069E E5                 2260 	push	hl
                           2261 ; genIpush
   069F 3E 01              2262 	ld	a,#0x01
   06A1 F5                 2263 	push	af
   06A2 33                 2264 	inc	sp
                           2265 ; genIpush
                           2266 ; AOP_STK for 
   06A3 F8 0D              2267 	lda	hl,13(sp)
   06A5 2A                 2268 	ld	a,(hl+)
   06A6 66                 2269 	ld	h,(hl)
   06A7 6F                 2270 	ld	l,a
   06A8 E5                 2271 	push	hl
                           2272 ; genCall
   06A9 CD 37 00           2273 	call	_MoveChar
   06AC E8 05              2274 	lda	sp,5(sp)
                           2275 ;	Input.C 39
                           2276 ; genAssign
                           2277 ; AOP_STK for 
                           2278 ; AOP_STK for _Input_sloc1_1_0
   06AE F8 0A              2279 	lda	hl,10(sp)
   06B0 2A                 2280 	ld	a,(hl+)
   06B1 5E                 2281 	ld	e,(hl)
   06B2 F8 02              2282 	lda	hl,2(sp)
   06B4 77                 2283 	ld	(hl),a ; 3
   06B5 23                 2284 	inc	hl
   06B6 73                 2285 	ld	(hl),e ; 3
                           2286 ; genPlus
                           2287 ; AOP_STK for _Input_sloc1_1_0
                           2288 ; AOP_STK for _Input_sloc2_1_0
                           2289 ; genPlusIncr
   06B7 2B                 2290 	dec	hl
   06B8 7E                 2291 	ld	a,(hl)
   06B9 C6 0B              2292 	add	a,#0x0B
   06BB 2B                 2293 	dec	hl
   06BC 2B                 2294 	dec	hl
   06BD 77                 2295 	ld	(hl),a ; 3
   06BE F8 03              2296 	lda	hl,3(sp)
   06C0 7E                 2297 	ld	a,(hl)
   06C1 CE 00              2298 	adc	a,#0x00
   06C3 2B                 2299 	dec	hl
   06C4 2B                 2300 	dec	hl
   06C5 77                 2301 	ld	(hl),a ; 3
                           2302 ; genPointerGet
                           2303 ; AOP_STK for _Input_sloc2_1_0
   06C6 2B                 2304 	dec	hl
   06C7 5E                 2305 	ld	e,(hl)
   06C8 23                 2306 	inc	hl
   06C9 56                 2307 	ld	d,(hl)
   06CA 1A                 2308 	ld	a,(de)
   06CB 4F                 2309 	ld	c,a
                           2310 ; genPlus
                           2311 ; genPlusIncr
   06CC 0C                 2312 	inc	c
                           2313 ; genAssign (pointer)
                           2314 ; AOP_STK for _Input_sloc2_1_0
   06CD 2B                 2315 	dec	hl
   06CE 5E                 2316 	ld	e,(hl)
   06CF 23                 2317 	inc	hl
   06D0 56                 2318 	ld	d,(hl)
   06D1 79                 2319 	ld	a,c
   06D2 12                 2320 	ld	(de),a
                           2321 ;	Input.C 40
                           2322 ; genPlus
                           2323 ; AOP_STK for _Input_sloc1_1_0
                           2324 ; genPlusIncr
   06D3 23                 2325 	inc	hl
   06D4 7E                 2326 	ld	a,(hl)
   06D5 C6 0A              2327 	add	a,#0x0A
   06D7 5F                 2328 	ld	e,a
   06D8 23                 2329 	inc	hl
   06D9 7E                 2330 	ld	a,(hl)
   06DA CE 00              2331 	adc	a,#0x00
   06DC 57                 2332 	ld	d,a
                           2333 ; genPointerGet
   06DD 1A                 2334 	ld	a,(de)
   06DE 47                 2335 	ld	b,a
                           2336 ; genCmpGt
   06DF AF                 2337 	xor	a,a
   06E0 78                 2338 	ld	a,b
   06E1 99                 2339 	sbc	a,c ; 2
   06E2 D2 ED 06           2340 	jp	nc,00111$
                           2341 ;	Input.C 42
                           2342 ; genAssign (pointer)
                           2343 ; AOP_STK for _Input_sloc2_1_0
   06E5 F8 00              2344 	lda	hl,0(sp)
   06E7 5E                 2345 	ld	e,(hl)
   06E8 23                 2346 	inc	hl
   06E9 56                 2347 	ld	d,(hl)
   06EA 3E 01              2348 	ld	a,#0x01
   06EC 12                 2349 	ld	(de),a
                           2350 ; genLabel
   06ED                    2351 00111$:
                           2352 ;	Input.C 45
                           2353 ; genPointerGet
                           2354 ; AOP_STK for _Input_sloc2_1_0
   06ED F8 00              2355 	lda	hl,0(sp)
   06EF 5E                 2356 	ld	e,(hl)
   06F0 23                 2357 	inc	hl
   06F1 56                 2358 	ld	d,(hl)
   06F2 1A                 2359 	ld	a,(de)
   06F3 4F                 2360 	ld	c,a
                           2361 ; genIpush
   06F4 79                 2362 	ld	a,c
   06F5 F5                 2363 	push	af
   06F6 33                 2364 	inc	sp
                           2365 ; genIpush
                           2366 ; AOP_STK for _Input_sloc1_1_0
   06F7 23                 2367 	inc	hl
   06F8 2A                 2368 	ld	a,(hl+)
   06F9 66                 2369 	ld	h,(hl)
   06FA 6F                 2370 	ld	l,a
   06FB E5                 2371 	push	hl
                           2372 ; genCall
   06FC CD 9F 01           2373 	call	_Animate
   06FF E8 03              2374 	lda	sp,3(sp)
                           2375 ;	Input.C 46
                           2376 ; genIpush
   0701 3E 00              2377 	ld	a,#0x00
   0703 F5                 2378 	push	af
   0704 33                 2379 	inc	sp
                           2380 ; genIpush
                           2381 ; AOP_STK for _Input_sloc1_1_0
   0705 F8 03              2382 	lda	hl,3(sp)
   0707 2A                 2383 	ld	a,(hl+)
   0708 66                 2384 	ld	h,(hl)
   0709 6F                 2385 	ld	l,a
   070A E5                 2386 	push	hl
                           2387 ; genCall
   070B CD E4 02           2388 	call	_setDirection
   070E E8 03              2389 	lda	sp,3(sp)
                           2390 ; genLabel
   0710                    2391 00113$:
                           2392 ;	Input.C 49
                           2393 ; genAssign
                           2394 ; AOP_STK for 
                           2395 ; AOP_STK for _Input_sloc2_1_0
   0710 F8 0A              2396 	lda	hl,10(sp)
   0712 2A                 2397 	ld	a,(hl+)
   0713 5E                 2398 	ld	e,(hl)
   0714 F8 00              2399 	lda	hl,0(sp)
   0716 77                 2400 	ld	(hl),a ; 3
   0717 23                 2401 	inc	hl
   0718 73                 2402 	ld	(hl),e ; 3
                           2403 ; genPlus
                           2404 ; AOP_STK for _Input_sloc2_1_0
                           2405 ; genPlusIncr
   0719 2B                 2406 	dec	hl
   071A 7E                 2407 	ld	a,(hl)
   071B C6 0C              2408 	add	a,#0x0C
   071D 5F                 2409 	ld	e,a
   071E 23                 2410 	inc	hl
   071F 7E                 2411 	ld	a,(hl)
   0720 CE 00              2412 	adc	a,#0x00
   0722 57                 2413 	ld	d,a
                           2414 ; genPointerGet
   0723 1A                 2415 	ld	a,(de)
   0724 4F                 2416 	ld	c,a
                           2417 ; genCmpEq
   0725 79                 2418 	ld	a,c ; 2
   0726 FE 01              2419 	cp	a,#0x01
   0728 C2 2D 07           2420 	jp	nz,00130$
   072B 18 03              2421 	jr	00131$
   072D                    2422 00130$:
   072D C3 3B 07           2423 	jp	00116$
   0730                    2424 00131$:
                           2425 ;	Input.C 51
                           2426 ; genIpush
                           2427 ; AOP_STK for _Input_sloc2_1_0
   0730 F8 00              2428 	lda	hl,0(sp)
   0732 2A                 2429 	ld	a,(hl+)
   0733 66                 2430 	ld	h,(hl)
   0734 6F                 2431 	ld	l,a
   0735 E5                 2432 	push	hl
                           2433 ; genCall
   0736 CD C7 04           2434 	call	_Jump
   0739 E8 02              2435 	lda	sp,2(sp)
                           2436 ; genLabel
   073B                    2437 00116$:
                           2438 ; genEndFunction
   073B E8 06              2439 	lda	sp,6(sp)
   073D C1                 2440 	pop bc
   073E C9                 2441 	ret
   073F                    2442 ___Input_end:
                           2443 ;	main.c 40
                           2444 ; genLabel
                           2445 ; genFunction
                           2446 ;	---------------------------------
                           2447 ; Function PlaySound
                           2448 ; ---------------------------------
   073F                    2449 ___PlaySound_start:
   073F                    2450 _PlaySound:
   073F C5                 2451 	push	bc
                           2452 ;	main.c 42
                           2453 ; genAssign
                           2454 ; AOP_SFR for _NR10_REG
   0740 3E 07              2455 	ld	a,#0x07
   0742 E0 00              2456 	ldh	(_NR10_REG+0),a
                           2457 ;	main.c 43
                           2458 ; genAssign
                           2459 ; AOP_SFR for _NR11_REG
   0744 3E 40              2460 	ld	a,#0x40
   0746 E0 00              2461 	ldh	(_NR11_REG+0),a
                           2462 ;	main.c 44
                           2463 ; genAssign
                           2464 ; AOP_SFR for _NR12_REG
   0748 3E 73              2465 	ld	a,#0x73
   074A E0 00              2466 	ldh	(_NR12_REG+0),a
                           2467 ;	main.c 45
                           2468 ; genAssign
                           2469 ; AOP_SFR for _NR13_REG
   074C 3E 00              2470 	ld	a,#0x00
   074E E0 00              2471 	ldh	(_NR13_REG+0),a
                           2472 ;	main.c 46
                           2473 ; genAssign
                           2474 ; AOP_SFR for _NR14_REG
   0750 3E C3              2475 	ld	a,#0xC3
   0752 E0 00              2476 	ldh	(_NR14_REG+0),a
                           2477 ; genLabel
   0754                    2478 00101$:
                           2479 ; genEndFunction
   0754 C1                 2480 	pop	bc
   0755 C9                 2481 	ret
   0756                    2482 ___PlaySound_end:
                           2483 ;	main.c 48
                           2484 ; genLabel
                           2485 ; genFunction
                           2486 ;	---------------------------------
                           2487 ; Function setupCharacter
                           2488 ; ---------------------------------
   0756                    2489 ___setupCharacter_start:
   0756                    2490 _setupCharacter:
   0756 C5                 2491 	push	bc
   0757 E8 F0              2492 	lda sp,-16(sp)
                           2493 ;	main.c 50
                           2494 ; genAssign
                           2495 ; AOP_STK for 
                           2496 ; AOP_STK for _setupCharacter_sloc0_1_0
   0759 F8 14              2497 	lda	hl,20(sp)
   075B 2A                 2498 	ld	a,(hl+)
   075C 5E                 2499 	ld	e,(hl)
   075D F8 0E              2500 	lda	hl,14(sp)
   075F 77                 2501 	ld	(hl),a ; 3
   0760 23                 2502 	inc	hl
   0761 73                 2503 	ld	(hl),e ; 3
                           2504 ; genCast
                           2505 ; AOP_STK for 
                           2506 ; AOP_STK for _setupCharacter_sloc1_1_0
   0762 F8 16              2507 	lda	hl,22(sp)
   0764 7E                 2508 	ld	a,(hl)
   0765 F8 0D              2509 	lda	hl,13(sp)
   0767 77                 2510 	ld	(hl),a ; 3
                           2511 ; genAssign (pointer)
                           2512 ; AOP_STK for _setupCharacter_sloc0_1_0
                           2513 ; AOP_STK for _setupCharacter_sloc1_1_0
   0768 23                 2514 	inc	hl
   0769 5E                 2515 	ld	e,(hl)
   076A 23                 2516 	inc	hl
   076B 56                 2517 	ld	d,(hl)
   076C 2B                 2518 	dec	hl
   076D 2B                 2519 	dec	hl
   076E 7E                 2520 	ld	a,(hl)
   076F 12                 2521 	ld	(de),a
                           2522 ;	main.c 51
                           2523 ; genAssign (pointer)
                           2524 ; AOP_STK for _setupCharacter_sloc0_1_0
                           2525 ; AOP_STK for _setupCharacter_sloc1_1_0
   0770 23                 2526 	inc	hl
   0771 5E                 2527 	ld	e,(hl)
   0772 23                 2528 	inc	hl
   0773 56                 2529 	ld	d,(hl)
   0774 2B                 2530 	dec	hl
   0775 2B                 2531 	dec	hl
   0776 7E                 2532 	ld	a,(hl)
   0777 12                 2533 	ld	(de),a
                           2534 ;	main.c 52
                           2535 ; genPlus
                           2536 ; AOP_STK for _setupCharacter_sloc0_1_0
                           2537 ; AOP_STK for _setupCharacter_sloc2_1_0
                           2538 ; genPlusIncr
   0778 23                 2539 	inc	hl
   0779 7E                 2540 	ld	a,(hl)
   077A C6 01              2541 	add	a,#0x01
   077C F8 0B              2542 	lda	hl,11(sp)
   077E 77                 2543 	ld	(hl),a ; 3
   077F F8 0F              2544 	lda	hl,15(sp)
   0781 7E                 2545 	ld	a,(hl)
   0782 CE 00              2546 	adc	a,#0x00
   0784 F8 0C              2547 	lda	hl,12(sp)
   0786 77                 2548 	ld	(hl),a ; 3
                           2549 ; genCast
                           2550 ; AOP_STK for 
                           2551 ; AOP_STK for _setupCharacter_sloc3_1_0
   0787 F8 18              2552 	lda	hl,24(sp)
   0789 7E                 2553 	ld	a,(hl)
   078A F8 0A              2554 	lda	hl,10(sp)
   078C 77                 2555 	ld	(hl),a ; 3
                           2556 ; genAssign (pointer)
                           2557 ; AOP_STK for _setupCharacter_sloc2_1_0
                           2558 ; AOP_STK for _setupCharacter_sloc3_1_0
   078D 23                 2559 	inc	hl
   078E 5E                 2560 	ld	e,(hl)
   078F 23                 2561 	inc	hl
   0790 56                 2562 	ld	d,(hl)
   0791 2B                 2563 	dec	hl
   0792 2B                 2564 	dec	hl
   0793 7E                 2565 	ld	a,(hl)
   0794 12                 2566 	ld	(de),a
                           2567 ;	main.c 53
                           2568 ; genPlus
                           2569 ; AOP_STK for _setupCharacter_sloc0_1_0
                           2570 ; genPlusIncr
   0795 F8 0E              2571 	lda	hl,14(sp)
   0797 7E                 2572 	ld	a,(hl)
   0798 C6 0B              2573 	add	a,#0x0B
   079A 5F                 2574 	ld	e,a
   079B 23                 2575 	inc	hl
   079C 7E                 2576 	ld	a,(hl)
   079D CE 00              2577 	adc	a,#0x00
   079F 57                 2578 	ld	d,a
                           2579 ; genAssign (pointer)
   07A0 3E 01              2580 	ld	a,#0x01
   07A2 12                 2581 	ld	(de),a
                           2582 ;	main.c 54
                           2583 ; genPlus
                           2584 ; AOP_STK for _setupCharacter_sloc0_1_0
                           2585 ; genPlusIncr
   07A3 2B                 2586 	dec	hl
   07A4 7E                 2587 	ld	a,(hl)
   07A5 C6 07              2588 	add	a,#0x07
   07A7 5F                 2589 	ld	e,a
   07A8 23                 2590 	inc	hl
   07A9 7E                 2591 	ld	a,(hl)
   07AA CE 00              2592 	adc	a,#0x00
   07AC 57                 2593 	ld	d,a
                           2594 ; genAssign (pointer)
                           2595 ; AOP_STK for 
   07AD F8 1A              2596 	lda	hl,26(sp)
   07AF 7E                 2597 	ld	a,(hl)
   07B0 12                 2598 	ld	(de),a
   07B1 13                 2599 	inc	de
   07B2 23                 2600 	inc	hl
   07B3 7E                 2601 	ld	a,(hl)
   07B4 12                 2602 	ld	(de),a
                           2603 ;	main.c 55
                           2604 ; genPlus
                           2605 ; AOP_STK for _setupCharacter_sloc0_1_0
                           2606 ; AOP_STK for _setupCharacter_sloc4_1_0
                           2607 ; genPlusIncr
   07B5 F8 0E              2608 	lda	hl,14(sp)
   07B7 7E                 2609 	ld	a,(hl)
   07B8 C6 02              2610 	add	a,#0x02
   07BA F8 08              2611 	lda	hl,8(sp)
   07BC 77                 2612 	ld	(hl),a ; 3
   07BD F8 0F              2613 	lda	hl,15(sp)
   07BF 7E                 2614 	ld	a,(hl)
   07C0 CE 00              2615 	adc	a,#0x00
   07C2 F8 09              2616 	lda	hl,9(sp)
   07C4 77                 2617 	ld	(hl),a ; 3
                           2618 ; genAssign (pointer)
                           2619 ; AOP_STK for _setupCharacter_sloc4_1_0
                           2620 ; AOP_STK for 
   07C5 2B                 2621 	dec	hl
   07C6 5E                 2622 	ld	e,(hl)
   07C7 23                 2623 	inc	hl
   07C8 56                 2624 	ld	d,(hl)
   07C9 F8 1C              2625 	lda	hl,28(sp)
   07CB 7E                 2626 	ld	a,(hl)
   07CC 12                 2627 	ld	(de),a
                           2628 ;	main.c 56
                           2629 ; genPlus
                           2630 ; AOP_STK for _setupCharacter_sloc0_1_0
                           2631 ; AOP_STK for _setupCharacter_sloc5_1_0
                           2632 ; genPlusIncr
   07CD F8 0E              2633 	lda	hl,14(sp)
   07CF 7E                 2634 	ld	a,(hl)
   07D0 C6 03              2635 	add	a,#0x03
   07D2 F8 06              2636 	lda	hl,6(sp)
   07D4 77                 2637 	ld	(hl),a ; 3
   07D5 F8 0F              2638 	lda	hl,15(sp)
   07D7 7E                 2639 	ld	a,(hl)
   07D8 CE 00              2640 	adc	a,#0x00
   07DA F8 07              2641 	lda	hl,7(sp)
   07DC 77                 2642 	ld	(hl),a ; 3
                           2643 ; genAssign (pointer)
                           2644 ; AOP_STK for _setupCharacter_sloc5_1_0
                           2645 ; AOP_STK for 
   07DD 2B                 2646 	dec	hl
   07DE 5E                 2647 	ld	e,(hl)
   07DF 23                 2648 	inc	hl
   07E0 56                 2649 	ld	d,(hl)
   07E1 F8 1D              2650 	lda	hl,29(sp)
   07E3 7E                 2651 	ld	a,(hl)
   07E4 12                 2652 	ld	(de),a
                           2653 ;	main.c 57
                           2654 ; genPlus
                           2655 ; AOP_STK for _setupCharacter_sloc0_1_0
                           2656 ; genPlusIncr
   07E5 F8 0E              2657 	lda	hl,14(sp)
   07E7 7E                 2658 	ld	a,(hl)
   07E8 C6 04              2659 	add	a,#0x04
   07EA 5F                 2660 	ld	e,a
   07EB 23                 2661 	inc	hl
   07EC 7E                 2662 	ld	a,(hl)
   07ED CE 00              2663 	adc	a,#0x00
   07EF 57                 2664 	ld	d,a
                           2665 ; genLeftShift
                           2666 ; AOP_STK for 
   07F0 F8 16              2667 	lda	hl,22(sp)
   07F2 4E                 2668 	ld	c,(hl)
   07F3 23                 2669 	inc	hl
   07F4 46                 2670 	ld	b,(hl)
   07F5 3E 04              2671 	ld	a,#0x03+1
   07F7 18 05              2672 	jr	00116$
   07F9                    2673 00115$:
   07F9 B7                 2674 	or	a,a
   07FA CB 11              2675 	rl	c
   07FC CB 10              2676 	rl	b
   07FE                    2677 00116$:
   07FE 3D                 2678 	dec	a
   07FF 20 F8              2679 	jr	nz,00115$
                           2680 ; genCast
                           2681 ; Removed redundent load
                           2682 ; genAssign (pointer)
   0801 79                 2683 	ld	a,c
   0802 12                 2684 	ld	(de),a
                           2685 ;	main.c 58
                           2686 ; genPlus
                           2687 ; AOP_STK for _setupCharacter_sloc0_1_0
                           2688 ; genPlusIncr
   0803 F8 0E              2689 	lda	hl,14(sp)
   0805 7E                 2690 	ld	a,(hl)
   0806 C6 05              2691 	add	a,#0x05
   0808 5F                 2692 	ld	e,a
   0809 23                 2693 	inc	hl
   080A 7E                 2694 	ld	a,(hl)
   080B CE 00              2695 	adc	a,#0x00
   080D 57                 2696 	ld	d,a
                           2697 ; genLeftShift
                           2698 ; AOP_STK for 
                           2699 ; AOP_STK for _setupCharacter_sloc6_1_0
   080E F8 18              2700 	lda	hl,24(sp)
   0810 7E                 2701 	ld	a,(hl)
   0811 F8 04              2702 	lda	hl,4(sp)
   0813 77                 2703 	ld	(hl),a ; 3
   0814 F8 19              2704 	lda	hl,25(sp)
   0816 7E                 2705 	ld	a,(hl)
   0817 F8 05              2706 	lda	hl,5(sp)
   0819 77                 2707 	ld	(hl),a ; 3
   081A 3E 04              2708 	ld	a,#0x03+1
   081C 18 08              2709 	jr	00118$
   081E                    2710 00117$:
   081E B7                 2711 	or	a,a
   081F F8 04              2712 	lda	hl,4(sp)
   0821 CB 16              2713 	rl	(hl)
   0823 23                 2714 	inc	hl
   0824 CB 16              2715 	rl	(hl)
   0826                    2716 00118$:
   0826 3D                 2717 	dec	a
   0827 20 F5              2718 	jr	nz,00117$
                           2719 ; genCast
                           2720 ; AOP_STK for _setupCharacter_sloc6_1_0
   0829 F8 04              2721 	lda	hl,4(sp)
   082B 4E                 2722 	ld	c,(hl)
                           2723 ; genAssign (pointer)
   082C 79                 2724 	ld	a,c
   082D 12                 2725 	ld	(de),a
                           2726 ;	main.c 59
                           2727 ; genPlus
                           2728 ; AOP_STK for _setupCharacter_sloc0_1_0
                           2729 ; genPlusIncr
   082E F8 0E              2730 	lda	hl,14(sp)
   0830 7E                 2731 	ld	a,(hl)
   0831 C6 06              2732 	add	a,#0x06
   0833 5F                 2733 	ld	e,a
   0834 23                 2734 	inc	hl
   0835 7E                 2735 	ld	a,(hl)
   0836 CE 00              2736 	adc	a,#0x00
   0838 57                 2737 	ld	d,a
                           2738 ; genAssign (pointer)
                           2739 ; AOP_STK for 
   0839 F8 1E              2740 	lda	hl,30(sp)
   083B 7E                 2741 	ld	a,(hl)
   083C 12                 2742 	ld	(de),a
                           2743 ;	main.c 60
                           2744 ; genPlus
                           2745 ; AOP_STK for _setupCharacter_sloc0_1_0
                           2746 ; genPlusIncr
   083D F8 0E              2747 	lda	hl,14(sp)
   083F 7E                 2748 	ld	a,(hl)
   0840 C6 0A              2749 	add	a,#0x0A
   0842 5F                 2750 	ld	e,a
   0843 23                 2751 	inc	hl
   0844 7E                 2752 	ld	a,(hl)
   0845 CE 00              2753 	adc	a,#0x00
   0847 57                 2754 	ld	d,a
                           2755 ; genAssign (pointer)
                           2756 ; AOP_STK for 
   0848 F8 1F              2757 	lda	hl,31(sp)
   084A 7E                 2758 	ld	a,(hl)
   084B 12                 2759 	ld	(de),a
                           2760 ;	main.c 61
                           2761 ; genPlus
                           2762 ; AOP_STK for _setupCharacter_sloc0_1_0
                           2763 ; genPlusIncr
   084C F8 0E              2764 	lda	hl,14(sp)
   084E 7E                 2765 	ld	a,(hl)
   084F C6 0C              2766 	add	a,#0x0C
   0851 5F                 2767 	ld	e,a
   0852 23                 2768 	inc	hl
   0853 7E                 2769 	ld	a,(hl)
   0854 CE 00              2770 	adc	a,#0x00
   0856 57                 2771 	ld	d,a
                           2772 ; genAssign (pointer)
   0857 3E 00              2773 	ld	a,#0x00
   0859 12                 2774 	ld	(de),a
                           2775 ;	main.c 62
                           2776 ; genPlus
                           2777 ; AOP_STK for _setupCharacter_sloc0_1_0
                           2778 ; genPlusIncr
   085A 2B                 2779 	dec	hl
   085B 7E                 2780 	ld	a,(hl)
   085C C6 0E              2781 	add	a,#0x0E
   085E 5F                 2782 	ld	e,a
   085F 23                 2783 	inc	hl
   0860 7E                 2784 	ld	a,(hl)
   0861 CE 00              2785 	adc	a,#0x00
   0863 57                 2786 	ld	d,a
                           2787 ; genAssign (pointer)
   0864 3E 00              2788 	ld	a,#0x00
   0866 12                 2789 	ld	(de),a
                           2790 ;	main.c 63
                           2791 ; genPlus
                           2792 ; AOP_STK for _setupCharacter_sloc0_1_0
                           2793 ; genPlusIncr
   0867 2B                 2794 	dec	hl
   0868 7E                 2795 	ld	a,(hl)
   0869 C6 0D              2796 	add	a,#0x0D
   086B 5F                 2797 	ld	e,a
   086C 23                 2798 	inc	hl
   086D 7E                 2799 	ld	a,(hl)
   086E CE 00              2800 	adc	a,#0x00
   0870 57                 2801 	ld	d,a
                           2802 ; genAssign (pointer)
                           2803 ; AOP_STK for 
   0871 F8 1D              2804 	lda	hl,29(sp)
   0873 7E                 2805 	ld	a,(hl)
   0874 12                 2806 	ld	(de),a
                           2807 ;	main.c 64
                           2808 ; genPlus
                           2809 ; AOP_STK for _setupCharacter_sloc0_1_0
                           2810 ; genPlusIncr
   0875 F8 0E              2811 	lda	hl,14(sp)
   0877 7E                 2812 	ld	a,(hl)
   0878 C6 0F              2813 	add	a,#0x0F
   087A 5F                 2814 	ld	e,a
   087B 23                 2815 	inc	hl
   087C 7E                 2816 	ld	a,(hl)
   087D CE 00              2817 	adc	a,#0x00
   087F 57                 2818 	ld	d,a
                           2819 ; genAssign (pointer)
   0880 3E 08              2820 	ld	a,#0x08
   0882 12                 2821 	ld	(de),a
                           2822 ;	main.c 65
                           2823 ; genIpush
                           2824 ; AOP_STK for _setupCharacter_sloc3_1_0
   0883 F8 0A              2825 	lda	hl,10(sp)
   0885 7E                 2826 	ld	a,(hl)
   0886 F5                 2827 	push	af
   0887 33                 2828 	inc	sp
                           2829 ; genIpush
                           2830 ; AOP_STK for _setupCharacter_sloc1_1_0
   0888 F8 0E              2831 	lda	hl,14(sp)
   088A 7E                 2832 	ld	a,(hl)
   088B F5                 2833 	push	af
   088C 33                 2834 	inc	sp
                           2835 ; genCall
   088D CD 00 00           2836 	call	__muluchar
   0890 4B                 2837 	ld	c,e
   0891 E8 02              2838 	lda	sp,2(sp)
                           2839 ; genIpush
                           2840 ; AOP_STK for 
   0893 F8 1F              2841 	lda	hl,31(sp)
   0895 7E                 2842 	ld	a,(hl)
   0896 F5                 2843 	push	af
   0897 33                 2844 	inc	sp
                           2845 ; genIpush
   0898 79                 2846 	ld	a,c
   0899 F5                 2847 	push	af
   089A 33                 2848 	inc	sp
                           2849 ; genCall
   089B CD 00 00           2850 	call	__muluchar
   089E 4B                 2851 	ld	c,e
   089F E8 02              2852 	lda	sp,2(sp)
                           2853 ; genIpush
                           2854 ; AOP_STK for 
   08A1 F8 1A              2855 	lda	hl,26(sp)
   08A3 2A                 2856 	ld	a,(hl+)
   08A4 66                 2857 	ld	h,(hl)
   08A5 6F                 2858 	ld	l,a
   08A6 E5                 2859 	push	hl
                           2860 ; genIpush
   08A7 79                 2861 	ld	a,c
   08A8 F5                 2862 	push	af
   08A9 33                 2863 	inc	sp
                           2864 ; genIpush
                           2865 ; AOP_STK for 
   08AA F8 21              2866 	lda	hl,33(sp)
   08AC 7E                 2867 	ld	a,(hl)
   08AD F5                 2868 	push	af
   08AE 33                 2869 	inc	sp
                           2870 ; genCall
   08AF CD 00 00           2871 	call	_set_sprite_data
   08B2 E8 04              2872 	lda	sp,4(sp)
                           2873 ;	main.c 66
                           2874 ; genAssign
                           2875 ; AOP_STK for 
                           2876 ; AOP_HL for _index
   08B4 F8 1E              2877 	lda	hl,30(sp)
   08B6 7E                 2878 	ld	a,(hl)
   08B7 21 03 00           2879 	ld	hl,#_index + 0
   08BA 77                 2880 	ld	(hl),a
                           2881 ; genAssign
                           2882 ; AOP_HL for _index
                           2883 ; (registers are the same)
                           2884 ;	main.c 67
                           2885 ; genAssign
                           2886 ; AOP_HL for _y
   08BB 21 02 00           2887 	ld	hl,#_y + 0
   08BE 36 00              2888 	ld	(hl),#0x00
                           2889 ; genLabel
   08C0                    2890 00105$:
                           2891 ; genPointerGet
                           2892 ; AOP_STK for _setupCharacter_sloc2_1_0
   08C0 F8 0B              2893 	lda	hl,11(sp)
   08C2 5E                 2894 	ld	e,(hl)
   08C3 23                 2895 	inc	hl
   08C4 56                 2896 	ld	d,(hl)
   08C5 1A                 2897 	ld	a,(de)
   08C6 4F                 2898 	ld	c,a
                           2899 ; genCmpLt
                           2900 ; AOP_HL for _y
   08C7 AF                 2901 	xor	a,a
   08C8 21 02 00           2902 	ld	hl,#_y + 0
   08CB 7E                 2903 	ld	a,(hl)
   08CC 99                 2904 	sbc	a,c ; 2
   08CD D2 69 09           2905 	jp	nc,00108$
                           2906 ;	main.c 69
                           2907 ; genAssign
                           2908 ; AOP_HL for _x
   08D0 21 01 00           2909 	ld	hl,#_x + 0
   08D3 36 00              2910 	ld	(hl),#0x00
                           2911 ; genLabel
   08D5                    2912 00101$:
                           2913 ; genPointerGet
                           2914 ; AOP_STK for _setupCharacter_sloc0_1_0
                           2915 ; AOP_STK for _setupCharacter_sloc3_1_0
   08D5 F8 0E              2916 	lda	hl,14(sp)
   08D7 5E                 2917 	ld	e,(hl)
   08D8 23                 2918 	inc	hl
   08D9 56                 2919 	ld	d,(hl)
   08DA 1A                 2920 	ld	a,(de)
   08DB F8 0A              2921 	lda	hl,10(sp)
   08DD 77                 2922 	ld	(hl),a ; 3
                           2923 ; genCmpLt
                           2924 ; AOP_HL for _x
                           2925 ; AOP_STK for _setupCharacter_sloc3_1_0
                           2926 ; AOP_STK for _setupCharacter_sloc6_1_0
   08DE AF                 2927 	xor	a,a
   08DF 21 01 00           2928 	ld	hl,#_x + 0
   08E2 7E                 2929 	ld	a,(hl)
   08E3 F8 0A              2930 	lda	hl,10(sp)
   08E5 9E                 2931 	sbc	a,(hl) ; 2
   08E6 3E 00              2932 	ld	a,#0x00
   08E8 17                 2933 	rla
   08E9 F8 04              2934 	lda	hl,4(sp)
   08EB 77                 2935 	ld	(hl),a ; 3
                           2936 ; genIfx
                           2937 ; AOP_STK for _setupCharacter_sloc6_1_0
                           2938 ; Removed redundent or a,a
   08EC AF                 2939 	xor	a,a
   08ED B6                 2940 	or	a,(hl)
   08EE CA 62 09           2941 	jp	z,00107$
                           2942 ;	main.c 71
                           2943 ; genLeftShift
                           2944 ; AOP_HL for _y
                           2945 ; AOP_STK for _setupCharacter_sloc7_1_0
   08F1 21 02 00           2946 	ld	hl,#_y + 0
   08F4 7E                 2947 	ld	a,(hl)
   08F5 CB 17              2948 	rl	a
   08F7 CB 17              2949 	rl	a
   08F9 CB 17              2950 	rl	a
   08FB E6 F8              2951 	and	a,#0xF8
   08FD F8 03              2952 	lda	hl,3(sp)
   08FF 77                 2953 	ld	(hl),a ; 3
                           2954 ; genPointerGet
                           2955 ; AOP_STK for _setupCharacter_sloc5_1_0
   0900 F8 06              2956 	lda	hl,6(sp)
   0902 5E                 2957 	ld	e,(hl)
   0903 23                 2958 	inc	hl
   0904 56                 2959 	ld	d,(hl)
   0905 1A                 2960 	ld	a,(de)
                           2961 ; genPlus
                           2962 ; AOP_STK for _setupCharacter_sloc7_1_0
                           2963 ; AOP_STK for _setupCharacter_sloc1_1_0
   0906 F8 03              2964 	lda	hl,3(sp)
   0908 86                 2965 	add	a,(hl)
   0909 F8 0D              2966 	lda	hl,13(sp)
   090B 77                 2967 	ld	(hl),a ; 3
                           2968 ; genLeftShift
                           2969 ; AOP_HL for _x
                           2970 ; AOP_STK for _setupCharacter_sloc9_1_0
   090C 21 01 00           2971 	ld	hl,#_x + 0
   090F 7E                 2972 	ld	a,(hl)
   0910 CB 17              2973 	rl	a
   0912 CB 17              2974 	rl	a
   0914 CB 17              2975 	rl	a
   0916 E6 F8              2976 	and	a,#0xF8
   0918 F8 01              2977 	lda	hl,1(sp)
   091A 77                 2978 	ld	(hl),a ; 3
                           2979 ; genPointerGet
                           2980 ; AOP_STK for _setupCharacter_sloc4_1_0
   091B F8 08              2981 	lda	hl,8(sp)
   091D 5E                 2982 	ld	e,(hl)
   091E 23                 2983 	inc	hl
   091F 56                 2984 	ld	d,(hl)
   0920 1A                 2985 	ld	a,(de)
                           2986 ; genPlus
                           2987 ; AOP_STK for _setupCharacter_sloc9_1_0
                           2988 ; AOP_STK for _setupCharacter_sloc8_1_0
   0921 F8 01              2989 	lda	hl,1(sp)
   0923 86                 2990 	add	a,(hl)
   0924 23                 2991 	inc	hl
   0925 77                 2992 	ld	(hl),a ; 3
                           2993 ; genIpush
                           2994 ; AOP_STK for _setupCharacter_sloc1_1_0
   0926 F8 0D              2995 	lda	hl,13(sp)
   0928 7E                 2996 	ld	a,(hl)
   0929 F5                 2997 	push	af
   092A 33                 2998 	inc	sp
                           2999 ; genIpush
                           3000 ; AOP_STK for _setupCharacter_sloc8_1_0
   092B F8 03              3001 	lda	hl,3(sp)
   092D 7E                 3002 	ld	a,(hl)
   092E F5                 3003 	push	af
   092F 33                 3004 	inc	sp
                           3005 ; genIpush
                           3006 ; AOP_HL for _index
   0930 21 03 00           3007 	ld	hl,#_index + 0
   0933 7E                 3008 	ld	a,(hl)
   0934 F5                 3009 	push	af
   0935 33                 3010 	inc	sp
                           3011 ; genCall
   0936 CD 00 00           3012 	call	_move_sprite
   0939 E8 03              3013 	lda	sp,3(sp)
                           3014 ;	main.c 72
                           3015 ; genIpush
                           3016 ; AOP_HL for _index
   093B 21 03 00           3017 	ld	hl,#_index + 0
   093E 7E                 3018 	ld	a,(hl)
   093F F5                 3019 	push	af
   0940 33                 3020 	inc	sp
                           3021 ; genIpush
                           3022 ; AOP_HL for _index
   0941 7E                 3023 	ld	a,(hl)
   0942 F5                 3024 	push	af
   0943 33                 3025 	inc	sp
                           3026 ; genCall
   0944 CD 00 00           3027 	call	_set_sprite_tile
   0947 E8 02              3028 	lda	sp,2(sp)
                           3029 ;	main.c 74
                           3030 ; genPlus
                           3031 ; AOP_HL for _index
                           3032 ; AOP_STK for _setupCharacter_sloc10_1_0
                           3033 ; genPlusIncr
   0949 21 03 00           3034 	ld	hl,#_index + 0
   094C 7E                 3035 	ld	a,(hl)
   094D C6 01              3036 	add	a,#0x01
   094F F8 00              3037 	lda	hl,0(sp)
   0951 77                 3038 	ld	(hl),a ; 3
                           3039 ; genAssign
                           3040 ; AOP_STK for _setupCharacter_sloc10_1_0
                           3041 ; AOP_HL for _index
   0952 7E                 3042 	ld	a,(hl)
   0953 21 03 00           3043 	ld	hl,#_index + 0
   0956 77                 3044 	ld	(hl),a
                           3045 ; genAssign
                           3046 ; AOP_HL for _index
                           3047 ; (registers are the same)
                           3048 ;	main.c 69
                           3049 ; genPlus
                           3050 ; AOP_HL for _x
                           3051 ; genPlusIncr
   0957 21 01 00           3052 	ld	hl,#_x + 0
   095A 7E                 3053 	ld	a,(hl)
   095B C6 01              3054 	add	a,#0x01
   095D 4F                 3055 	ld	c,a
                           3056 ; genAssign
                           3057 ; AOP_HL for _x
   095E 71                 3058 	ld	(hl),c
                           3059 ; genAssign
                           3060 ; AOP_HL for _x
                           3061 ; (registers are the same)
                           3062 ; genGoto
   095F C3 D5 08           3063 	jp	00101$
                           3064 ; genLabel
   0962                    3065 00107$:
                           3066 ;	main.c 67
                           3067 ; genPlus
                           3068 ; AOP_HL for _y
                           3069 ; genPlusIncr
   0962 21 02 00           3070 	ld	hl,#_y + 0
   0965 34                 3071 	inc	(hl)
                           3072 ; genGoto
   0966 C3 C0 08           3073 	jp	00105$
                           3074 ; genLabel
   0969                    3075 00108$:
                           3076 ;	main.c 77
                           3077 ; genAssign
                           3078 ; AOP_HL for _index
   0969 21 03 00           3079 	ld	hl,#_index + 0
   096C 36 00              3080 	ld	(hl),#0x00
                           3081 ;	main.c 79
                           3082 ; genIpush
                           3083 ; AOP_STK for 
   096E F8 18              3084 	lda	hl,24(sp)
   0970 2A                 3085 	ld	a,(hl+)
   0971 66                 3086 	ld	h,(hl)
   0972 6F                 3087 	ld	l,a
   0973 E5                 3088 	push	hl
                           3089 ; genIpush
                           3090 ; AOP_STK for 
   0974 F8 18              3091 	lda	hl,24(sp)
   0976 2A                 3092 	ld	a,(hl+)
   0977 66                 3093 	ld	h,(hl)
   0978 6F                 3094 	ld	l,a
   0979 E5                 3095 	push	hl
                           3096 ; genCall
   097A CD 00 00           3097 	call	__mulsint
                           3098 ; AOP_STK for _setupCharacter_sloc6_1_0
   097D F8 09              3099 	lda	hl,9(sp)
   097F 72                 3100 	ld	(hl),d ; 3
   0980 2B                 3101 	dec	hl
   0981 73                 3102 	ld	(hl),e ; 3
   0982 E8 04              3103 	lda	sp,4(sp)
                           3104 ; genCast
                           3105 ; AOP_HL for _index
                           3106 ; AOP_STK for _setupCharacter_sloc5_1_0
   0984 21 03 00           3107 	ld	hl,#_index + 0
   0987 7E                 3108 	ld	a,(hl)
   0988 F8 06              3109 	lda	hl,6(sp)
   098A 77                 3110 	ld	(hl),a ; 3
   098B 23                 3111 	inc	hl
   098C 36 00              3112 	ld	(hl),#0x00 ; 3
                           3113 ; genPlus
                           3114 ; AOP_STK for _setupCharacter_sloc5_1_0
                           3115 ; AOP_STK for _setupCharacter_sloc6_1_0
   098E 2B                 3116 	dec	hl
   098F 7E                 3117 	ld	a,(hl)
   0990 2B                 3118 	dec	hl
   0991 2B                 3119 	dec	hl
   0992 86                 3120 	add	a,(hl)
   0993 77                 3121 	ld	(hl),a ; 3
   0994 F8 07              3122 	lda	hl,7(sp)
   0996 7E                 3123 	ld	a,(hl)
   0997 2B                 3124 	dec	hl
   0998 2B                 3125 	dec	hl
   0999 8E                 3126 	adc	a,(hl)
   099A 77                 3127 	ld	(hl),a ; 3
                           3128 ; genCast
                           3129 ; AOP_STK for _setupCharacter_sloc6_1_0
                           3130 ; AOP_HL for _currentSpriteIndex
   099B 2B                 3131 	dec	hl
   099C 7E                 3132 	ld	a,(hl)
   099D 21 10 00           3133 	ld	hl,#_currentSpriteIndex + 0
   09A0 77                 3134 	ld	(hl),a
                           3135 ; genLabel
   09A1                    3136 00109$:
                           3137 ; genEndFunction
   09A1 E8 10              3138 	lda	sp,16(sp)
   09A3 C1                 3139 	pop bc
   09A4 C9                 3140 	ret
   09A5                    3141 ___setupCharacter_end:
                           3142 ;	main.c 86
                           3143 ; genLabel
                           3144 ; genFunction
                           3145 ;	---------------------------------
                           3146 ; Function playSong
                           3147 ; ---------------------------------
   09A5                    3148 ___playSong_start:
   09A5                    3149 _playSong:
   09A5 C5                 3150 	push	bc
                           3151 ;	main.c 88
                           3152 ; genAssign
                           3153 ; AOP_SFR for _NR10_REG
   09A6 3E 1E              3154 	ld	a,#0x1E
   09A8 E0 00              3155 	ldh	(_NR10_REG+0),a
                           3156 ;	main.c 89
                           3157 ; genAssign
                           3158 ; AOP_SFR for _NR11_REG
   09AA 3E 40              3159 	ld	a,#0x40
   09AC E0 00              3160 	ldh	(_NR11_REG+0),a
                           3161 ;	main.c 90
                           3162 ; genAssign
                           3163 ; AOP_SFR for _NR12_REG
   09AE 3E 73              3164 	ld	a,#0x73
   09B0 E0 00              3165 	ldh	(_NR12_REG+0),a
                           3166 ;	main.c 91
                           3167 ; genAssign
                           3168 ; AOP_SFR for _NR13_REG
   09B2 3E 00              3169 	ld	a,#0x00
   09B4 E0 00              3170 	ldh	(_NR13_REG+0),a
                           3171 ;	main.c 92
                           3172 ; genAssign
                           3173 ; AOP_SFR for _NR14_REG
   09B6 3E C3              3174 	ld	a,#0xC3
   09B8 E0 00              3175 	ldh	(_NR14_REG+0),a
                           3176 ;	main.c 93
                           3177 ; genIpush
   09BA 21 0A 00           3178 	ld	hl,#0x000A
   09BD E5                 3179 	push	hl
                           3180 ; genCall
   09BE CD 00 00           3181 	call	_delay
   09C1 E8 02              3182 	lda	sp,2(sp)
                           3183 ;	main.c 94
                           3184 ; genAssign
                           3185 ; AOP_SFR for _NR10_REG
   09C3 3E 09              3186 	ld	a,#0x09
   09C5 E0 00              3187 	ldh	(_NR10_REG+0),a
                           3188 ;	main.c 95
                           3189 ; genAssign
                           3190 ; AOP_SFR for _NR11_REG
   09C7 3E 40              3191 	ld	a,#0x40
   09C9 E0 00              3192 	ldh	(_NR11_REG+0),a
                           3193 ;	main.c 96
                           3194 ; genAssign
                           3195 ; AOP_SFR for _NR12_REG
   09CB 3E 73              3196 	ld	a,#0x73
   09CD E0 00              3197 	ldh	(_NR12_REG+0),a
                           3198 ;	main.c 97
                           3199 ; genAssign
                           3200 ; AOP_SFR for _NR13_REG
   09CF 3E 00              3201 	ld	a,#0x00
   09D1 E0 00              3202 	ldh	(_NR13_REG+0),a
                           3203 ;	main.c 98
                           3204 ; genAssign
                           3205 ; AOP_SFR for _NR14_REG
   09D3 3E C3              3206 	ld	a,#0xC3
   09D5 E0 00              3207 	ldh	(_NR14_REG+0),a
                           3208 ;	main.c 99
                           3209 ; genIpush
   09D7 21 0A 00           3210 	ld	hl,#0x000A
   09DA E5                 3211 	push	hl
                           3212 ; genCall
   09DB CD 00 00           3213 	call	_delay
   09DE E8 02              3214 	lda	sp,2(sp)
                           3215 ;	main.c 100
                           3216 ; genAssign
                           3217 ; AOP_SFR for _NR10_REG
   09E0 3E 0A              3218 	ld	a,#0x0A
   09E2 E0 00              3219 	ldh	(_NR10_REG+0),a
                           3220 ;	main.c 101
                           3221 ; genAssign
                           3222 ; AOP_SFR for _NR11_REG
   09E4 3E 40              3223 	ld	a,#0x40
   09E6 E0 00              3224 	ldh	(_NR11_REG+0),a
                           3225 ;	main.c 102
                           3226 ; genAssign
                           3227 ; AOP_SFR for _NR12_REG
   09E8 3E 73              3228 	ld	a,#0x73
   09EA E0 00              3229 	ldh	(_NR12_REG+0),a
                           3230 ;	main.c 103
                           3231 ; genAssign
                           3232 ; AOP_SFR for _NR13_REG
   09EC 3E 00              3233 	ld	a,#0x00
   09EE E0 00              3234 	ldh	(_NR13_REG+0),a
                           3235 ;	main.c 104
                           3236 ; genAssign
                           3237 ; AOP_SFR for _NR14_REG
   09F0 3E C3              3238 	ld	a,#0xC3
   09F2 E0 00              3239 	ldh	(_NR14_REG+0),a
                           3240 ;	main.c 105
                           3241 ; genIpush
   09F4 21 0A 00           3242 	ld	hl,#0x000A
   09F7 E5                 3243 	push	hl
                           3244 ; genCall
   09F8 CD 00 00           3245 	call	_delay
   09FB E8 02              3246 	lda	sp,2(sp)
                           3247 ;	main.c 106
                           3248 ; genAssign
                           3249 ; AOP_SFR for _NR10_REG
   09FD 3E 1B              3250 	ld	a,#0x1B
   09FF E0 00              3251 	ldh	(_NR10_REG+0),a
                           3252 ;	main.c 107
                           3253 ; genAssign
                           3254 ; AOP_SFR for _NR11_REG
   0A01 3E 40              3255 	ld	a,#0x40
   0A03 E0 00              3256 	ldh	(_NR11_REG+0),a
                           3257 ;	main.c 108
                           3258 ; genAssign
                           3259 ; AOP_SFR for _NR12_REG
   0A05 3E 73              3260 	ld	a,#0x73
   0A07 E0 00              3261 	ldh	(_NR12_REG+0),a
                           3262 ;	main.c 109
                           3263 ; genAssign
                           3264 ; AOP_SFR for _NR13_REG
   0A09 3E 00              3265 	ld	a,#0x00
   0A0B E0 00              3266 	ldh	(_NR13_REG+0),a
                           3267 ;	main.c 110
                           3268 ; genAssign
                           3269 ; AOP_SFR for _NR14_REG
   0A0D 3E C3              3270 	ld	a,#0xC3
   0A0F E0 00              3271 	ldh	(_NR14_REG+0),a
                           3272 ;	main.c 111
                           3273 ; genIpush
   0A11 21 0A 00           3274 	ld	hl,#0x000A
   0A14 E5                 3275 	push	hl
                           3276 ; genCall
   0A15 CD 00 00           3277 	call	_delay
   0A18 E8 02              3278 	lda	sp,2(sp)
                           3279 ;	main.c 112
                           3280 ; genAssign
                           3281 ; AOP_SFR for _NR10_REG
   0A1A 3E 08              3282 	ld	a,#0x08
   0A1C E0 00              3283 	ldh	(_NR10_REG+0),a
                           3284 ;	main.c 113
                           3285 ; genAssign
                           3286 ; AOP_SFR for _NR11_REG
   0A1E 3E 40              3287 	ld	a,#0x40
   0A20 E0 00              3288 	ldh	(_NR11_REG+0),a
                           3289 ;	main.c 114
                           3290 ; genAssign
                           3291 ; AOP_SFR for _NR12_REG
   0A22 3E 73              3292 	ld	a,#0x73
   0A24 E0 00              3293 	ldh	(_NR12_REG+0),a
                           3294 ;	main.c 115
                           3295 ; genAssign
                           3296 ; AOP_SFR for _NR13_REG
   0A26 3E 00              3297 	ld	a,#0x00
   0A28 E0 00              3298 	ldh	(_NR13_REG+0),a
                           3299 ;	main.c 116
                           3300 ; genAssign
                           3301 ; AOP_SFR for _NR14_REG
   0A2A 3E C3              3302 	ld	a,#0xC3
   0A2C E0 00              3303 	ldh	(_NR14_REG+0),a
                           3304 ;	main.c 117
                           3305 ; genIpush
   0A2E 21 0A 00           3306 	ld	hl,#0x000A
   0A31 E5                 3307 	push	hl
                           3308 ; genCall
   0A32 CD 00 00           3309 	call	_delay
   0A35 E8 02              3310 	lda	sp,2(sp)
                           3311 ;	main.c 118
                           3312 ; genAssign
                           3313 ; AOP_SFR for _NR10_REG
   0A37 3E 16              3314 	ld	a,#0x16
   0A39 E0 00              3315 	ldh	(_NR10_REG+0),a
                           3316 ;	main.c 119
                           3317 ; genAssign
                           3318 ; AOP_SFR for _NR11_REG
   0A3B 3E 40              3319 	ld	a,#0x40
   0A3D E0 00              3320 	ldh	(_NR11_REG+0),a
                           3321 ;	main.c 120
                           3322 ; genAssign
                           3323 ; AOP_SFR for _NR12_REG
   0A3F 3E 73              3324 	ld	a,#0x73
   0A41 E0 00              3325 	ldh	(_NR12_REG+0),a
                           3326 ;	main.c 121
                           3327 ; genAssign
                           3328 ; AOP_SFR for _NR13_REG
   0A43 3E 00              3329 	ld	a,#0x00
   0A45 E0 00              3330 	ldh	(_NR13_REG+0),a
                           3331 ;	main.c 122
                           3332 ; genAssign
                           3333 ; AOP_SFR for _NR14_REG
   0A47 3E C3              3334 	ld	a,#0xC3
   0A49 E0 00              3335 	ldh	(_NR14_REG+0),a
                           3336 ; genLabel
   0A4B                    3337 00101$:
                           3338 ; genEndFunction
   0A4B C1                 3339 	pop	bc
   0A4C C9                 3340 	ret
   0A4D                    3341 ___playSong_end:
                           3342 ;	main.c 128
                           3343 ; genLabel
                           3344 ; genFunction
                           3345 ;	---------------------------------
                           3346 ; Function main
                           3347 ; ---------------------------------
   0A4D                    3348 ___main_start:
   0A4D                    3349 _main:
   0A4D C5                 3350 	push	bc
   0A4E E8 FA              3351 	lda sp,-6(sp)
                           3352 ;	main.c 131
                           3353 ; genCall
   0A50 CD 00 00           3354 	call	_font_init
                           3355 ;	main.c 132
                           3356 ; genIpush
   0A53 21 00 00           3357 	ld	hl,#_font_min + 0
   0A56 E5                 3358 	push	hl
                           3359 ; genCall
   0A57 CD 00 00           3360 	call	_font_load
                           3361 ; AOP_HL for _min_font
   0A5A 21 12 00           3362 	ld	hl,#_min_font + 1
   0A5D 72                 3363 	ld	(hl),d
   0A5E 21 11 00           3364 	ld	hl,#_min_font + 0
   0A61 73                 3365 	ld	(hl),e
   0A62 E8 02              3366 	lda	sp,2(sp)
                           3367 ;	main.c 133
                           3368 ; genIpush
                           3369 ; AOP_HL for _min_font
   0A64 2A                 3370 	ld	a,(hl+)
   0A65 66                 3371 	ld	h,(hl)
   0A66 6F                 3372 	ld	l,a
   0A67 E5                 3373 	push	hl
                           3374 ; genCall
   0A68 CD 00 00           3375 	call	_font_set
   0A6B E8 02              3376 	lda	sp,2(sp)
                           3377 ;	main.c 135
                           3378 ; genIpush
   0A6D 21 FD 21           3379 	ld	hl,#_splashscreen3_data + 0
   0A70 E5                 3380 	push	hl
                           3381 ; genIpush
   0A71 3E ED              3382 	ld	a,#0xED
   0A73 F5                 3383 	push	af
   0A74 33                 3384 	inc	sp
                           3385 ; genIpush
   0A75 3E 00              3386 	ld	a,#0x00
   0A77 F5                 3387 	push	af
   0A78 33                 3388 	inc	sp
                           3389 ; genCall
   0A79 CD 00 00           3390 	call	_set_bkg_data
   0A7C E8 04              3391 	lda	sp,4(sp)
                           3392 ;	main.c 136
                           3393 ; genIpush
   0A7E 21 CD 30           3394 	ld	hl,#_splashscreen3_map + 0
   0A81 E5                 3395 	push	hl
                           3396 ; genIpush
   0A82 3E 12              3397 	ld	a,#0x12
   0A84 F5                 3398 	push	af
   0A85 33                 3399 	inc	sp
                           3400 ; genIpush
   0A86 3E 14              3401 	ld	a,#0x14
   0A88 F5                 3402 	push	af
   0A89 33                 3403 	inc	sp
                           3404 ; genIpush
   0A8A 3E 00              3405 	ld	a,#0x00
   0A8C F5                 3406 	push	af
   0A8D 33                 3407 	inc	sp
                           3408 ; genIpush
   0A8E 3E 00              3409 	ld	a,#0x00
   0A90 F5                 3410 	push	af
   0A91 33                 3411 	inc	sp
                           3412 ; genCall
   0A92 CD 00 00           3413 	call	_set_bkg_tiles
   0A95 E8 06              3414 	lda	sp,6(sp)
                           3415 ;	main.c 137
                           3416 ; genOr
                           3417 ; AOP_SFR for _LCDC_REG
                           3418 ; Type res[4] = l[4]&r[1]
                           3419 ; Size res[1] = l[1]&r[1]
   0A97 F0 00              3420 	ldh	a,(_LCDC_REG+0) ; x
   0A99 F6 01              3421 	or	a,#0x01
   0A9B E0 00              3422 	ldh	(_LCDC_REG+0),a
                           3423 ;	main.c 138
                           3424 ; genOr
                           3425 ; AOP_SFR for _LCDC_REG
                           3426 ; Type res[4] = l[4]&r[1]
                           3427 ; Size res[1] = l[1]&r[1]
   0A9D F0 00              3428 	ldh	a,(_LCDC_REG+0) ; x
   0A9F F6 80              3429 	or	a,#0x80
   0AA1 E0 00              3430 	ldh	(_LCDC_REG+0),a
                           3431 ;	main.c 140
                           3432 ; genIpush
   0AA3 21 8A 02           3433 	ld	hl,#0x028A
   0AA6 E5                 3434 	push	hl
                           3435 ; genCall
   0AA7 CD 00 00           3436 	call	_delay
   0AAA E8 02              3437 	lda	sp,2(sp)
                           3438 ;	main.c 141
                           3439 ; genIpush
   0AAC 21 35 32           3440 	ld	hl,#_radianlogo_data + 0
   0AAF E5                 3441 	push	hl
                           3442 ; genIpush
   0AB0 3E 8B              3443 	ld	a,#0x8B
   0AB2 F5                 3444 	push	af
   0AB3 33                 3445 	inc	sp
                           3446 ; genIpush
   0AB4 3E 00              3447 	ld	a,#0x00
   0AB6 F5                 3448 	push	af
   0AB7 33                 3449 	inc	sp
                           3450 ; genCall
   0AB8 CD 00 00           3451 	call	_set_bkg_data
   0ABB E8 04              3452 	lda	sp,4(sp)
                           3453 ;	main.c 142
                           3454 ; genIpush
   0ABD 21 E5 3A           3455 	ld	hl,#_radianlogo_map + 0
   0AC0 E5                 3456 	push	hl
                           3457 ; genIpush
   0AC1 3E 12              3458 	ld	a,#0x12
   0AC3 F5                 3459 	push	af
   0AC4 33                 3460 	inc	sp
                           3461 ; genIpush
   0AC5 3E 14              3462 	ld	a,#0x14
   0AC7 F5                 3463 	push	af
   0AC8 33                 3464 	inc	sp
                           3465 ; genIpush
   0AC9 3E 00              3466 	ld	a,#0x00
   0ACB F5                 3467 	push	af
   0ACC 33                 3468 	inc	sp
                           3469 ; genIpush
   0ACD 3E 00              3470 	ld	a,#0x00
   0ACF F5                 3471 	push	af
   0AD0 33                 3472 	inc	sp
                           3473 ; genCall
   0AD1 CD 00 00           3474 	call	_set_bkg_tiles
   0AD4 E8 06              3475 	lda	sp,6(sp)
                           3476 ;	main.c 145
                           3477 ; genIpush
   0AD6 3E 80              3478 	ld	a,#0x80
   0AD8 F5                 3479 	push	af
   0AD9 33                 3480 	inc	sp
                           3481 ; genCall
   0ADA CD 00 00           3482 	call	_waitpad
   0ADD E8 01              3483 	lda	sp,1(sp)
                           3484 ;	main.c 146
                           3485 ; genIpush
   0ADF 21 F9 0F           3486 	ld	hl,#_backmap1_data + 0
   0AE2 E5                 3487 	push	hl
                           3488 ; genIpush
   0AE3 3E AC              3489 	ld	a,#0xAC
   0AE5 F5                 3490 	push	af
   0AE6 33                 3491 	inc	sp
                           3492 ; genIpush
   0AE7 3E 00              3493 	ld	a,#0x00
   0AE9 F5                 3494 	push	af
   0AEA 33                 3495 	inc	sp
                           3496 ; genCall
   0AEB CD 00 00           3497 	call	_set_bkg_data
   0AEE E8 04              3498 	lda	sp,4(sp)
                           3499 ;	main.c 147
                           3500 ; genIpush
   0AF0 21 B9 1A           3501 	ld	hl,#_backmap1_map + 0
   0AF3 E5                 3502 	push	hl
                           3503 ; genIpush
   0AF4 3E 12              3504 	ld	a,#0x12
   0AF6 F5                 3505 	push	af
   0AF7 33                 3506 	inc	sp
                           3507 ; genIpush
   0AF8 3E 50              3508 	ld	a,#0x50
   0AFA F5                 3509 	push	af
   0AFB 33                 3510 	inc	sp
                           3511 ; genIpush
   0AFC 3E 00              3512 	ld	a,#0x00
   0AFE F5                 3513 	push	af
   0AFF 33                 3514 	inc	sp
                           3515 ; genIpush
   0B00 3E 00              3516 	ld	a,#0x00
   0B02 F5                 3517 	push	af
   0B03 33                 3518 	inc	sp
                           3519 ; genCall
   0B04 CD 00 00           3520 	call	_set_bkg_tiles
   0B07 E8 06              3521 	lda	sp,6(sp)
                           3522 ;	main.c 151
                           3523 ; genIpush
   0B09 3E 01              3524 	ld	a,#0x01
   0B0B F5                 3525 	push	af
   0B0C 33                 3526 	inc	sp
                           3527 ; genIpush
                           3528 ; AOP_HL for _currentSpriteIndex
   0B0D 21 10 00           3529 	ld	hl,#_currentSpriteIndex + 0
   0B10 7E                 3530 	ld	a,(hl)
   0B11 F5                 3531 	push	af
   0B12 33                 3532 	inc	sp
                           3533 ; genIpush
   0B13 3E 6A              3534 	ld	a,#0x6A
   0B15 F5                 3535 	push	af
   0B16 33                 3536 	inc	sp
                           3537 ; genIpush
   0B17 3E 6C              3538 	ld	a,#0x6C
   0B19 F5                 3539 	push	af
   0B1A 33                 3540 	inc	sp
                           3541 ; genIpush
   0B1B 21 5D 21           3542 	ld	hl,#_tiosprite + 0
   0B1E E5                 3543 	push	hl
                           3544 ; genIpush
   0B1F 21 04 00           3545 	ld	hl,#0x0004
   0B22 E5                 3546 	push	hl
                           3547 ; genIpush
   0B23 21 02 00           3548 	ld	hl,#0x0002
   0B26 E5                 3549 	push	hl
                           3550 ; genIpush
   0B27 21 13 00           3551 	ld	hl,#_mrGuy + 0
   0B2A E5                 3552 	push	hl
                           3553 ; genCall
   0B2B CD 56 07           3554 	call	_setupCharacter
   0B2E E8 0C              3555 	lda	sp,12(sp)
                           3556 ;	main.c 152
                           3557 ; genIpush
   0B30 3E 01              3558 	ld	a,#0x01
   0B32 F5                 3559 	push	af
   0B33 33                 3560 	inc	sp
                           3561 ; genIpush
                           3562 ; AOP_HL for _currentSpriteIndex
   0B34 21 10 00           3563 	ld	hl,#_currentSpriteIndex + 0
   0B37 7E                 3564 	ld	a,(hl)
   0B38 F5                 3565 	push	af
   0B39 33                 3566 	inc	sp
                           3567 ; genIpush
   0B3A 3E C4              3568 	ld	a,#0xC4
   0B3C F5                 3569 	push	af
   0B3D 33                 3570 	inc	sp
                           3571 ; genIpush
   0B3E 3E 2D              3572 	ld	a,#0x2D
   0B40 F5                 3573 	push	af
   0B41 33                 3574 	inc	sp
                           3575 ; genIpush
   0B42 21 5D 20           3576 	ld	hl,#_beasprite + 0
   0B45 E5                 3577 	push	hl
                           3578 ; genIpush
   0B46 21 04 00           3579 	ld	hl,#0x0004
   0B49 E5                 3580 	push	hl
                           3581 ; genIpush
   0B4A 21 04 00           3582 	ld	hl,#0x0004
   0B4D E5                 3583 	push	hl
                           3584 ; genIpush
   0B4E 21 23 00           3585 	ld	hl,#_beachan + 0
   0B51 E5                 3586 	push	hl
                           3587 ; genCall
   0B52 CD 56 07           3588 	call	_setupCharacter
   0B55 E8 0C              3589 	lda	sp,12(sp)
                           3590 ;	main.c 153
                           3591 ; genIpush
   0B57 3E 01              3592 	ld	a,#0x01
   0B59 F5                 3593 	push	af
   0B5A 33                 3594 	inc	sp
                           3595 ; genIpush
   0B5B 3E 18              3596 	ld	a,#0x18
   0B5D F5                 3597 	push	af
   0B5E 33                 3598 	inc	sp
                           3599 ; genIpush
   0B5F 3E 19              3600 	ld	a,#0x19
   0B61 F5                 3601 	push	af
   0B62 33                 3602 	inc	sp
                           3603 ; genIpush
   0B63 3E 19              3604 	ld	a,#0x19
   0B65 F5                 3605 	push	af
   0B66 33                 3606 	inc	sp
                           3607 ; genIpush
   0B67 21 DD 21           3608 	ld	hl,#_bulletSprite + 0
   0B6A E5                 3609 	push	hl
                           3610 ; genIpush
   0B6B 21 01 00           3611 	ld	hl,#0x0001
   0B6E E5                 3612 	push	hl
                           3613 ; genIpush
   0B6F 21 01 00           3614 	ld	hl,#0x0001
   0B72 E5                 3615 	push	hl
                           3616 ; genIpush
   0B73 21 33 00           3617 	ld	hl,#_bullet + 0
   0B76 E5                 3618 	push	hl
                           3619 ; genCall
   0B77 CD 56 07           3620 	call	_setupCharacter
   0B7A E8 0C              3621 	lda	sp,12(sp)
                           3622 ;	main.c 155
                           3623 ; genAssign
                           3624 ; AOP_HL for _onigiriIndex
   0B7C 21 05 00           3625 	ld	hl,#_onigiriIndex + 0
   0B7F 36 00              3626 	ld	(hl),#0x00
                           3627 ; genLabel
   0B81                    3628 00106$:
                           3629 ; genCmpLt
                           3630 ; AOP_HL for _onigiriIndex
                           3631 ; AOP_HL for _numberOfOnigiris
   0B81 AF                 3632 	xor	a,a
   0B82 21 05 00           3633 	ld	hl,#_onigiriIndex + 0
   0B85 7E                 3634 	ld	a,(hl)
   0B86 21 04 00           3635 	ld	hl,#_numberOfOnigiris + 0
   0B89 9E                 3636 	sbc	a,(hl) ; 2
   0B8A D2 F0 0B           3637 	jp	nc,00109$
                           3638 ;	main.c 157
                           3639 ; genPlus
                           3640 ; AOP_HL for _onigiriIndex
                           3641 ; AOP_STK for _main_sloc1_1_0
                           3642 ; genPlusIncr
   0B8D 21 05 00           3643 	ld	hl,#_onigiriIndex + 0
   0B90 7E                 3644 	ld	a,(hl)
   0B91 C6 19              3645 	add	a,#0x19
   0B93 F8 04              3646 	lda	hl,4(sp)
   0B95 77                 3647 	ld	(hl),a ; 3
                           3648 ; genIpush
   0B96 3E 0F              3649 	ld	a,#0x0F
   0B98 F5                 3650 	push	af
   0B99 33                 3651 	inc	sp
                           3652 ; genIpush
                           3653 ; AOP_HL for _onigiriIndex
   0B9A 21 05 00           3654 	ld	hl,#_onigiriIndex + 0
   0B9D 7E                 3655 	ld	a,(hl)
   0B9E F5                 3656 	push	af
   0B9F 33                 3657 	inc	sp
                           3658 ; genCall
   0BA0 CD 00 00           3659 	call	__muluchar
   0BA3 43                 3660 	ld	b,e
   0BA4 E8 02              3661 	lda	sp,2(sp)
                           3662 ; genPlus
                           3663 ; AOP_STK for _main_sloc0_1_0
                           3664 ; genPlusIncr
   0BA6 78                 3665 	ld	a,b
   0BA7 C6 41              3666 	add	a,#0x41
   0BA9 F8 05              3667 	lda	hl,5(sp)
   0BAB 77                 3668 	ld	(hl),a ; 3
                           3669 ; genLeftShift
                           3670 ; AOP_HL for _onigiriIndex
   0BAC 21 05 00           3671 	ld	hl,#_onigiriIndex + 0
   0BAF 7E                 3672 	ld	a,(hl)
   0BB0 CB 17              3673 	rl	a
   0BB2 CB 17              3674 	rl	a
   0BB4 CB 17              3675 	rl	a
   0BB6 CB 17              3676 	rl	a
   0BB8 E6 F0              3677 	and	a,#0xF0
   0BBA 47                 3678 	ld	b,a
                           3679 ; genPlus
   0BBB 3E 43              3680 	ld	a,#<_onigiri
   0BBD 80                 3681 	add	a,b
   0BBE 47                 3682 	ld	b,a
   0BBF 3E 00              3683 	ld	a,#>_onigiri
   0BC1 CE 00              3684 	adc	a,#0x00
   0BC3 4F                 3685 	ld	c,a
                           3686 ; genIpush
   0BC4 3E 01              3687 	ld	a,#0x01
   0BC6 F5                 3688 	push	af
   0BC7 33                 3689 	inc	sp
                           3690 ; genIpush
                           3691 ; AOP_STK for _main_sloc1_1_0
   0BC8 F8 05              3692 	lda	hl,5(sp)
   0BCA 7E                 3693 	ld	a,(hl)
   0BCB F5                 3694 	push	af
   0BCC 33                 3695 	inc	sp
                           3696 ; genIpush
   0BCD 3E 69              3697 	ld	a,#0x69
   0BCF F5                 3698 	push	af
   0BD0 33                 3699 	inc	sp
                           3700 ; genIpush
                           3701 ; AOP_STK for _main_sloc0_1_0
   0BD1 23                 3702 	inc	hl
   0BD2 7E                 3703 	ld	a,(hl)
   0BD3 F5                 3704 	push	af
   0BD4 33                 3705 	inc	sp
                           3706 ; genIpush
   0BD5 21 ED 21           3707 	ld	hl,#_bulletSprite2 + 0
   0BD8 E5                 3708 	push	hl
                           3709 ; genIpush
   0BD9 21 01 00           3710 	ld	hl,#0x0001
   0BDC E5                 3711 	push	hl
                           3712 ; genIpush
   0BDD 21 01 00           3713 	ld	hl,#0x0001
   0BE0 E5                 3714 	push	hl
                           3715 ; genIpush
   0BE1 68                 3716 	ld	l,b
   0BE2 61                 3717 	ld	h,c
   0BE3 E5                 3718 	push	hl
                           3719 ; genCall
   0BE4 CD 56 07           3720 	call	_setupCharacter
   0BE7 E8 0C              3721 	lda	sp,12(sp)
                           3722 ;	main.c 155
                           3723 ; genPlus
                           3724 ; AOP_HL for _onigiriIndex
                           3725 ; genPlusIncr
   0BE9 21 05 00           3726 	ld	hl,#_onigiriIndex + 0
   0BEC 34                 3727 	inc	(hl)
                           3728 ; genGoto
   0BED C3 81 0B           3729 	jp	00106$
                           3730 ; genLabel
   0BF0                    3731 00109$:
                           3732 ;	main.c 162
                           3733 ; genIpush
   0BF0 3E 02              3734 	ld	a,#0x02
   0BF2 F5                 3735 	push	af
   0BF3 33                 3736 	inc	sp
                           3737 ; genIpush
   0BF4 3E 1C              3738 	ld	a,#0x1C
   0BF6 F5                 3739 	push	af
   0BF7 33                 3740 	inc	sp
                           3741 ; genIpush
   0BF8 3E 74              3742 	ld	a,#0x74
   0BFA F5                 3743 	push	af
   0BFB 33                 3744 	inc	sp
                           3745 ; genIpush
   0BFC 3E 23              3746 	ld	a,#0x23
   0BFE F5                 3747 	push	af
   0BFF 33                 3748 	inc	sp
                           3749 ; genIpush
   0C00 21 4D 3C           3750 	ld	hl,#_salaryGuyTiles + 0
   0C03 E5                 3751 	push	hl
                           3752 ; genIpush
   0C04 21 04 00           3753 	ld	hl,#0x0004
   0C07 E5                 3754 	push	hl
                           3755 ; genIpush
   0C08 21 03 00           3756 	ld	hl,#0x0003
   0C0B E5                 3757 	push	hl
                           3758 ; genIpush
   0C0C 21 93 00           3759 	ld	hl,#_salaryGuy + 0
   0C0F E5                 3760 	push	hl
                           3761 ; genCall
   0C10 CD 56 07           3762 	call	_setupCharacter
   0C13 E8 0C              3763 	lda	sp,12(sp)
                           3764 ;	main.c 178
                           3765 ; genIpush
   0C15 3E 88              3766 	ld	a,#0x88
   0C17 F5                 3767 	push	af
   0C18 33                 3768 	inc	sp
                           3769 ; genIpush
   0C19 3E 07              3770 	ld	a,#0x07
   0C1B F5                 3771 	push	af
   0C1C 33                 3772 	inc	sp
                           3773 ; genCall
   0C1D CD 00 00           3774 	call	_move_win
   0C20 E8 02              3775 	lda	sp,2(sp)
                           3776 ;	main.c 179
                           3777 ; genOr
                           3778 ; AOP_SFR for _LCDC_REG
                           3779 ; Type res[4] = l[4]&r[1]
                           3780 ; Size res[1] = l[1]&r[1]
   0C22 F0 00              3781 	ldh	a,(_LCDC_REG+0) ; x
   0C24 F6 20              3782 	or	a,#0x20
   0C26 E0 00              3783 	ldh	(_LCDC_REG+0),a
                           3784 ;	main.c 180
                           3785 ; genOr
                           3786 ; AOP_SFR for _LCDC_REG
                           3787 ; Type res[4] = l[4]&r[1]
                           3788 ; Size res[1] = l[1]&r[1]
   0C28 F0 00              3789 	ldh	a,(_LCDC_REG+0) ; x
   0C2A F6 80              3790 	or	a,#0x80
   0C2C E0 00              3791 	ldh	(_LCDC_REG+0),a
                           3792 ;	main.c 182
                           3793 ; genOr
                           3794 ; AOP_SFR for _LCDC_REG
                           3795 ; Type res[4] = l[4]&r[1]
                           3796 ; Size res[1] = l[1]&r[1]
   0C2E F0 00              3797 	ldh	a,(_LCDC_REG+0) ; x
   0C30 F6 02              3798 	or	a,#0x02
   0C32 E0 00              3799 	ldh	(_LCDC_REG+0),a
                           3800 ;	main.c 185
                           3801 ; genAssign
                           3802 ; AOP_SFR for _NR52_REG
   0C34 3E 80              3803 	ld	a,#0x80
   0C36 E0 00              3804 	ldh	(_NR52_REG+0),a
                           3805 ;	main.c 186
                           3806 ; genAssign
                           3807 ; AOP_SFR for _NR51_REG
   0C38 3E FF              3808 	ld	a,#0xFF
   0C3A E0 00              3809 	ldh	(_NR51_REG+0),a
                           3810 ;	main.c 187
                           3811 ; genAssign
                           3812 ; AOP_SFR for _NR50_REG
   0C3C 3E 77              3813 	ld	a,#0x77
   0C3E E0 00              3814 	ldh	(_NR50_REG+0),a
                           3815 ;	main.c 191
                           3816 ; genLabel
   0C40                    3817 00104$:
                           3818 ;	main.c 194
                           3819 ; genCall
   0C40 CD A5 09           3820 	call	_playSong
                           3821 ;	main.c 195
                           3822 ; genIpush
   0C43 21 93 00           3823 	ld	hl,#_salaryGuy + 0
   0C46 E5                 3824 	push	hl
                           3825 ; genCall
   0C47 CD 7F 05           3826 	call	_Input
   0C4A E8 02              3827 	lda	sp,2(sp)
                           3828 ;	main.c 196
                           3829 ; genAssign
                           3830 ; AOP_HL for _onigiriIndex
   0C4C 21 05 00           3831 	ld	hl,#_onigiriIndex + 0
   0C4F 36 00              3832 	ld	(hl),#0x00
                           3833 ; genLabel
   0C51                    3834 00110$:
                           3835 ; genCmpLt
                           3836 ; AOP_HL for _onigiriIndex
                           3837 ; AOP_HL for _numberOfOnigiris
                           3838 ; AOP_STK for _main_sloc1_1_0
   0C51 AF                 3839 	xor	a,a
   0C52 21 05 00           3840 	ld	hl,#_onigiriIndex + 0
   0C55 7E                 3841 	ld	a,(hl)
   0C56 21 04 00           3842 	ld	hl,#_numberOfOnigiris + 0
   0C59 9E                 3843 	sbc	a,(hl) ; 2
   0C5A 3E 00              3844 	ld	a,#0x00
   0C5C 17                 3845 	rla
   0C5D F8 04              3846 	lda	hl,4(sp)
   0C5F 77                 3847 	ld	(hl),a ; 3
                           3848 ; genIfx
                           3849 ; AOP_STK for _main_sloc1_1_0
                           3850 ; Removed redundent or a,a
   0C60 AF                 3851 	xor	a,a
   0C61 B6                 3852 	or	a,(hl)
   0C62 CA C6 0C           3853 	jp	z,00113$
                           3854 ;	main.c 198
                           3855 ; genLeftShift
                           3856 ; AOP_HL for _onigiriIndex
                           3857 ; AOP_STK for _main_sloc0_1_0
   0C65 21 05 00           3858 	ld	hl,#_onigiriIndex + 0
   0C68 7E                 3859 	ld	a,(hl)
   0C69 CB 17              3860 	rl	a
   0C6B CB 17              3861 	rl	a
   0C6D CB 17              3862 	rl	a
   0C6F CB 17              3863 	rl	a
   0C71 E6 F0              3864 	and	a,#0xF0
   0C73 F8 05              3865 	lda	hl,5(sp)
   0C75 77                 3866 	ld	(hl),a ; 3
                           3867 ; genPlus
                           3868 ; AOP_STK for _main_sloc0_1_0
                           3869 ; AOP_STK for _main_sloc2_1_0
   0C76 3E 43              3870 	ld	a,#<_onigiri
   0C78 86                 3871 	add	a,(hl)
   0C79 F8 02              3872 	lda	hl,2(sp)
   0C7B 77                 3873 	ld	(hl),a ; 3
   0C7C 3E 00              3874 	ld	a,#>_onigiri
   0C7E CE 00              3875 	adc	a,#0x00
   0C80 23                 3876 	inc	hl
   0C81 77                 3877 	ld	(hl),a ; 3
                           3878 ; genIpush
   0C82 21 93 00           3879 	ld	hl,#_salaryGuy + 0
   0C85 E5                 3880 	push	hl
                           3881 ; genIpush
                           3882 ; AOP_STK for _main_sloc2_1_0
   0C86 F8 04              3883 	lda	hl,4(sp)
   0C88 2A                 3884 	ld	a,(hl+)
   0C89 66                 3885 	ld	h,(hl)
   0C8A 6F                 3886 	ld	l,a
   0C8B E5                 3887 	push	hl
                           3888 ; genCall
   0C8C CD 69 01           3889 	call	_checkcollision
                           3890 ; AOP_STK for _main_sloc4_1_0
   0C8F F8 04              3891 	lda	hl,4(sp)
   0C91 73                 3892 	ld	(hl),e ; 3
   0C92 E8 04              3893 	lda	sp,4(sp)
                           3894 ; genCmpEq
                           3895 ; AOP_STK for _main_sloc4_1_0
                           3896 ; AOP_STK for _main_sloc3_1_0
   0C94 7E                 3897 	ld	a,(hl) ; 2
   0C95 FE 01              3898 	cp	a,#0x01
   0C97 C2 9E 0C           3899 	jp	nz,00122$
   0C9A 3E 01              3900 	ld	a,#0x01
   0C9C 18 01              3901 	jr	00123$
   0C9E                    3902 00122$:
   0C9E AF                 3903 	xor	a,a
   0C9F                    3904 00123$:
   0C9F F8 01              3905 	lda	hl,1(sp)
   0CA1 77                 3906 	ld	(hl),a ; 3
                           3907 ; genIfx
                           3908 ; AOP_STK for _main_sloc3_1_0
                           3909 ; Removed redundent or a,a
   0CA2 AF                 3910 	xor	a,a
   0CA3 B6                 3911 	or	a,(hl)
   0CA4 CA BA 0C           3912 	jp	z,00112$
                           3913 ;	main.c 200
                           3914 ; genIpush
   0CA7 21 B4 00           3915 	ld	hl,#0x00B4
   0CAA E5                 3916 	push	hl
                           3917 ; genIpush
   0CAB 3E C8              3918 	ld	a,#0xC8
   0CAD F5                 3919 	push	af
   0CAE 33                 3920 	inc	sp
                           3921 ; genIpush
                           3922 ; AOP_STK for _main_sloc2_1_0
   0CAF F8 05              3923 	lda	hl,5(sp)
   0CB1 2A                 3924 	ld	a,(hl+)
   0CB2 66                 3925 	ld	h,(hl)
   0CB3 6F                 3926 	ld	l,a
   0CB4 E5                 3927 	push	hl
                           3928 ; genCall
   0CB5 CD 37 00           3929 	call	_MoveChar
   0CB8 E8 05              3930 	lda	sp,5(sp)
                           3931 ; genLabel
   0CBA                    3932 00112$:
                           3933 ;	main.c 196
                           3934 ; genPlus
                           3935 ; AOP_HL for _onigiriIndex
                           3936 ; genPlusIncr
   0CBA 21 05 00           3937 	ld	hl,#_onigiriIndex + 0
   0CBD 7E                 3938 	ld	a,(hl)
   0CBE C6 01              3939 	add	a,#0x01
   0CC0 47                 3940 	ld	b,a
                           3941 ; genAssign
   0CC1 48                 3942 	ld	c,b
                           3943 ; genAssign
                           3944 ; AOP_HL for _onigiriIndex
   0CC2 71                 3945 	ld	(hl),c
                           3946 ; genGoto
   0CC3 C3 51 0C           3947 	jp	00110$
                           3948 ; genLabel
   0CC6                    3949 00113$:
                           3950 ;	main.c 203
                           3951 ; genIpush
   0CC6 21 32 00           3952 	ld	hl,#0x0032
   0CC9 E5                 3953 	push	hl
                           3954 ; genCall
   0CCA CD 00 00           3955 	call	_delay
   0CCD E8 02              3956 	lda	sp,2(sp)
                           3957 ; genGoto
   0CCF C3 40 0C           3958 	jp	00104$
                           3959 ; genLabel
   0CD2                    3960 00114$:
                           3961 ; genEndFunction
   0CD2 E8 06              3962 	lda	sp,6(sp)
   0CD4 C1                 3963 	pop bc
   0CD5 C9                 3964 	ret
   0CD6                    3965 ___main_end:
                           3966 	.area _CODE
   0CD6                    3967 _collisionData:
   0CD6 00                 3968 	.db #0x00
   0CD7 00                 3969 	.db #0x00
   0CD8 00                 3970 	.db #0x00
   0CD9 00                 3971 	.db #0x00
   0CDA 00                 3972 	.db #0x00
   0CDB 00                 3973 	.db #0x00
   0CDC 00                 3974 	.db #0x00
   0CDD 00                 3975 	.db #0x00
   0CDE 00                 3976 	.db #0x00
   0CDF 00                 3977 	.db #0x00
   0CE0 00                 3978 	.db #0x00
   0CE1 00                 3979 	.db #0x00
   0CE2 00                 3980 	.db #0x00
   0CE3 00                 3981 	.db #0x00
   0CE4 00                 3982 	.db #0x00
   0CE5 00                 3983 	.db #0x00
   0CE6 00                 3984 	.db #0x00
   0CE7 00                 3985 	.db #0x00
   0CE8 00                 3986 	.db #0x00
   0CE9 00                 3987 	.db #0x00
   0CEA 00                 3988 	.db #0x00
   0CEB 00                 3989 	.db #0x00
   0CEC 00                 3990 	.db #0x00
   0CED 00                 3991 	.db #0x00
   0CEE 00                 3992 	.db #0x00
   0CEF 00                 3993 	.db #0x00
   0CF0 00                 3994 	.db #0x00
   0CF1 00                 3995 	.db #0x00
   0CF2 00                 3996 	.db #0x00
   0CF3 00                 3997 	.db #0x00
   0CF4 00                 3998 	.db #0x00
   0CF5 00                 3999 	.db #0x00
   0CF6 00                 4000 	.db #0x00
   0CF7 00                 4001 	.db #0x00
   0CF8 01                 4002 	.db #0x01
   0CF9                    4003 _TileLabelo:
   0CF9 00                 4004 	.db #0x00
   0CFA FF                 4005 	.db #0xFF
   0CFB 66                 4006 	.db #0x66
   0CFC FF                 4007 	.db #0xFF
   0CFD 66                 4008 	.db #0x66
   0CFE FF                 4009 	.db #0xFF
   0CFF 00                 4010 	.db #0x00
   0D00 FF                 4011 	.db #0xFF
   0D01 18                 4012 	.db #0x18
   0D02 FF                 4013 	.db #0xFF
   0D03 18                 4014 	.db #0x18
   0D04 FF                 4015 	.db #0xFF
   0D05 C3                 4016 	.db #0xC3
   0D06 FF                 4017 	.db #0xFF
   0D07 7E                 4018 	.db #0x7E
   0D08 FF                 4019 	.db #0xFF
   0D09 00                 4020 	.db #0x00
   0D0A FF                 4021 	.db #0xFF
   0D0B 60                 4022 	.db #0x60
   0D0C FF                 4023 	.db #0xFF
   0D0D 66                 4024 	.db #0x66
   0D0E FF                 4025 	.db #0xFF
   0D0F 00                 4026 	.db #0x00
   0D10 FF                 4027 	.db #0xFF
   0D11 18                 4028 	.db #0x18
   0D12 FF                 4029 	.db #0xFF
   0D13 18                 4030 	.db #0x18
   0D14 FF                 4031 	.db #0xFF
   0D15 C3                 4032 	.db #0xC3
   0D16 FF                 4033 	.db #0xFF
   0D17 7E                 4034 	.db #0x7E
   0D18 FF                 4035 	.db #0xFF
   0D19 00                 4036 	.db #0x00
   0D1A FF                 4037 	.db #0xFF
   0D1B 60                 4038 	.db #0x60
   0D1C FF                 4039 	.db #0xFF
   0D1D 60                 4040 	.db #0x60
   0D1E FF                 4041 	.db #0xFF
   0D1F 00                 4042 	.db #0x00
   0D20 FF                 4043 	.db #0xFF
   0D21 18                 4044 	.db #0x18
   0D22 FF                 4045 	.db #0xFF
   0D23 18                 4046 	.db #0x18
   0D24 FF                 4047 	.db #0xFF
   0D25 C3                 4048 	.db #0xC3
   0D26 FF                 4049 	.db #0xFF
   0D27 7E                 4050 	.db #0x7E
   0D28 FF                 4051 	.db #0xFF
   0D29 00                 4052 	.db #0x00
   0D2A 00                 4053 	.db #0x00
   0D2B 00                 4054 	.db #0x00
   0D2C 00                 4055 	.db #0x00
   0D2D 00                 4056 	.db #0x00
   0D2E 00                 4057 	.db #0x00
   0D2F 00                 4058 	.db #0x00
   0D30 00                 4059 	.db #0x00
   0D31 00                 4060 	.db #0x00
   0D32 00                 4061 	.db #0x00
   0D33 00                 4062 	.db #0x00
   0D34 00                 4063 	.db #0x00
   0D35 00                 4064 	.db #0x00
   0D36 00                 4065 	.db #0x00
   0D37 00                 4066 	.db #0x00
   0D38 80                 4067 	.db #0x80
   0D39 00                 4068 	.db #0x00
   0D3A 00                 4069 	.db #0x00
   0D3B 00                 4070 	.db #0x00
   0D3C 00                 4071 	.db #0x00
   0D3D 00                 4072 	.db #0x00
   0D3E 00                 4073 	.db #0x00
   0D3F 00                 4074 	.db #0x00
   0D40 00                 4075 	.db #0x00
   0D41 00                 4076 	.db #0x00
   0D42 00                 4077 	.db #0x00
   0D43 00                 4078 	.db #0x00
   0D44 00                 4079 	.db #0x00
   0D45 00                 4080 	.db #0x00
   0D46 00                 4081 	.db #0x00
   0D47 00                 4082 	.db #0x00
   0D48 00                 4083 	.db #0x00
   0D49 00                 4084 	.db #0x00
   0D4A 00                 4085 	.db #0x00
   0D4B 00                 4086 	.db #0x00
   0D4C 00                 4087 	.db #0x00
   0D4D 00                 4088 	.db #0x00
   0D4E 00                 4089 	.db #0x00
   0D4F 00                 4090 	.db #0x00
   0D50 00                 4091 	.db #0x00
   0D51 00                 4092 	.db #0x00
   0D52 00                 4093 	.db #0x00
   0D53 00                 4094 	.db #0x00
   0D54 00                 4095 	.db #0x00
   0D55 00                 4096 	.db #0x00
   0D56 00                 4097 	.db #0x00
   0D57 00                 4098 	.db #0x00
   0D58 00                 4099 	.db #0x00
   0D59 00                 4100 	.db #0x00
   0D5A 00                 4101 	.db #0x00
   0D5B 00                 4102 	.db #0x00
   0D5C 00                 4103 	.db #0x00
   0D5D 00                 4104 	.db #0x00
   0D5E 00                 4105 	.db #0x00
   0D5F 00                 4106 	.db #0x00
   0D60 00                 4107 	.db #0x00
   0D61 00                 4108 	.db #0x00
   0D62 00                 4109 	.db #0x00
   0D63 00                 4110 	.db #0x00
   0D64 00                 4111 	.db #0x00
   0D65 00                 4112 	.db #0x00
   0D66 00                 4113 	.db #0x00
   0D67 00                 4114 	.db #0x00
   0D68 00                 4115 	.db #0x00
   0D69 00                 4116 	.db #0x00
   0D6A 00                 4117 	.db #0x00
   0D6B 00                 4118 	.db #0x00
   0D6C 00                 4119 	.db #0x00
   0D6D 00                 4120 	.db #0x00
   0D6E 00                 4121 	.db #0x00
   0D6F 00                 4122 	.db #0x00
   0D70 00                 4123 	.db #0x00
   0D71 00                 4124 	.db #0x00
   0D72 00                 4125 	.db #0x00
   0D73 00                 4126 	.db #0x00
   0D74 00                 4127 	.db #0x00
   0D75 00                 4128 	.db #0x00
   0D76 00                 4129 	.db #0x00
   0D77 00                 4130 	.db #0x00
   0D78 00                 4131 	.db #0x00
   0D79 00                 4132 	.db #0x00
   0D7A 00                 4133 	.db #0x00
   0D7B 00                 4134 	.db #0x00
   0D7C 00                 4135 	.db #0x00
   0D7D 00                 4136 	.db #0x00
   0D7E 00                 4137 	.db #0x00
   0D7F 00                 4138 	.db #0x00
   0D80 00                 4139 	.db #0x00
   0D81 00                 4140 	.db #0x00
   0D82 00                 4141 	.db #0x00
   0D83 00                 4142 	.db #0x00
   0D84 00                 4143 	.db #0x00
   0D85 00                 4144 	.db #0x00
   0D86 00                 4145 	.db #0x00
   0D87 00                 4146 	.db #0x00
   0D88 00                 4147 	.db #0x00
   0D89 00                 4148 	.db #0x00
   0D8A 00                 4149 	.db #0x00
   0D8B 00                 4150 	.db #0x00
   0D8C 00                 4151 	.db #0x00
   0D8D 00                 4152 	.db #0x00
   0D8E 00                 4153 	.db #0x00
   0D8F 00                 4154 	.db #0x00
   0D90 00                 4155 	.db #0x00
   0D91 00                 4156 	.db #0x00
   0D92 00                 4157 	.db #0x00
   0D93 00                 4158 	.db #0x00
   0D94 00                 4159 	.db #0x00
   0D95 00                 4160 	.db #0x00
   0D96 00                 4161 	.db #0x00
   0D97 00                 4162 	.db #0x00
   0D98 00                 4163 	.db #0x00
   0D99 00                 4164 	.db #0x00
   0D9A 00                 4165 	.db #0x00
   0D9B 00                 4166 	.db #0x00
   0D9C 00                 4167 	.db #0x00
   0D9D 00                 4168 	.db #0x00
   0D9E 00                 4169 	.db #0x00
   0D9F 00                 4170 	.db #0x00
   0DA0 00                 4171 	.db #0x00
   0DA1 00                 4172 	.db #0x00
   0DA2 00                 4173 	.db #0x00
   0DA3 00                 4174 	.db #0x00
   0DA4 00                 4175 	.db #0x00
   0DA5 00                 4176 	.db #0x00
   0DA6 00                 4177 	.db #0x00
   0DA7 00                 4178 	.db #0x00
   0DA8 00                 4179 	.db #0x00
   0DA9 00                 4180 	.db #0x00
   0DAA 00                 4181 	.db #0x00
   0DAB 00                 4182 	.db #0x00
   0DAC 00                 4183 	.db #0x00
   0DAD 00                 4184 	.db #0x00
   0DAE 00                 4185 	.db #0x00
   0DAF 00                 4186 	.db #0x00
   0DB0 00                 4187 	.db #0x00
   0DB1 00                 4188 	.db #0x00
   0DB2 00                 4189 	.db #0x00
   0DB3 00                 4190 	.db #0x00
   0DB4 00                 4191 	.db #0x00
   0DB5 00                 4192 	.db #0x00
   0DB6 00                 4193 	.db #0x00
   0DB7 00                 4194 	.db #0x00
   0DB8 00                 4195 	.db #0x00
   0DB9 00                 4196 	.db #0x00
   0DBA 00                 4197 	.db #0x00
   0DBB 00                 4198 	.db #0x00
   0DBC 00                 4199 	.db #0x00
   0DBD 00                 4200 	.db #0x00
   0DBE 00                 4201 	.db #0x00
   0DBF 00                 4202 	.db #0x00
   0DC0 00                 4203 	.db #0x00
   0DC1 00                 4204 	.db #0x00
   0DC2 00                 4205 	.db #0x00
   0DC3 00                 4206 	.db #0x00
   0DC4 00                 4207 	.db #0x00
   0DC5 00                 4208 	.db #0x00
   0DC6 00                 4209 	.db #0x00
   0DC7 00                 4210 	.db #0x00
   0DC8 00                 4211 	.db #0x00
   0DC9 00                 4212 	.db #0x00
   0DCA 00                 4213 	.db #0x00
   0DCB 00                 4214 	.db #0x00
   0DCC 00                 4215 	.db #0x00
   0DCD 00                 4216 	.db #0x00
   0DCE 00                 4217 	.db #0x00
   0DCF 00                 4218 	.db #0x00
   0DD0 00                 4219 	.db #0x00
   0DD1 00                 4220 	.db #0x00
   0DD2 00                 4221 	.db #0x00
   0DD3 00                 4222 	.db #0x00
   0DD4 00                 4223 	.db #0x00
   0DD5 00                 4224 	.db #0x00
   0DD6 00                 4225 	.db #0x00
   0DD7 00                 4226 	.db #0x00
   0DD8 00                 4227 	.db #0x00
   0DD9 00                 4228 	.db #0x00
   0DDA 00                 4229 	.db #0x00
   0DDB 00                 4230 	.db #0x00
   0DDC 00                 4231 	.db #0x00
   0DDD 00                 4232 	.db #0x00
   0DDE 00                 4233 	.db #0x00
   0DDF 00                 4234 	.db #0x00
   0DE0 00                 4235 	.db #0x00
   0DE1 00                 4236 	.db #0x00
   0DE2 00                 4237 	.db #0x00
   0DE3 00                 4238 	.db #0x00
   0DE4 00                 4239 	.db #0x00
   0DE5 00                 4240 	.db #0x00
   0DE6 00                 4241 	.db #0x00
   0DE7 00                 4242 	.db #0x00
   0DE8 00                 4243 	.db #0x00
   0DE9 00                 4244 	.db #0x00
   0DEA 00                 4245 	.db #0x00
   0DEB 00                 4246 	.db #0x00
   0DEC 00                 4247 	.db #0x00
   0DED 00                 4248 	.db #0x00
   0DEE 00                 4249 	.db #0x00
   0DEF 00                 4250 	.db #0x00
   0DF0 00                 4251 	.db #0x00
   0DF1 00                 4252 	.db #0x00
   0DF2 00                 4253 	.db #0x00
   0DF3 00                 4254 	.db #0x00
   0DF4 00                 4255 	.db #0x00
   0DF5 00                 4256 	.db #0x00
   0DF6 00                 4257 	.db #0x00
   0DF7 00                 4258 	.db #0x00
   0DF8 00                 4259 	.db #0x00
   0DF9 00                 4260 	.db #0x00
   0DFA 00                 4261 	.db #0x00
   0DFB 00                 4262 	.db #0x00
   0DFC 00                 4263 	.db #0x00
   0DFD 00                 4264 	.db #0x00
   0DFE 00                 4265 	.db #0x00
   0DFF 00                 4266 	.db #0x00
   0E00 00                 4267 	.db #0x00
   0E01 00                 4268 	.db #0x00
   0E02 00                 4269 	.db #0x00
   0E03 00                 4270 	.db #0x00
   0E04 00                 4271 	.db #0x00
   0E05 00                 4272 	.db #0x00
   0E06 00                 4273 	.db #0x00
   0E07 00                 4274 	.db #0x00
   0E08 00                 4275 	.db #0x00
   0E09 00                 4276 	.db #0x00
   0E0A 00                 4277 	.db #0x00
   0E0B 00                 4278 	.db #0x00
   0E0C 00                 4279 	.db #0x00
   0E0D 00                 4280 	.db #0x00
   0E0E 00                 4281 	.db #0x00
   0E0F 00                 4282 	.db #0x00
   0E10 00                 4283 	.db #0x00
   0E11 00                 4284 	.db #0x00
   0E12 00                 4285 	.db #0x00
   0E13 00                 4286 	.db #0x00
   0E14 00                 4287 	.db #0x00
   0E15 00                 4288 	.db #0x00
   0E16 00                 4289 	.db #0x00
   0E17 00                 4290 	.db #0x00
   0E18 00                 4291 	.db #0x00
   0E19 00                 4292 	.db #0x00
   0E1A 00                 4293 	.db #0x00
   0E1B 00                 4294 	.db #0x00
   0E1C 00                 4295 	.db #0x00
   0E1D 00                 4296 	.db #0x00
   0E1E 00                 4297 	.db #0x00
   0E1F 00                 4298 	.db #0x00
   0E20 00                 4299 	.db #0x00
   0E21 00                 4300 	.db #0x00
   0E22 00                 4301 	.db #0x00
   0E23 00                 4302 	.db #0x00
   0E24 00                 4303 	.db #0x00
   0E25 00                 4304 	.db #0x00
   0E26 00                 4305 	.db #0x00
   0E27 00                 4306 	.db #0x00
   0E28 00                 4307 	.db #0x00
   0E29 00                 4308 	.db #0x00
   0E2A 00                 4309 	.db #0x00
   0E2B 00                 4310 	.db #0x00
   0E2C 00                 4311 	.db #0x00
   0E2D 00                 4312 	.db #0x00
   0E2E 00                 4313 	.db #0x00
   0E2F 00                 4314 	.db #0x00
   0E30 00                 4315 	.db #0x00
   0E31 00                 4316 	.db #0x00
   0E32 00                 4317 	.db #0x00
   0E33 00                 4318 	.db #0x00
   0E34 00                 4319 	.db #0x00
   0E35 00                 4320 	.db #0x00
   0E36 00                 4321 	.db #0x00
   0E37 00                 4322 	.db #0x00
   0E38 00                 4323 	.db #0x00
   0E39 00                 4324 	.db #0x00
   0E3A 00                 4325 	.db #0x00
   0E3B 00                 4326 	.db #0x00
   0E3C 00                 4327 	.db #0x00
   0E3D 00                 4328 	.db #0x00
   0E3E 00                 4329 	.db #0x00
   0E3F 00                 4330 	.db #0x00
   0E40 00                 4331 	.db #0x00
   0E41 00                 4332 	.db #0x00
   0E42 00                 4333 	.db #0x00
   0E43 00                 4334 	.db #0x00
   0E44 00                 4335 	.db #0x00
   0E45 00                 4336 	.db #0x00
   0E46 00                 4337 	.db #0x00
   0E47 00                 4338 	.db #0x00
   0E48 00                 4339 	.db #0x00
   0E49 00                 4340 	.db #0x00
   0E4A 00                 4341 	.db #0x00
   0E4B 00                 4342 	.db #0x00
   0E4C 00                 4343 	.db #0x00
   0E4D 00                 4344 	.db #0x00
   0E4E 00                 4345 	.db #0x00
   0E4F 00                 4346 	.db #0x00
   0E50 00                 4347 	.db #0x00
   0E51 00                 4348 	.db #0x00
   0E52 00                 4349 	.db #0x00
   0E53 00                 4350 	.db #0x00
   0E54 00                 4351 	.db #0x00
   0E55 00                 4352 	.db #0x00
   0E56 00                 4353 	.db #0x00
   0E57 00                 4354 	.db #0x00
   0E58 00                 4355 	.db #0x00
   0E59 00                 4356 	.db #0x00
   0E5A 00                 4357 	.db #0x00
   0E5B 00                 4358 	.db #0x00
   0E5C 00                 4359 	.db #0x00
   0E5D 00                 4360 	.db #0x00
   0E5E 00                 4361 	.db #0x00
   0E5F 00                 4362 	.db #0x00
   0E60 00                 4363 	.db #0x00
   0E61 00                 4364 	.db #0x00
   0E62 00                 4365 	.db #0x00
   0E63 00                 4366 	.db #0x00
   0E64 00                 4367 	.db #0x00
   0E65 00                 4368 	.db #0x00
   0E66 00                 4369 	.db #0x00
   0E67 00                 4370 	.db #0x00
   0E68 00                 4371 	.db #0x00
   0E69 00                 4372 	.db #0x00
   0E6A 00                 4373 	.db #0x00
   0E6B 00                 4374 	.db #0x00
   0E6C 00                 4375 	.db #0x00
   0E6D 00                 4376 	.db #0x00
   0E6E 00                 4377 	.db #0x00
   0E6F 00                 4378 	.db #0x00
   0E70 00                 4379 	.db #0x00
   0E71 00                 4380 	.db #0x00
   0E72 00                 4381 	.db #0x00
   0E73 00                 4382 	.db #0x00
   0E74 00                 4383 	.db #0x00
   0E75 00                 4384 	.db #0x00
   0E76 00                 4385 	.db #0x00
   0E77 00                 4386 	.db #0x00
   0E78 00                 4387 	.db #0x00
   0E79 00                 4388 	.db #0x00
   0E7A 00                 4389 	.db #0x00
   0E7B 00                 4390 	.db #0x00
   0E7C 00                 4391 	.db #0x00
   0E7D 00                 4392 	.db #0x00
   0E7E 00                 4393 	.db #0x00
   0E7F 00                 4394 	.db #0x00
   0E80 00                 4395 	.db #0x00
   0E81 00                 4396 	.db #0x00
   0E82 00                 4397 	.db #0x00
   0E83 00                 4398 	.db #0x00
   0E84 00                 4399 	.db #0x00
   0E85 00                 4400 	.db #0x00
   0E86 00                 4401 	.db #0x00
   0E87 00                 4402 	.db #0x00
   0E88 00                 4403 	.db #0x00
   0E89 00                 4404 	.db #0x00
   0E8A 00                 4405 	.db #0x00
   0E8B 00                 4406 	.db #0x00
   0E8C 00                 4407 	.db #0x00
   0E8D 00                 4408 	.db #0x00
   0E8E 00                 4409 	.db #0x00
   0E8F 00                 4410 	.db #0x00
   0E90 00                 4411 	.db #0x00
   0E91 00                 4412 	.db #0x00
   0E92 00                 4413 	.db #0x00
   0E93 00                 4414 	.db #0x00
   0E94 00                 4415 	.db #0x00
   0E95 00                 4416 	.db #0x00
   0E96 00                 4417 	.db #0x00
   0E97 00                 4418 	.db #0x00
   0E98 00                 4419 	.db #0x00
   0E99 00                 4420 	.db #0x00
   0E9A 00                 4421 	.db #0x00
   0E9B 00                 4422 	.db #0x00
   0E9C 00                 4423 	.db #0x00
   0E9D 00                 4424 	.db #0x00
   0E9E 00                 4425 	.db #0x00
   0E9F 00                 4426 	.db #0x00
   0EA0 00                 4427 	.db #0x00
   0EA1 00                 4428 	.db #0x00
   0EA2 00                 4429 	.db #0x00
   0EA3 00                 4430 	.db #0x00
   0EA4 00                 4431 	.db #0x00
   0EA5 00                 4432 	.db #0x00
   0EA6 00                 4433 	.db #0x00
   0EA7 00                 4434 	.db #0x00
   0EA8 00                 4435 	.db #0x00
   0EA9 00                 4436 	.db #0x00
   0EAA 00                 4437 	.db #0x00
   0EAB 00                 4438 	.db #0x00
   0EAC 00                 4439 	.db #0x00
   0EAD 00                 4440 	.db #0x00
   0EAE 00                 4441 	.db #0x00
   0EAF 00                 4442 	.db #0x00
   0EB0 00                 4443 	.db #0x00
   0EB1 00                 4444 	.db #0x00
   0EB2 00                 4445 	.db #0x00
   0EB3 00                 4446 	.db #0x00
   0EB4 00                 4447 	.db #0x00
   0EB5 00                 4448 	.db #0x00
   0EB6 00                 4449 	.db #0x00
   0EB7 00                 4450 	.db #0x00
   0EB8 00                 4451 	.db #0x00
   0EB9 00                 4452 	.db #0x00
   0EBA 00                 4453 	.db #0x00
   0EBB 00                 4454 	.db #0x00
   0EBC 00                 4455 	.db #0x00
   0EBD 00                 4456 	.db #0x00
   0EBE 00                 4457 	.db #0x00
   0EBF 00                 4458 	.db #0x00
   0EC0 00                 4459 	.db #0x00
   0EC1 00                 4460 	.db #0x00
   0EC2 00                 4461 	.db #0x00
   0EC3 00                 4462 	.db #0x00
   0EC4 00                 4463 	.db #0x00
   0EC5 00                 4464 	.db #0x00
   0EC6 00                 4465 	.db #0x00
   0EC7 00                 4466 	.db #0x00
   0EC8 00                 4467 	.db #0x00
   0EC9 00                 4468 	.db #0x00
   0ECA 00                 4469 	.db #0x00
   0ECB 00                 4470 	.db #0x00
   0ECC 00                 4471 	.db #0x00
   0ECD 00                 4472 	.db #0x00
   0ECE 00                 4473 	.db #0x00
   0ECF 00                 4474 	.db #0x00
   0ED0 00                 4475 	.db #0x00
   0ED1 00                 4476 	.db #0x00
   0ED2 00                 4477 	.db #0x00
   0ED3 00                 4478 	.db #0x00
   0ED4 00                 4479 	.db #0x00
   0ED5 00                 4480 	.db #0x00
   0ED6 00                 4481 	.db #0x00
   0ED7 00                 4482 	.db #0x00
   0ED8 00                 4483 	.db #0x00
   0ED9 00                 4484 	.db #0x00
   0EDA 00                 4485 	.db #0x00
   0EDB 00                 4486 	.db #0x00
   0EDC 00                 4487 	.db #0x00
   0EDD 00                 4488 	.db #0x00
   0EDE 00                 4489 	.db #0x00
   0EDF 00                 4490 	.db #0x00
   0EE0 00                 4491 	.db #0x00
   0EE1 00                 4492 	.db #0x00
   0EE2 00                 4493 	.db #0x00
   0EE3 00                 4494 	.db #0x00
   0EE4 00                 4495 	.db #0x00
   0EE5 00                 4496 	.db #0x00
   0EE6 00                 4497 	.db #0x00
   0EE7 00                 4498 	.db #0x00
   0EE8 00                 4499 	.db #0x00
   0EE9 00                 4500 	.db #0x00
   0EEA 00                 4501 	.db #0x00
   0EEB 00                 4502 	.db #0x00
   0EEC 00                 4503 	.db #0x00
   0EED 00                 4504 	.db #0x00
   0EEE 00                 4505 	.db #0x00
   0EEF 00                 4506 	.db #0x00
   0EF0 00                 4507 	.db #0x00
   0EF1 00                 4508 	.db #0x00
   0EF2 00                 4509 	.db #0x00
   0EF3 00                 4510 	.db #0x00
   0EF4 00                 4511 	.db #0x00
   0EF5 00                 4512 	.db #0x00
   0EF6 00                 4513 	.db #0x00
   0EF7 00                 4514 	.db #0x00
   0EF8 00                 4515 	.db #0x00
   0EF9 00                 4516 	.db #0x00
   0EFA 00                 4517 	.db #0x00
   0EFB 00                 4518 	.db #0x00
   0EFC 00                 4519 	.db #0x00
   0EFD 00                 4520 	.db #0x00
   0EFE 00                 4521 	.db #0x00
   0EFF 00                 4522 	.db #0x00
   0F00 00                 4523 	.db #0x00
   0F01 00                 4524 	.db #0x00
   0F02 00                 4525 	.db #0x00
   0F03 00                 4526 	.db #0x00
   0F04 00                 4527 	.db #0x00
   0F05 00                 4528 	.db #0x00
   0F06 00                 4529 	.db #0x00
   0F07 00                 4530 	.db #0x00
   0F08 00                 4531 	.db #0x00
   0F09 00                 4532 	.db #0x00
   0F0A 00                 4533 	.db #0x00
   0F0B 00                 4534 	.db #0x00
   0F0C 00                 4535 	.db #0x00
   0F0D 00                 4536 	.db #0x00
   0F0E 00                 4537 	.db #0x00
   0F0F 00                 4538 	.db #0x00
   0F10 00                 4539 	.db #0x00
   0F11 00                 4540 	.db #0x00
   0F12 00                 4541 	.db #0x00
   0F13 00                 4542 	.db #0x00
   0F14 00                 4543 	.db #0x00
   0F15 00                 4544 	.db #0x00
   0F16 00                 4545 	.db #0x00
   0F17 00                 4546 	.db #0x00
   0F18 00                 4547 	.db #0x00
   0F19 00                 4548 	.db #0x00
   0F1A 00                 4549 	.db #0x00
   0F1B 00                 4550 	.db #0x00
   0F1C 00                 4551 	.db #0x00
   0F1D 00                 4552 	.db #0x00
   0F1E 00                 4553 	.db #0x00
   0F1F 00                 4554 	.db #0x00
   0F20 00                 4555 	.db #0x00
   0F21 00                 4556 	.db #0x00
   0F22 00                 4557 	.db #0x00
   0F23 00                 4558 	.db #0x00
   0F24 00                 4559 	.db #0x00
   0F25 00                 4560 	.db #0x00
   0F26 00                 4561 	.db #0x00
   0F27 00                 4562 	.db #0x00
   0F28 00                 4563 	.db #0x00
   0F29 00                 4564 	.db #0x00
   0F2A 00                 4565 	.db #0x00
   0F2B 00                 4566 	.db #0x00
   0F2C 00                 4567 	.db #0x00
   0F2D 00                 4568 	.db #0x00
   0F2E 00                 4569 	.db #0x00
   0F2F 00                 4570 	.db #0x00
   0F30 00                 4571 	.db #0x00
   0F31 00                 4572 	.db #0x00
   0F32 00                 4573 	.db #0x00
   0F33 00                 4574 	.db #0x00
   0F34 00                 4575 	.db #0x00
   0F35 00                 4576 	.db #0x00
   0F36 00                 4577 	.db #0x00
   0F37 00                 4578 	.db #0x00
   0F38 00                 4579 	.db #0x00
   0F39 00                 4580 	.db #0x00
   0F3A 00                 4581 	.db #0x00
   0F3B 00                 4582 	.db #0x00
   0F3C 00                 4583 	.db #0x00
   0F3D 00                 4584 	.db #0x00
   0F3E 00                 4585 	.db #0x00
   0F3F 00                 4586 	.db #0x00
   0F40 00                 4587 	.db #0x00
   0F41 00                 4588 	.db #0x00
   0F42 00                 4589 	.db #0x00
   0F43 00                 4590 	.db #0x00
   0F44 00                 4591 	.db #0x00
   0F45 00                 4592 	.db #0x00
   0F46 00                 4593 	.db #0x00
   0F47 00                 4594 	.db #0x00
   0F48 00                 4595 	.db #0x00
   0F49 00                 4596 	.db #0x00
   0F4A 00                 4597 	.db #0x00
   0F4B 00                 4598 	.db #0x00
   0F4C 00                 4599 	.db #0x00
   0F4D 00                 4600 	.db #0x00
   0F4E 00                 4601 	.db #0x00
   0F4F 00                 4602 	.db #0x00
   0F50 00                 4603 	.db #0x00
   0F51 00                 4604 	.db #0x00
   0F52 00                 4605 	.db #0x00
   0F53 00                 4606 	.db #0x00
   0F54 00                 4607 	.db #0x00
   0F55 00                 4608 	.db #0x00
   0F56 00                 4609 	.db #0x00
   0F57 00                 4610 	.db #0x00
   0F58 00                 4611 	.db #0x00
   0F59 00                 4612 	.db #0x00
   0F5A 00                 4613 	.db #0x00
   0F5B 00                 4614 	.db #0x00
   0F5C 00                 4615 	.db #0x00
   0F5D 00                 4616 	.db #0x00
   0F5E 00                 4617 	.db #0x00
   0F5F 00                 4618 	.db #0x00
   0F60 00                 4619 	.db #0x00
   0F61 00                 4620 	.db #0x00
   0F62 00                 4621 	.db #0x00
   0F63 00                 4622 	.db #0x00
   0F64 00                 4623 	.db #0x00
   0F65 00                 4624 	.db #0x00
   0F66 00                 4625 	.db #0x00
   0F67 00                 4626 	.db #0x00
   0F68 00                 4627 	.db #0x00
   0F69 00                 4628 	.db #0x00
   0F6A 00                 4629 	.db #0x00
   0F6B 00                 4630 	.db #0x00
   0F6C 00                 4631 	.db #0x00
   0F6D 00                 4632 	.db #0x00
   0F6E 00                 4633 	.db #0x00
   0F6F 00                 4634 	.db #0x00
   0F70 00                 4635 	.db #0x00
   0F71 00                 4636 	.db #0x00
   0F72 00                 4637 	.db #0x00
   0F73 00                 4638 	.db #0x00
   0F74 00                 4639 	.db #0x00
   0F75 00                 4640 	.db #0x00
   0F76 00                 4641 	.db #0x00
   0F77 00                 4642 	.db #0x00
   0F78 00                 4643 	.db #0x00
   0F79 00                 4644 	.db #0x00
   0F7A 00                 4645 	.db #0x00
   0F7B 00                 4646 	.db #0x00
   0F7C 00                 4647 	.db #0x00
   0F7D 00                 4648 	.db #0x00
   0F7E 00                 4649 	.db #0x00
   0F7F 00                 4650 	.db #0x00
   0F80 00                 4651 	.db #0x00
   0F81 00                 4652 	.db #0x00
   0F82 00                 4653 	.db #0x00
   0F83 00                 4654 	.db #0x00
   0F84 00                 4655 	.db #0x00
   0F85 00                 4656 	.db #0x00
   0F86 00                 4657 	.db #0x00
   0F87 00                 4658 	.db #0x00
   0F88 00                 4659 	.db #0x00
   0F89 00                 4660 	.db #0x00
   0F8A 00                 4661 	.db #0x00
   0F8B 00                 4662 	.db #0x00
   0F8C 00                 4663 	.db #0x00
   0F8D 00                 4664 	.db #0x00
   0F8E 00                 4665 	.db #0x00
   0F8F 00                 4666 	.db #0x00
   0F90 00                 4667 	.db #0x00
   0F91 00                 4668 	.db #0x00
   0F92 00                 4669 	.db #0x00
   0F93 00                 4670 	.db #0x00
   0F94 00                 4671 	.db #0x00
   0F95 00                 4672 	.db #0x00
   0F96 00                 4673 	.db #0x00
   0F97 00                 4674 	.db #0x00
   0F98 00                 4675 	.db #0x00
   0F99 00                 4676 	.db #0x00
   0F9A 00                 4677 	.db #0x00
   0F9B 00                 4678 	.db #0x00
   0F9C 00                 4679 	.db #0x00
   0F9D 00                 4680 	.db #0x00
   0F9E 00                 4681 	.db #0x00
   0F9F 00                 4682 	.db #0x00
   0FA0 00                 4683 	.db #0x00
   0FA1 00                 4684 	.db #0x00
   0FA2 00                 4685 	.db #0x00
   0FA3 00                 4686 	.db #0x00
   0FA4 00                 4687 	.db #0x00
   0FA5 00                 4688 	.db #0x00
   0FA6 00                 4689 	.db #0x00
   0FA7 00                 4690 	.db #0x00
   0FA8 00                 4691 	.db #0x00
   0FA9 00                 4692 	.db #0x00
   0FAA 00                 4693 	.db #0x00
   0FAB 00                 4694 	.db #0x00
   0FAC 00                 4695 	.db #0x00
   0FAD 00                 4696 	.db #0x00
   0FAE 00                 4697 	.db #0x00
   0FAF 00                 4698 	.db #0x00
   0FB0 00                 4699 	.db #0x00
   0FB1 00                 4700 	.db #0x00
   0FB2 00                 4701 	.db #0x00
   0FB3 00                 4702 	.db #0x00
   0FB4 00                 4703 	.db #0x00
   0FB5 00                 4704 	.db #0x00
   0FB6 00                 4705 	.db #0x00
   0FB7 00                 4706 	.db #0x00
   0FB8 00                 4707 	.db #0x00
   0FB9 00                 4708 	.db #0x00
   0FBA 00                 4709 	.db #0x00
   0FBB 00                 4710 	.db #0x00
   0FBC 00                 4711 	.db #0x00
   0FBD 00                 4712 	.db #0x00
   0FBE 00                 4713 	.db #0x00
   0FBF 00                 4714 	.db #0x00
   0FC0 00                 4715 	.db #0x00
   0FC1 00                 4716 	.db #0x00
   0FC2 00                 4717 	.db #0x00
   0FC3 00                 4718 	.db #0x00
   0FC4 00                 4719 	.db #0x00
   0FC5 00                 4720 	.db #0x00
   0FC6 00                 4721 	.db #0x00
   0FC7 00                 4722 	.db #0x00
   0FC8 00                 4723 	.db #0x00
   0FC9 00                 4724 	.db #0x00
   0FCA 00                 4725 	.db #0x00
   0FCB 00                 4726 	.db #0x00
   0FCC 00                 4727 	.db #0x00
   0FCD 00                 4728 	.db #0x00
   0FCE 00                 4729 	.db #0x00
   0FCF 00                 4730 	.db #0x00
   0FD0 00                 4731 	.db #0x00
   0FD1 00                 4732 	.db #0x00
   0FD2 00                 4733 	.db #0x00
   0FD3 00                 4734 	.db #0x00
   0FD4 00                 4735 	.db #0x00
   0FD5 00                 4736 	.db #0x00
   0FD6 00                 4737 	.db #0x00
   0FD7 00                 4738 	.db #0x00
   0FD8 00                 4739 	.db #0x00
   0FD9 00                 4740 	.db #0x00
   0FDA 00                 4741 	.db #0x00
   0FDB 00                 4742 	.db #0x00
   0FDC 00                 4743 	.db #0x00
   0FDD 00                 4744 	.db #0x00
   0FDE 00                 4745 	.db #0x00
   0FDF 00                 4746 	.db #0x00
   0FE0 00                 4747 	.db #0x00
   0FE1 00                 4748 	.db #0x00
   0FE2 00                 4749 	.db #0x00
   0FE3 00                 4750 	.db #0x00
   0FE4 00                 4751 	.db #0x00
   0FE5 00                 4752 	.db #0x00
   0FE6 00                 4753 	.db #0x00
   0FE7 00                 4754 	.db #0x00
   0FE8 00                 4755 	.db #0x00
   0FE9 00                 4756 	.db #0x00
   0FEA 00                 4757 	.db #0x00
   0FEB 00                 4758 	.db #0x00
   0FEC 00                 4759 	.db #0x00
   0FED 00                 4760 	.db #0x00
   0FEE 00                 4761 	.db #0x00
   0FEF 00                 4762 	.db #0x00
   0FF0 00                 4763 	.db #0x00
   0FF1 00                 4764 	.db #0x00
   0FF2 00                 4765 	.db #0x00
   0FF3 00                 4766 	.db #0x00
   0FF4 00                 4767 	.db #0x00
   0FF5 00                 4768 	.db #0x00
   0FF6 00                 4769 	.db #0x00
   0FF7 00                 4770 	.db #0x00
   0FF8 00                 4771 	.db #0x00
   0FF9                    4772 _backmap1_data:
   0FF9 00                 4773 	.db #0x00
   0FFA 00                 4774 	.db #0x00
   0FFB 00                 4775 	.db #0x00
   0FFC 00                 4776 	.db #0x00
   0FFD 00                 4777 	.db #0x00
   0FFE 00                 4778 	.db #0x00
   0FFF 00                 4779 	.db #0x00
   1000 00                 4780 	.db #0x00
   1001 00                 4781 	.db #0x00
   1002 00                 4782 	.db #0x00
   1003 00                 4783 	.db #0x00
   1004 00                 4784 	.db #0x00
   1005 00                 4785 	.db #0x00
   1006 00                 4786 	.db #0x00
   1007 00                 4787 	.db #0x00
   1008 00                 4788 	.db #0x00
   1009 00                 4789 	.db #0x00
   100A 00                 4790 	.db #0x00
   100B 00                 4791 	.db #0x00
   100C 00                 4792 	.db #0x00
   100D 00                 4793 	.db #0x00
   100E 00                 4794 	.db #0x00
   100F 00                 4795 	.db #0x00
   1010 00                 4796 	.db #0x00
   1011 00                 4797 	.db #0x00
   1012 00                 4798 	.db #0x00
   1013 1F                 4799 	.db #0x1F
   1014 1F                 4800 	.db #0x1F
   1015 30                 4801 	.db #0x30
   1016 30                 4802 	.db #0x30
   1017 C0                 4803 	.db #0xC0
   1018 C0                 4804 	.db #0xC0
   1019 00                 4805 	.db #0x00
   101A 00                 4806 	.db #0x00
   101B 00                 4807 	.db #0x00
   101C 00                 4808 	.db #0x00
   101D 00                 4809 	.db #0x00
   101E 00                 4810 	.db #0x00
   101F 00                 4811 	.db #0x00
   1020 00                 4812 	.db #0x00
   1021 38                 4813 	.db #0x38
   1022 38                 4814 	.db #0x38
   1023 EF                 4815 	.db #0xEF
   1024 EF                 4816 	.db #0xEF
   1025 00                 4817 	.db #0x00
   1026 00                 4818 	.db #0x00
   1027 00                 4819 	.db #0x00
   1028 00                 4820 	.db #0x00
   1029 00                 4821 	.db #0x00
   102A 00                 4822 	.db #0x00
   102B 00                 4823 	.db #0x00
   102C 00                 4824 	.db #0x00
   102D 00                 4825 	.db #0x00
   102E 00                 4826 	.db #0x00
   102F 00                 4827 	.db #0x00
   1030 00                 4828 	.db #0x00
   1031 00                 4829 	.db #0x00
   1032 00                 4830 	.db #0x00
   1033 FF                 4831 	.db #0xFF
   1034 FF                 4832 	.db #0xFF
   1035 00                 4833 	.db #0x00
   1036 00                 4834 	.db #0x00
   1037 00                 4835 	.db #0x00
   1038 00                 4836 	.db #0x00
   1039 00                 4837 	.db #0x00
   103A 00                 4838 	.db #0x00
   103B 00                 4839 	.db #0x00
   103C 00                 4840 	.db #0x00
   103D 00                 4841 	.db #0x00
   103E 00                 4842 	.db #0x00
   103F 00                 4843 	.db #0x00
   1040 00                 4844 	.db #0x00
   1041 00                 4845 	.db #0x00
   1042 00                 4846 	.db #0x00
   1043 FF                 4847 	.db #0xFF
   1044 FF                 4848 	.db #0xFF
   1045 0F                 4849 	.db #0x0F
   1046 0F                 4850 	.db #0x0F
   1047 0F                 4851 	.db #0x0F
   1048 0F                 4852 	.db #0x0F
   1049 00                 4853 	.db #0x00
   104A 00                 4854 	.db #0x00
   104B 00                 4855 	.db #0x00
   104C 00                 4856 	.db #0x00
   104D 00                 4857 	.db #0x00
   104E 00                 4858 	.db #0x00
   104F 00                 4859 	.db #0x00
   1050 00                 4860 	.db #0x00
   1051 00                 4861 	.db #0x00
   1052 00                 4862 	.db #0x00
   1053 FF                 4863 	.db #0xFF
   1054 FF                 4864 	.db #0xFF
   1055 FF                 4865 	.db #0xFF
   1056 FF                 4866 	.db #0xFF
   1057 FF                 4867 	.db #0xFF
   1058 FF                 4868 	.db #0xFF
   1059 00                 4869 	.db #0x00
   105A 00                 4870 	.db #0x00
   105B 00                 4871 	.db #0x00
   105C 00                 4872 	.db #0x00
   105D 00                 4873 	.db #0x00
   105E 00                 4874 	.db #0x00
   105F 00                 4875 	.db #0x00
   1060 00                 4876 	.db #0x00
   1061 00                 4877 	.db #0x00
   1062 00                 4878 	.db #0x00
   1063 00                 4879 	.db #0x00
   1064 00                 4880 	.db #0x00
   1065 00                 4881 	.db #0x00
   1066 00                 4882 	.db #0x00
   1067 C0                 4883 	.db #0xC0
   1068 C0                 4884 	.db #0xC0
   1069 00                 4885 	.db #0x00
   106A 00                 4886 	.db #0x00
   106B 00                 4887 	.db #0x00
   106C 00                 4888 	.db #0x00
   106D 00                 4889 	.db #0x00
   106E 00                 4890 	.db #0x00
   106F 03                 4891 	.db #0x03
   1070 03                 4892 	.db #0x03
   1071 02                 4893 	.db #0x02
   1072 02                 4894 	.db #0x02
   1073 04                 4895 	.db #0x04
   1074 04                 4896 	.db #0x04
   1075 08                 4897 	.db #0x08
   1076 08                 4898 	.db #0x08
   1077 10                 4899 	.db #0x10
   1078 10                 4900 	.db #0x10
   1079 0F                 4901 	.db #0x0F
   107A 0F                 4902 	.db #0x0F
   107B 30                 4903 	.db #0x30
   107C 30                 4904 	.db #0x30
   107D 60                 4905 	.db #0x60
   107E 60                 4906 	.db #0x60
   107F 80                 4907 	.db #0x80
   1080 80                 4908 	.db #0x80
   1081 00                 4909 	.db #0x00
   1082 00                 4910 	.db #0x00
   1083 00                 4911 	.db #0x00
   1084 00                 4912 	.db #0x00
   1085 00                 4913 	.db #0x00
   1086 00                 4914 	.db #0x00
   1087 00                 4915 	.db #0x00
   1088 00                 4916 	.db #0x00
   1089 80                 4917 	.db #0x80
   108A 80                 4918 	.db #0x80
   108B 00                 4919 	.db #0x00
   108C 00                 4920 	.db #0x00
   108D 00                 4921 	.db #0x00
   108E 00                 4922 	.db #0x00
   108F 00                 4923 	.db #0x00
   1090 00                 4924 	.db #0x00
   1091 00                 4925 	.db #0x00
   1092 00                 4926 	.db #0x00
   1093 00                 4927 	.db #0x00
   1094 00                 4928 	.db #0x00
   1095 00                 4929 	.db #0x00
   1096 00                 4930 	.db #0x00
   1097 00                 4931 	.db #0x00
   1098 00                 4932 	.db #0x00
   1099 00                 4933 	.db #0x00
   109A 00                 4934 	.db #0x00
   109B 01                 4935 	.db #0x01
   109C 01                 4936 	.db #0x01
   109D 01                 4937 	.db #0x01
   109E 01                 4938 	.db #0x01
   109F 01                 4939 	.db #0x01
   10A0 01                 4940 	.db #0x01
   10A1 01                 4941 	.db #0x01
   10A2 01                 4942 	.db #0x01
   10A3 01                 4943 	.db #0x01
   10A4 01                 4944 	.db #0x01
   10A5 01                 4945 	.db #0x01
   10A6 01                 4946 	.db #0x01
   10A7 01                 4947 	.db #0x01
   10A8 01                 4948 	.db #0x01
   10A9 00                 4949 	.db #0x00
   10AA 00                 4950 	.db #0x00
   10AB FF                 4951 	.db #0xFF
   10AC FF                 4952 	.db #0xFF
   10AD 00                 4953 	.db #0x00
   10AE 00                 4954 	.db #0x00
   10AF 00                 4955 	.db #0x00
   10B0 00                 4956 	.db #0x00
   10B1 00                 4957 	.db #0x00
   10B2 00                 4958 	.db #0x00
   10B3 00                 4959 	.db #0x00
   10B4 00                 4960 	.db #0x00
   10B5 00                 4961 	.db #0x00
   10B6 00                 4962 	.db #0x00
   10B7 00                 4963 	.db #0x00
   10B8 00                 4964 	.db #0x00
   10B9 0F                 4965 	.db #0x0F
   10BA 0F                 4966 	.db #0x0F
   10BB CF                 4967 	.db #0xCF
   10BC CF                 4968 	.db #0xCF
   10BD 4F                 4969 	.db #0x4F
   10BE 4F                 4970 	.db #0x4F
   10BF 4F                 4971 	.db #0x4F
   10C0 4F                 4972 	.db #0x4F
   10C1 4F                 4973 	.db #0x4F
   10C2 4F                 4974 	.db #0x4F
   10C3 4F                 4975 	.db #0x4F
   10C4 4F                 4976 	.db #0x4F
   10C5 4F                 4977 	.db #0x4F
   10C6 4F                 4978 	.db #0x4F
   10C7 4F                 4979 	.db #0x4F
   10C8 4F                 4980 	.db #0x4F
   10C9 FF                 4981 	.db #0xFF
   10CA FF                 4982 	.db #0xFF
   10CB FF                 4983 	.db #0xFF
   10CC FF                 4984 	.db #0xFF
   10CD FF                 4985 	.db #0xFF
   10CE FF                 4986 	.db #0xFF
   10CF FF                 4987 	.db #0xFF
   10D0 FF                 4988 	.db #0xFF
   10D1 FF                 4989 	.db #0xFF
   10D2 FF                 4990 	.db #0xFF
   10D3 FF                 4991 	.db #0xFF
   10D4 FF                 4992 	.db #0xFF
   10D5 FF                 4993 	.db #0xFF
   10D6 FF                 4994 	.db #0xFF
   10D7 FF                 4995 	.db #0xFF
   10D8 FF                 4996 	.db #0xFF
   10D9 F0                 4997 	.db #0xF0
   10DA F0                 4998 	.db #0xF0
   10DB FC                 4999 	.db #0xFC
   10DC FC                 5000 	.db #0xFC
   10DD FF                 5001 	.db #0xFF
   10DE FF                 5002 	.db #0xFF
   10DF FF                 5003 	.db #0xFF
   10E0 FF                 5004 	.db #0xFF
   10E1 FF                 5005 	.db #0xFF
   10E2 FF                 5006 	.db #0xFF
   10E3 FF                 5007 	.db #0xFF
   10E4 FF                 5008 	.db #0xFF
   10E5 FF                 5009 	.db #0xFF
   10E6 FF                 5010 	.db #0xFF
   10E7 FF                 5011 	.db #0xFF
   10E8 FF                 5012 	.db #0xFF
   10E9 00                 5013 	.db #0x00
   10EA 00                 5014 	.db #0x00
   10EB 00                 5015 	.db #0x00
   10EC 00                 5016 	.db #0x00
   10ED C0                 5017 	.db #0xC0
   10EE C0                 5018 	.db #0xC0
   10EF F0                 5019 	.db #0xF0
   10F0 F0                 5020 	.db #0xF0
   10F1 F8                 5021 	.db #0xF8
   10F2 F8                 5022 	.db #0xF8
   10F3 FE                 5023 	.db #0xFE
   10F4 FE                 5024 	.db #0xFE
   10F5 FF                 5025 	.db #0xFF
   10F6 FF                 5026 	.db #0xFF
   10F7 FF                 5027 	.db #0xFF
   10F8 FF                 5028 	.db #0xFF
   10F9 00                 5029 	.db #0x00
   10FA 00                 5030 	.db #0x00
   10FB 00                 5031 	.db #0x00
   10FC 00                 5032 	.db #0x00
   10FD 00                 5033 	.db #0x00
   10FE 00                 5034 	.db #0x00
   10FF 00                 5035 	.db #0x00
   1100 00                 5036 	.db #0x00
   1101 00                 5037 	.db #0x00
   1102 00                 5038 	.db #0x00
   1103 00                 5039 	.db #0x00
   1104 00                 5040 	.db #0x00
   1105 C0                 5041 	.db #0xC0
   1106 C0                 5042 	.db #0xC0
   1107 F0                 5043 	.db #0xF0
   1108 F0                 5044 	.db #0xF0
   1109 00                 5045 	.db #0x00
   110A 00                 5046 	.db #0x00
   110B 00                 5047 	.db #0x00
   110C 00                 5048 	.db #0x00
   110D 00                 5049 	.db #0x00
   110E 00                 5050 	.db #0x00
   110F 01                 5051 	.db #0x01
   1110 01                 5052 	.db #0x01
   1111 01                 5053 	.db #0x01
   1112 01                 5054 	.db #0x01
   1113 02                 5055 	.db #0x02
   1114 02                 5056 	.db #0x02
   1115 04                 5057 	.db #0x04
   1116 04                 5058 	.db #0x04
   1117 1C                 5059 	.db #0x1C
   1118 1C                 5060 	.db #0x1C
   1119 30                 5061 	.db #0x30
   111A 30                 5062 	.db #0x30
   111B 60                 5063 	.db #0x60
   111C 60                 5064 	.db #0x60
   111D 40                 5065 	.db #0x40
   111E 40                 5066 	.db #0x40
   111F C0                 5067 	.db #0xC0
   1120 C0                 5068 	.db #0xC0
   1121 00                 5069 	.db #0x00
   1122 00                 5070 	.db #0x00
   1123 00                 5071 	.db #0x00
   1124 00                 5072 	.db #0x00
   1125 00                 5073 	.db #0x00
   1126 00                 5074 	.db #0x00
   1127 00                 5075 	.db #0x00
   1128 00                 5076 	.db #0x00
   1129 01                 5077 	.db #0x01
   112A 01                 5078 	.db #0x01
   112B 01                 5079 	.db #0x01
   112C 01                 5080 	.db #0x01
   112D 01                 5081 	.db #0x01
   112E 01                 5082 	.db #0x01
   112F 01                 5083 	.db #0x01
   1130 01                 5084 	.db #0x01
   1131 01                 5085 	.db #0x01
   1132 01                 5086 	.db #0x01
   1133 01                 5087 	.db #0x01
   1134 01                 5088 	.db #0x01
   1135 01                 5089 	.db #0x01
   1136 01                 5090 	.db #0x01
   1137 01                 5091 	.db #0x01
   1138 01                 5092 	.db #0x01
   1139 00                 5093 	.db #0x00
   113A 00                 5094 	.db #0x00
   113B 00                 5095 	.db #0x00
   113C 00                 5096 	.db #0x00
   113D 00                 5097 	.db #0x00
   113E 00                 5098 	.db #0x00
   113F 01                 5099 	.db #0x01
   1140 01                 5100 	.db #0x01
   1141 01                 5101 	.db #0x01
   1142 01                 5102 	.db #0x01
   1143 01                 5103 	.db #0x01
   1144 01                 5104 	.db #0x01
   1145 01                 5105 	.db #0x01
   1146 01                 5106 	.db #0x01
   1147 01                 5107 	.db #0x01
   1148 01                 5108 	.db #0x01
   1149 00                 5109 	.db #0x00
   114A 00                 5110 	.db #0x00
   114B 00                 5111 	.db #0x00
   114C 00                 5112 	.db #0x00
   114D 00                 5113 	.db #0x00
   114E 00                 5114 	.db #0x00
   114F FF                 5115 	.db #0xFF
   1150 FF                 5116 	.db #0xFF
   1151 FF                 5117 	.db #0xFF
   1152 FF                 5118 	.db #0xFF
   1153 FF                 5119 	.db #0xFF
   1154 FF                 5120 	.db #0xFF
   1155 FF                 5121 	.db #0xFF
   1156 FF                 5122 	.db #0xFF
   1157 FF                 5123 	.db #0xFF
   1158 FF                 5124 	.db #0xFF
   1159 00                 5125 	.db #0x00
   115A 00                 5126 	.db #0x00
   115B 00                 5127 	.db #0x00
   115C 00                 5128 	.db #0x00
   115D 00                 5129 	.db #0x00
   115E 00                 5130 	.db #0x00
   115F F0                 5131 	.db #0xF0
   1160 F0                 5132 	.db #0xF0
   1161 F0                 5133 	.db #0xF0
   1162 F0                 5134 	.db #0xF0
   1163 F0                 5135 	.db #0xF0
   1164 F0                 5136 	.db #0xF0
   1165 F0                 5137 	.db #0xF0
   1166 F0                 5138 	.db #0xF0
   1167 F0                 5139 	.db #0xF0
   1168 F0                 5140 	.db #0xF0
   1169 4F                 5141 	.db #0x4F
   116A 4F                 5142 	.db #0x4F
   116B 4F                 5143 	.db #0x4F
   116C 4F                 5144 	.db #0x4F
   116D 4F                 5145 	.db #0x4F
   116E 4F                 5146 	.db #0x4F
   116F 4F                 5147 	.db #0x4F
   1170 4F                 5148 	.db #0x4F
   1171 4F                 5149 	.db #0x4F
   1172 4F                 5150 	.db #0x4F
   1173 4F                 5151 	.db #0x4F
   1174 4F                 5152 	.db #0x4F
   1175 4F                 5153 	.db #0x4F
   1176 4F                 5154 	.db #0x4F
   1177 4F                 5155 	.db #0x4F
   1178 4F                 5156 	.db #0x4F
   1179 FC                 5157 	.db #0xFC
   117A FC                 5158 	.db #0xFC
   117B FE                 5159 	.db #0xFE
   117C FE                 5160 	.db #0xFE
   117D FF                 5161 	.db #0xFF
   117E FF                 5162 	.db #0xFF
   117F FF                 5163 	.db #0xFF
   1180 FF                 5164 	.db #0xFF
   1181 FF                 5165 	.db #0xFF
   1182 FF                 5166 	.db #0xFF
   1183 FF                 5167 	.db #0xFF
   1184 FF                 5168 	.db #0xFF
   1185 FF                 5169 	.db #0xFF
   1186 FF                 5170 	.db #0xFF
   1187 FF                 5171 	.db #0xFF
   1188 FF                 5172 	.db #0xFF
   1189 00                 5173 	.db #0x00
   118A 00                 5174 	.db #0x00
   118B 00                 5175 	.db #0x00
   118C 00                 5176 	.db #0x00
   118D 80                 5177 	.db #0x80
   118E 80                 5178 	.db #0x80
   118F F0                 5179 	.db #0xF0
   1190 F0                 5180 	.db #0xF0
   1191 FC                 5181 	.db #0xFC
   1192 FC                 5182 	.db #0xFC
   1193 FF                 5183 	.db #0xFF
   1194 FF                 5184 	.db #0xFF
   1195 FF                 5185 	.db #0xFF
   1196 FF                 5186 	.db #0xFF
   1197 FF                 5187 	.db #0xFF
   1198 FF                 5188 	.db #0xFF
   1199 00                 5189 	.db #0x00
   119A 00                 5190 	.db #0x00
   119B 00                 5191 	.db #0x00
   119C 00                 5192 	.db #0x00
   119D 00                 5193 	.db #0x00
   119E 00                 5194 	.db #0x00
   119F 00                 5195 	.db #0x00
   11A0 00                 5196 	.db #0x00
   11A1 00                 5197 	.db #0x00
   11A2 00                 5198 	.db #0x00
   11A3 00                 5199 	.db #0x00
   11A4 00                 5200 	.db #0x00
   11A5 C0                 5201 	.db #0xC0
   11A6 C0                 5202 	.db #0xC0
   11A7 E0                 5203 	.db #0xE0
   11A8 E0                 5204 	.db #0xE0
   11A9 30                 5205 	.db #0x30
   11AA 30                 5206 	.db #0x30
   11AB 20                 5207 	.db #0x20
   11AC 20                 5208 	.db #0x20
   11AD 40                 5209 	.db #0x40
   11AE 40                 5210 	.db #0x40
   11AF C0                 5211 	.db #0xC0
   11B0 C0                 5212 	.db #0xC0
   11B1 80                 5213 	.db #0x80
   11B2 80                 5214 	.db #0x80
   11B3 80                 5215 	.db #0x80
   11B4 80                 5216 	.db #0x80
   11B5 80                 5217 	.db #0x80
   11B6 80                 5218 	.db #0x80
   11B7 80                 5219 	.db #0x80
   11B8 80                 5220 	.db #0x80
   11B9 00                 5221 	.db #0x00
   11BA 00                 5222 	.db #0x00
   11BB 00                 5223 	.db #0x00
   11BC 00                 5224 	.db #0x00
   11BD 03                 5225 	.db #0x03
   11BE 03                 5226 	.db #0x03
   11BF 03                 5227 	.db #0x03
   11C0 03                 5228 	.db #0x03
   11C1 03                 5229 	.db #0x03
   11C2 03                 5230 	.db #0x03
   11C3 03                 5231 	.db #0x03
   11C4 03                 5232 	.db #0x03
   11C5 03                 5233 	.db #0x03
   11C6 03                 5234 	.db #0x03
   11C7 03                 5235 	.db #0x03
   11C8 03                 5236 	.db #0x03
   11C9 00                 5237 	.db #0x00
   11CA 00                 5238 	.db #0x00
   11CB 00                 5239 	.db #0x00
   11CC 00                 5240 	.db #0x00
   11CD FF                 5241 	.db #0xFF
   11CE FF                 5242 	.db #0xFF
   11CF FF                 5243 	.db #0xFF
   11D0 FF                 5244 	.db #0xFF
   11D1 FF                 5245 	.db #0xFF
   11D2 FF                 5246 	.db #0xFF
   11D3 FF                 5247 	.db #0xFF
   11D4 FF                 5248 	.db #0xFF
   11D5 FF                 5249 	.db #0xFF
   11D6 FF                 5250 	.db #0xFF
   11D7 FF                 5251 	.db #0xFF
   11D8 FF                 5252 	.db #0xFF
   11D9 00                 5253 	.db #0x00
   11DA 00                 5254 	.db #0x00
   11DB 00                 5255 	.db #0x00
   11DC 00                 5256 	.db #0x00
   11DD FF                 5257 	.db #0xFF
   11DE FF                 5258 	.db #0xFF
   11DF FF                 5259 	.db #0xFF
   11E0 FF                 5260 	.db #0xFF
   11E1 FF                 5261 	.db #0xFF
   11E2 FF                 5262 	.db #0xFF
   11E3 FF                 5263 	.db #0xFF
   11E4 FF                 5264 	.db #0xFF
   11E5 FF                 5265 	.db #0xFF
   11E6 FF                 5266 	.db #0xFF
   11E7 C7                 5267 	.db #0xC7
   11E8 C7                 5268 	.db #0xC7
   11E9 00                 5269 	.db #0x00
   11EA 00                 5270 	.db #0x00
   11EB 00                 5271 	.db #0x00
   11EC 00                 5272 	.db #0x00
   11ED E0                 5273 	.db #0xE0
   11EE E0                 5274 	.db #0xE0
   11EF E0                 5275 	.db #0xE0
   11F0 E0                 5276 	.db #0xE0
   11F1 E0                 5277 	.db #0xE0
   11F2 E0                 5278 	.db #0xE0
   11F3 E0                 5279 	.db #0xE0
   11F4 E0                 5280 	.db #0xE0
   11F5 E0                 5281 	.db #0xE0
   11F6 E0                 5282 	.db #0xE0
   11F7 E0                 5283 	.db #0xE0
   11F8 E0                 5284 	.db #0xE0
   11F9 00                 5285 	.db #0x00
   11FA 00                 5286 	.db #0x00
   11FB 00                 5287 	.db #0x00
   11FC 00                 5288 	.db #0x00
   11FD 7F                 5289 	.db #0x7F
   11FE 7F                 5290 	.db #0x7F
   11FF 7F                 5291 	.db #0x7F
   1200 7F                 5292 	.db #0x7F
   1201 7F                 5293 	.db #0x7F
   1202 7F                 5294 	.db #0x7F
   1203 7F                 5295 	.db #0x7F
   1204 7F                 5296 	.db #0x7F
   1205 7F                 5297 	.db #0x7F
   1206 7F                 5298 	.db #0x7F
   1207 7F                 5299 	.db #0x7F
   1208 7F                 5300 	.db #0x7F
   1209 00                 5301 	.db #0x00
   120A 00                 5302 	.db #0x00
   120B 00                 5303 	.db #0x00
   120C 00                 5304 	.db #0x00
   120D FF                 5305 	.db #0xFF
   120E FF                 5306 	.db #0xFF
   120F FF                 5307 	.db #0xFF
   1210 FF                 5308 	.db #0xFF
   1211 FF                 5309 	.db #0xFF
   1212 FF                 5310 	.db #0xFF
   1213 FF                 5311 	.db #0xFF
   1214 FF                 5312 	.db #0xFF
   1215 FF                 5313 	.db #0xFF
   1216 FF                 5314 	.db #0xFF
   1217 F8                 5315 	.db #0xF8
   1218 F8                 5316 	.db #0xF8
   1219 00                 5317 	.db #0x00
   121A 00                 5318 	.db #0x00
   121B 00                 5319 	.db #0x00
   121C 00                 5320 	.db #0x00
   121D FC                 5321 	.db #0xFC
   121E FC                 5322 	.db #0xFC
   121F FC                 5323 	.db #0xFC
   1220 FC                 5324 	.db #0xFC
   1221 FC                 5325 	.db #0xFC
   1222 FC                 5326 	.db #0xFC
   1223 FC                 5327 	.db #0xFC
   1224 FC                 5328 	.db #0xFC
   1225 FC                 5329 	.db #0xFC
   1226 FC                 5330 	.db #0xFC
   1227 FC                 5331 	.db #0xFC
   1228 FC                 5332 	.db #0xFC
   1229 00                 5333 	.db #0x00
   122A 00                 5334 	.db #0x00
   122B 00                 5335 	.db #0x00
   122C 00                 5336 	.db #0x00
   122D 00                 5337 	.db #0x00
   122E 00                 5338 	.db #0x00
   122F 3F                 5339 	.db #0x3F
   1230 3F                 5340 	.db #0x3F
   1231 3F                 5341 	.db #0x3F
   1232 3F                 5342 	.db #0x3F
   1233 3F                 5343 	.db #0x3F
   1234 3F                 5344 	.db #0x3F
   1235 3F                 5345 	.db #0x3F
   1236 3F                 5346 	.db #0x3F
   1237 3F                 5347 	.db #0x3F
   1238 3F                 5348 	.db #0x3F
   1239 00                 5349 	.db #0x00
   123A 00                 5350 	.db #0x00
   123B 00                 5351 	.db #0x00
   123C 00                 5352 	.db #0x00
   123D 00                 5353 	.db #0x00
   123E 00                 5354 	.db #0x00
   123F FE                 5355 	.db #0xFE
   1240 FE                 5356 	.db #0xFE
   1241 FE                 5357 	.db #0xFE
   1242 FE                 5358 	.db #0xFE
   1243 FE                 5359 	.db #0xFE
   1244 FE                 5360 	.db #0xFE
   1245 FE                 5361 	.db #0xFE
   1246 FE                 5362 	.db #0xFE
   1247 FE                 5363 	.db #0xFE
   1248 FE                 5364 	.db #0xFE
   1249 00                 5365 	.db #0x00
   124A 00                 5366 	.db #0x00
   124B 00                 5367 	.db #0x00
   124C 00                 5368 	.db #0x00
   124D 00                 5369 	.db #0x00
   124E 00                 5370 	.db #0x00
   124F 07                 5371 	.db #0x07
   1250 07                 5372 	.db #0x07
   1251 07                 5373 	.db #0x07
   1252 07                 5374 	.db #0x07
   1253 07                 5375 	.db #0x07
   1254 07                 5376 	.db #0x07
   1255 07                 5377 	.db #0x07
   1256 07                 5378 	.db #0x07
   1257 07                 5379 	.db #0x07
   1258 07                 5380 	.db #0x07
   1259 00                 5381 	.db #0x00
   125A 00                 5382 	.db #0x00
   125B 00                 5383 	.db #0x00
   125C 00                 5384 	.db #0x00
   125D 00                 5385 	.db #0x00
   125E 00                 5386 	.db #0x00
   125F C0                 5387 	.db #0xC0
   1260 C0                 5388 	.db #0xC0
   1261 C0                 5389 	.db #0xC0
   1262 C0                 5390 	.db #0xC0
   1263 C0                 5391 	.db #0xC0
   1264 C0                 5392 	.db #0xC0
   1265 C0                 5393 	.db #0xC0
   1266 C0                 5394 	.db #0xC0
   1267 C0                 5395 	.db #0xC0
   1268 C0                 5396 	.db #0xC0
   1269 00                 5397 	.db #0x00
   126A 00                 5398 	.db #0x00
   126B 00                 5399 	.db #0x00
   126C 00                 5400 	.db #0x00
   126D 00                 5401 	.db #0x00
   126E 00                 5402 	.db #0x00
   126F 00                 5403 	.db #0x00
   1270 00                 5404 	.db #0x00
   1271 00                 5405 	.db #0x00
   1272 00                 5406 	.db #0x00
   1273 0F                 5407 	.db #0x0F
   1274 0F                 5408 	.db #0x0F
   1275 0F                 5409 	.db #0x0F
   1276 0F                 5410 	.db #0x0F
   1277 0F                 5411 	.db #0x0F
   1278 0F                 5412 	.db #0x0F
   1279 00                 5413 	.db #0x00
   127A 00                 5414 	.db #0x00
   127B 00                 5415 	.db #0x00
   127C 00                 5416 	.db #0x00
   127D 00                 5417 	.db #0x00
   127E 00                 5418 	.db #0x00
   127F 00                 5419 	.db #0x00
   1280 00                 5420 	.db #0x00
   1281 00                 5421 	.db #0x00
   1282 00                 5422 	.db #0x00
   1283 80                 5423 	.db #0x80
   1284 80                 5424 	.db #0x80
   1285 80                 5425 	.db #0x80
   1286 80                 5426 	.db #0x80
   1287 80                 5427 	.db #0x80
   1288 80                 5428 	.db #0x80
   1289 00                 5429 	.db #0x00
   128A 00                 5430 	.db #0x00
   128B 00                 5431 	.db #0x00
   128C 00                 5432 	.db #0x00
   128D 00                 5433 	.db #0x00
   128E 00                 5434 	.db #0x00
   128F 00                 5435 	.db #0x00
   1290 00                 5436 	.db #0x00
   1291 00                 5437 	.db #0x00
   1292 00                 5438 	.db #0x00
   1293 01                 5439 	.db #0x01
   1294 01                 5440 	.db #0x01
   1295 01                 5441 	.db #0x01
   1296 01                 5442 	.db #0x01
   1297 01                 5443 	.db #0x01
   1298 01                 5444 	.db #0x01
   1299 00                 5445 	.db #0x00
   129A 00                 5446 	.db #0x00
   129B 00                 5447 	.db #0x00
   129C 00                 5448 	.db #0x00
   129D 00                 5449 	.db #0x00
   129E 00                 5450 	.db #0x00
   129F 00                 5451 	.db #0x00
   12A0 00                 5452 	.db #0x00
   12A1 00                 5453 	.db #0x00
   12A2 00                 5454 	.db #0x00
   12A3 F0                 5455 	.db #0xF0
   12A4 F0                 5456 	.db #0xF0
   12A5 F0                 5457 	.db #0xF0
   12A6 F0                 5458 	.db #0xF0
   12A7 F0                 5459 	.db #0xF0
   12A8 F0                 5460 	.db #0xF0
   12A9 00                 5461 	.db #0x00
   12AA 00                 5462 	.db #0x00
   12AB 00                 5463 	.db #0x00
   12AC 00                 5464 	.db #0x00
   12AD 00                 5465 	.db #0x00
   12AE 00                 5466 	.db #0x00
   12AF 00                 5467 	.db #0x00
   12B0 00                 5468 	.db #0x00
   12B1 00                 5469 	.db #0x00
   12B2 00                 5470 	.db #0x00
   12B3 00                 5471 	.db #0x00
   12B4 00                 5472 	.db #0x00
   12B5 FF                 5473 	.db #0xFF
   12B6 FF                 5474 	.db #0xFF
   12B7 FF                 5475 	.db #0xFF
   12B8 FF                 5476 	.db #0xFF
   12B9 00                 5477 	.db #0x00
   12BA 00                 5478 	.db #0x00
   12BB 00                 5479 	.db #0x00
   12BC 00                 5480 	.db #0x00
   12BD 00                 5481 	.db #0x00
   12BE 00                 5482 	.db #0x00
   12BF 00                 5483 	.db #0x00
   12C0 00                 5484 	.db #0x00
   12C1 00                 5485 	.db #0x00
   12C2 00                 5486 	.db #0x00
   12C3 00                 5487 	.db #0x00
   12C4 00                 5488 	.db #0x00
   12C5 F8                 5489 	.db #0xF8
   12C6 F8                 5490 	.db #0xF8
   12C7 F8                 5491 	.db #0xF8
   12C8 F8                 5492 	.db #0xF8
   12C9 00                 5493 	.db #0x00
   12CA 00                 5494 	.db #0x00
   12CB 00                 5495 	.db #0x00
   12CC 00                 5496 	.db #0x00
   12CD 00                 5497 	.db #0x00
   12CE 00                 5498 	.db #0x00
   12CF 00                 5499 	.db #0x00
   12D0 00                 5500 	.db #0x00
   12D1 00                 5501 	.db #0x00
   12D2 00                 5502 	.db #0x00
   12D3 00                 5503 	.db #0x00
   12D4 00                 5504 	.db #0x00
   12D5 1F                 5505 	.db #0x1F
   12D6 1F                 5506 	.db #0x1F
   12D7 1F                 5507 	.db #0x1F
   12D8 1F                 5508 	.db #0x1F
   12D9 FF                 5509 	.db #0xFF
   12DA FF                 5510 	.db #0xFF
   12DB FF                 5511 	.db #0xFF
   12DC FF                 5512 	.db #0xFF
   12DD FF                 5513 	.db #0xFF
   12DE FF                 5514 	.db #0xFF
   12DF FF                 5515 	.db #0xFF
   12E0 FF                 5516 	.db #0xFF
   12E1 FF                 5517 	.db #0xFF
   12E2 FF                 5518 	.db #0xFF
   12E3 FE                 5519 	.db #0xFE
   12E4 FE                 5520 	.db #0xFE
   12E5 FC                 5521 	.db #0xFC
   12E6 FC                 5522 	.db #0xFC
   12E7 F9                 5523 	.db #0xF9
   12E8 F9                 5524 	.db #0xF9
   12E9 FF                 5525 	.db #0xFF
   12EA FF                 5526 	.db #0xFF
   12EB FE                 5527 	.db #0xFE
   12EC FE                 5528 	.db #0xFE
   12ED F1                 5529 	.db #0xF1
   12EE F1                 5530 	.db #0xF1
   12EF 87                 5531 	.db #0x87
   12F0 87                 5532 	.db #0x87
   12F1 3F                 5533 	.db #0x3F
   12F2 3F                 5534 	.db #0x3F
   12F3 7F                 5535 	.db #0x7F
   12F4 7F                 5536 	.db #0x7F
   12F5 FF                 5537 	.db #0xFF
   12F6 FF                 5538 	.db #0xFF
   12F7 FF                 5539 	.db #0xFF
   12F8 FF                 5540 	.db #0xFF
   12F9 E3                 5541 	.db #0xE3
   12FA E3                 5542 	.db #0xE3
   12FB 08                 5543 	.db #0x08
   12FC 08                 5544 	.db #0x08
   12FD FF                 5545 	.db #0xFF
   12FE FF                 5546 	.db #0xFF
   12FF FF                 5547 	.db #0xFF
   1300 FF                 5548 	.db #0xFF
   1301 FF                 5549 	.db #0xFF
   1302 FF                 5550 	.db #0xFF
   1303 FF                 5551 	.db #0xFF
   1304 FF                 5552 	.db #0xFF
   1305 FF                 5553 	.db #0xFF
   1306 FF                 5554 	.db #0xFF
   1307 FF                 5555 	.db #0xFF
   1308 FF                 5556 	.db #0xFF
   1309 F0                 5557 	.db #0xF0
   130A F0                 5558 	.db #0xF0
   130B F0                 5559 	.db #0xF0
   130C F0                 5560 	.db #0xF0
   130D F0                 5561 	.db #0xF0
   130E F0                 5562 	.db #0xF0
   130F F0                 5563 	.db #0xF0
   1310 F0                 5564 	.db #0xF0
   1311 F0                 5565 	.db #0xF0
   1312 F0                 5566 	.db #0xF0
   1313 F0                 5567 	.db #0xF0
   1314 F0                 5568 	.db #0xF0
   1315 F0                 5569 	.db #0xF0
   1316 F0                 5570 	.db #0xF0
   1317 F0                 5571 	.db #0xF0
   1318 F0                 5572 	.db #0xF0
   1319 4F                 5573 	.db #0x4F
   131A 4F                 5574 	.db #0x4F
   131B 4F                 5575 	.db #0x4F
   131C 4F                 5576 	.db #0x4F
   131D 4F                 5577 	.db #0x4F
   131E 4F                 5578 	.db #0x4F
   131F 4F                 5579 	.db #0x4F
   1320 4F                 5580 	.db #0x4F
   1321 4F                 5581 	.db #0x4F
   1322 4F                 5582 	.db #0x4F
   1323 47                 5583 	.db #0x47
   1324 47                 5584 	.db #0x47
   1325 47                 5585 	.db #0x47
   1326 47                 5586 	.db #0x47
   1327 47                 5587 	.db #0x47
   1328 47                 5588 	.db #0x47
   1329 F8                 5589 	.db #0xF8
   132A F8                 5590 	.db #0xF8
   132B FE                 5591 	.db #0xFE
   132C FE                 5592 	.db #0xFE
   132D FF                 5593 	.db #0xFF
   132E FF                 5594 	.db #0xFF
   132F FF                 5595 	.db #0xFF
   1330 FF                 5596 	.db #0xFF
   1331 FF                 5597 	.db #0xFF
   1332 FF                 5598 	.db #0xFF
   1333 FF                 5599 	.db #0xFF
   1334 FF                 5600 	.db #0xFF
   1335 FF                 5601 	.db #0xFF
   1336 FF                 5602 	.db #0xFF
   1337 FF                 5603 	.db #0xFF
   1338 FF                 5604 	.db #0xFF
   1339 00                 5605 	.db #0x00
   133A 00                 5606 	.db #0x00
   133B 00                 5607 	.db #0x00
   133C 00                 5608 	.db #0x00
   133D 00                 5609 	.db #0x00
   133E 00                 5610 	.db #0x00
   133F 80                 5611 	.db #0x80
   1340 80                 5612 	.db #0x80
   1341 E0                 5613 	.db #0xE0
   1342 E0                 5614 	.db #0xE0
   1343 F0                 5615 	.db #0xF0
   1344 F0                 5616 	.db #0xF0
   1345 F8                 5617 	.db #0xF8
   1346 F8                 5618 	.db #0xF8
   1347 FC                 5619 	.db #0xFC
   1348 FC                 5620 	.db #0xFC
   1349 00                 5621 	.db #0x00
   134A 00                 5622 	.db #0x00
   134B 00                 5623 	.db #0x00
   134C 00                 5624 	.db #0x00
   134D 00                 5625 	.db #0x00
   134E 00                 5626 	.db #0x00
   134F 00                 5627 	.db #0x00
   1350 00                 5628 	.db #0x00
   1351 3F                 5629 	.db #0x3F
   1352 3F                 5630 	.db #0x3F
   1353 3F                 5631 	.db #0x3F
   1354 3F                 5632 	.db #0x3F
   1355 3F                 5633 	.db #0x3F
   1356 3F                 5634 	.db #0x3F
   1357 3F                 5635 	.db #0x3F
   1358 3F                 5636 	.db #0x3F
   1359 00                 5637 	.db #0x00
   135A 00                 5638 	.db #0x00
   135B 00                 5639 	.db #0x00
   135C 00                 5640 	.db #0x00
   135D 00                 5641 	.db #0x00
   135E 00                 5642 	.db #0x00
   135F 00                 5643 	.db #0x00
   1360 00                 5644 	.db #0x00
   1361 FF                 5645 	.db #0xFF
   1362 FF                 5646 	.db #0xFF
   1363 FF                 5647 	.db #0xFF
   1364 FF                 5648 	.db #0xFF
   1365 FF                 5649 	.db #0xFF
   1366 FF                 5650 	.db #0xFF
   1367 FF                 5651 	.db #0xFF
   1368 FF                 5652 	.db #0xFF
   1369 80                 5653 	.db #0x80
   136A 80                 5654 	.db #0x80
   136B 80                 5655 	.db #0x80
   136C 80                 5656 	.db #0x80
   136D 80                 5657 	.db #0x80
   136E 80                 5658 	.db #0x80
   136F 80                 5659 	.db #0x80
   1370 80                 5660 	.db #0x80
   1371 FF                 5661 	.db #0xFF
   1372 FF                 5662 	.db #0xFF
   1373 FF                 5663 	.db #0xFF
   1374 FF                 5664 	.db #0xFF
   1375 FF                 5665 	.db #0xFF
   1376 FF                 5666 	.db #0xFF
   1377 FF                 5667 	.db #0xFF
   1378 FF                 5668 	.db #0xFF
   1379 00                 5669 	.db #0x00
   137A 00                 5670 	.db #0x00
   137B 00                 5671 	.db #0x00
   137C 00                 5672 	.db #0x00
   137D 00                 5673 	.db #0x00
   137E 00                 5674 	.db #0x00
   137F 00                 5675 	.db #0x00
   1380 00                 5676 	.db #0x00
   1381 FE                 5677 	.db #0xFE
   1382 FE                 5678 	.db #0xFE
   1383 FE                 5679 	.db #0xFE
   1384 FE                 5680 	.db #0xFE
   1385 FE                 5681 	.db #0xFE
   1386 FE                 5682 	.db #0xFE
   1387 FE                 5683 	.db #0xFE
   1388 FE                 5684 	.db #0xFE
   1389 03                 5685 	.db #0x03
   138A 03                 5686 	.db #0x03
   138B 03                 5687 	.db #0x03
   138C 03                 5688 	.db #0x03
   138D 03                 5689 	.db #0x03
   138E 03                 5690 	.db #0x03
   138F 03                 5691 	.db #0x03
   1390 03                 5692 	.db #0x03
   1391 03                 5693 	.db #0x03
   1392 03                 5694 	.db #0x03
   1393 03                 5695 	.db #0x03
   1394 03                 5696 	.db #0x03
   1395 03                 5697 	.db #0x03
   1396 03                 5698 	.db #0x03
   1397 03                 5699 	.db #0x03
   1398 03                 5700 	.db #0x03
   1399 FF                 5701 	.db #0xFF
   139A FF                 5702 	.db #0xFF
   139B FF                 5703 	.db #0xFF
   139C FF                 5704 	.db #0xFF
   139D FF                 5705 	.db #0xFF
   139E FF                 5706 	.db #0xFF
   139F FE                 5707 	.db #0xFE
   13A0 FE                 5708 	.db #0xFE
   13A1 FC                 5709 	.db #0xFC
   13A2 FC                 5710 	.db #0xFC
   13A3 F9                 5711 	.db #0xF9
   13A4 F9                 5712 	.db #0xF9
   13A5 F3                 5713 	.db #0xF3
   13A6 F3                 5714 	.db #0xF3
   13A7 F7                 5715 	.db #0xF7
   13A8 F7                 5716 	.db #0xF7
   13A9 FC                 5717 	.db #0xFC
   13AA FC                 5718 	.db #0xFC
   13AB E3                 5719 	.db #0xE3
   13AC E3                 5720 	.db #0xE3
   13AD 0F                 5721 	.db #0x0F
   13AE 0F                 5722 	.db #0x0F
   13AF 7F                 5723 	.db #0x7F
   13B0 7F                 5724 	.db #0x7F
   13B1 FF                 5725 	.db #0xFF
   13B2 FF                 5726 	.db #0xFF
   13B3 FF                 5727 	.db #0xFF
   13B4 FF                 5728 	.db #0xFF
   13B5 FF                 5729 	.db #0xFF
   13B6 FF                 5730 	.db #0xFF
   13B7 FF                 5731 	.db #0xFF
   13B8 FF                 5732 	.db #0xFF
   13B9 11                 5733 	.db #0x11
   13BA 11                 5734 	.db #0x11
   13BB FF                 5735 	.db #0xFF
   13BC FF                 5736 	.db #0xFF
   13BD FF                 5737 	.db #0xFF
   13BE FF                 5738 	.db #0xFF
   13BF FF                 5739 	.db #0xFF
   13C0 FF                 5740 	.db #0xFF
   13C1 FF                 5741 	.db #0xFF
   13C2 FF                 5742 	.db #0xFF
   13C3 FF                 5743 	.db #0xFF
   13C4 FF                 5744 	.db #0xFF
   13C5 FF                 5745 	.db #0xFF
   13C6 FF                 5746 	.db #0xFF
   13C7 FF                 5747 	.db #0xFF
   13C8 FF                 5748 	.db #0xFF
   13C9 E0                 5749 	.db #0xE0
   13CA E0                 5750 	.db #0xE0
   13CB E0                 5751 	.db #0xE0
   13CC E0                 5752 	.db #0xE0
   13CD E0                 5753 	.db #0xE0
   13CE E0                 5754 	.db #0xE0
   13CF E0                 5755 	.db #0xE0
   13D0 E0                 5756 	.db #0xE0
   13D1 E0                 5757 	.db #0xE0
   13D2 E0                 5758 	.db #0xE0
   13D3 E0                 5759 	.db #0xE0
   13D4 E0                 5760 	.db #0xE0
   13D5 E0                 5761 	.db #0xE0
   13D6 E0                 5762 	.db #0xE0
   13D7 E0                 5763 	.db #0xE0
   13D8 E0                 5764 	.db #0xE0
   13D9 7F                 5765 	.db #0x7F
   13DA 7F                 5766 	.db #0x7F
   13DB 7F                 5767 	.db #0x7F
   13DC 7F                 5768 	.db #0x7F
   13DD 7F                 5769 	.db #0x7F
   13DE 7F                 5770 	.db #0x7F
   13DF 7F                 5771 	.db #0x7F
   13E0 7F                 5772 	.db #0x7F
   13E1 7F                 5773 	.db #0x7F
   13E2 7F                 5774 	.db #0x7F
   13E3 7F                 5775 	.db #0x7F
   13E4 7F                 5776 	.db #0x7F
   13E5 7E                 5777 	.db #0x7E
   13E6 7E                 5778 	.db #0x7E
   13E7 7E                 5779 	.db #0x7E
   13E8 7E                 5780 	.db #0x7E
   13E9 FF                 5781 	.db #0xFF
   13EA FF                 5782 	.db #0xFF
   13EB FC                 5783 	.db #0xFC
   13EC FC                 5784 	.db #0xFC
   13ED E1                 5785 	.db #0xE1
   13EE E1                 5786 	.db #0xE1
   13EF CF                 5787 	.db #0xCF
   13F0 CF                 5788 	.db #0xCF
   13F1 9F                 5789 	.db #0x9F
   13F2 9F                 5790 	.db #0x9F
   13F3 3F                 5791 	.db #0x3F
   13F4 3F                 5792 	.db #0x3F
   13F5 7F                 5793 	.db #0x7F
   13F6 7F                 5794 	.db #0x7F
   13F7 FF                 5795 	.db #0xFF
   13F8 FF                 5796 	.db #0xFF
   13F9 82                 5797 	.db #0x82
   13FA 82                 5798 	.db #0x82
   13FB 7F                 5799 	.db #0x7F
   13FC 7F                 5800 	.db #0x7F
   13FD FF                 5801 	.db #0xFF
   13FE FF                 5802 	.db #0xFF
   13FF FF                 5803 	.db #0xFF
   1400 FF                 5804 	.db #0xFF
   1401 FF                 5805 	.db #0xFF
   1402 FF                 5806 	.db #0xFF
   1403 FF                 5807 	.db #0xFF
   1404 FF                 5808 	.db #0xFF
   1405 FF                 5809 	.db #0xFF
   1406 FF                 5810 	.db #0xFF
   1407 FF                 5811 	.db #0xFF
   1408 FF                 5812 	.db #0xFF
   1409 3C                 5813 	.db #0x3C
   140A 3C                 5814 	.db #0x3C
   140B FC                 5815 	.db #0xFC
   140C FC                 5816 	.db #0xFC
   140D FC                 5817 	.db #0xFC
   140E FC                 5818 	.db #0xFC
   140F FC                 5819 	.db #0xFC
   1410 FC                 5820 	.db #0xFC
   1411 FC                 5821 	.db #0xFC
   1412 FC                 5822 	.db #0xFC
   1413 FC                 5823 	.db #0xFC
   1414 FC                 5824 	.db #0xFC
   1415 FC                 5825 	.db #0xFC
   1416 FC                 5826 	.db #0xFC
   1417 FC                 5827 	.db #0xFC
   1418 FC                 5828 	.db #0xFC
   1419 3F                 5829 	.db #0x3F
   141A 3F                 5830 	.db #0x3F
   141B 3F                 5831 	.db #0x3F
   141C 3F                 5832 	.db #0x3F
   141D 3F                 5833 	.db #0x3F
   141E 3F                 5834 	.db #0x3F
   141F 3F                 5835 	.db #0x3F
   1420 3F                 5836 	.db #0x3F
   1421 3F                 5837 	.db #0x3F
   1422 3F                 5838 	.db #0x3F
   1423 3F                 5839 	.db #0x3F
   1424 3F                 5840 	.db #0x3F
   1425 3F                 5841 	.db #0x3F
   1426 3F                 5842 	.db #0x3F
   1427 3F                 5843 	.db #0x3F
   1428 3F                 5844 	.db #0x3F
   1429 FF                 5845 	.db #0xFF
   142A FF                 5846 	.db #0xFF
   142B FF                 5847 	.db #0xFF
   142C FF                 5848 	.db #0xFF
   142D FE                 5849 	.db #0xFE
   142E FE                 5850 	.db #0xFE
   142F F0                 5851 	.db #0xF0
   1430 F0                 5852 	.db #0xF0
   1431 E7                 5853 	.db #0xE7
   1432 E7                 5854 	.db #0xE7
   1433 CF                 5855 	.db #0xCF
   1434 CF                 5856 	.db #0xCF
   1435 9F                 5857 	.db #0x9F
   1436 9F                 5858 	.db #0x9F
   1437 3F                 5859 	.db #0x3F
   1438 3F                 5860 	.db #0x3F
   1439 FC                 5861 	.db #0xFC
   143A FC                 5862 	.db #0xFC
   143B C1                 5863 	.db #0xC1
   143C C1                 5864 	.db #0xC1
   143D 3F                 5865 	.db #0x3F
   143E 3F                 5866 	.db #0x3F
   143F FF                 5867 	.db #0xFF
   1440 FF                 5868 	.db #0xFF
   1441 FF                 5869 	.db #0xFF
   1442 FF                 5870 	.db #0xFF
   1443 FF                 5871 	.db #0xFF
   1444 FF                 5872 	.db #0xFF
   1445 FF                 5873 	.db #0xFF
   1446 FF                 5874 	.db #0xFF
   1447 FF                 5875 	.db #0xFF
   1448 FF                 5876 	.db #0xFF
   1449 7E                 5877 	.db #0x7E
   144A 7E                 5878 	.db #0x7E
   144B 1E                 5879 	.db #0x1E
   144C 1E                 5880 	.db #0x1E
   144D FE                 5881 	.db #0xFE
   144E FE                 5882 	.db #0xFE
   144F FE                 5883 	.db #0xFE
   1450 FE                 5884 	.db #0xFE
   1451 FE                 5885 	.db #0xFE
   1452 FE                 5886 	.db #0xFE
   1453 FE                 5887 	.db #0xFE
   1454 FE                 5888 	.db #0xFE
   1455 FE                 5889 	.db #0xFE
   1456 FE                 5890 	.db #0xFE
   1457 FE                 5891 	.db #0xFE
   1458 FE                 5892 	.db #0xFE
   1459 07                 5893 	.db #0x07
   145A 07                 5894 	.db #0x07
   145B 07                 5895 	.db #0x07
   145C 07                 5896 	.db #0x07
   145D 07                 5897 	.db #0x07
   145E 07                 5898 	.db #0x07
   145F 07                 5899 	.db #0x07
   1460 07                 5900 	.db #0x07
   1461 07                 5901 	.db #0x07
   1462 07                 5902 	.db #0x07
   1463 07                 5903 	.db #0x07
   1464 07                 5904 	.db #0x07
   1465 07                 5905 	.db #0x07
   1466 07                 5906 	.db #0x07
   1467 07                 5907 	.db #0x07
   1468 07                 5908 	.db #0x07
   1469 FF                 5909 	.db #0xFF
   146A FF                 5910 	.db #0xFF
   146B FF                 5911 	.db #0xFF
   146C FF                 5912 	.db #0xFF
   146D FF                 5913 	.db #0xFF
   146E FF                 5914 	.db #0xFF
   146F FE                 5915 	.db #0xFE
   1470 FE                 5916 	.db #0xFE
   1471 FC                 5917 	.db #0xFC
   1472 FC                 5918 	.db #0xFC
   1473 F9                 5919 	.db #0xF9
   1474 F9                 5920 	.db #0xF9
   1475 F3                 5921 	.db #0xF3
   1476 F3                 5922 	.db #0xF3
   1477 E7                 5923 	.db #0xE7
   1478 E7                 5924 	.db #0xE7
   1479 FF                 5925 	.db #0xFF
   147A FF                 5926 	.db #0xFF
   147B F8                 5927 	.db #0xF8
   147C F8                 5928 	.db #0xF8
   147D C7                 5929 	.db #0xC7
   147E C7                 5930 	.db #0xC7
   147F 1F                 5931 	.db #0x1F
   1480 1F                 5932 	.db #0x1F
   1481 FF                 5933 	.db #0xFF
   1482 FF                 5934 	.db #0xFF
   1483 FF                 5935 	.db #0xFF
   1484 FF                 5936 	.db #0xFF
   1485 FF                 5937 	.db #0xFF
   1486 FF                 5938 	.db #0xFF
   1487 FF                 5939 	.db #0xFF
   1488 FF                 5940 	.db #0xFF
   1489 8F                 5941 	.db #0x8F
   148A 8F                 5942 	.db #0x8F
   148B 23                 5943 	.db #0x23
   148C 23                 5944 	.db #0x23
   148D FF                 5945 	.db #0xFF
   148E FF                 5946 	.db #0xFF
   148F FF                 5947 	.db #0xFF
   1490 FF                 5948 	.db #0xFF
   1491 FF                 5949 	.db #0xFF
   1492 FF                 5950 	.db #0xFF
   1493 FF                 5951 	.db #0xFF
   1494 FF                 5952 	.db #0xFF
   1495 FF                 5953 	.db #0xFF
   1496 FF                 5954 	.db #0xFF
   1497 FF                 5955 	.db #0xFF
   1498 FF                 5956 	.db #0xFF
   1499 C0                 5957 	.db #0xC0
   149A C0                 5958 	.db #0xC0
   149B C0                 5959 	.db #0xC0
   149C C0                 5960 	.db #0xC0
   149D C0                 5961 	.db #0xC0
   149E C0                 5962 	.db #0xC0
   149F C0                 5963 	.db #0xC0
   14A0 C0                 5964 	.db #0xC0
   14A1 C0                 5965 	.db #0xC0
   14A2 C0                 5966 	.db #0xC0
   14A3 C0                 5967 	.db #0xC0
   14A4 C0                 5968 	.db #0xC0
   14A5 C0                 5969 	.db #0xC0
   14A6 C0                 5970 	.db #0xC0
   14A7 C0                 5971 	.db #0xC0
   14A8 C0                 5972 	.db #0xC0
   14A9 0F                 5973 	.db #0x0F
   14AA 0F                 5974 	.db #0x0F
   14AB 0F                 5975 	.db #0x0F
   14AC 0F                 5976 	.db #0x0F
   14AD 0F                 5977 	.db #0x0F
   14AE 0F                 5978 	.db #0x0F
   14AF 0F                 5979 	.db #0x0F
   14B0 0F                 5980 	.db #0x0F
   14B1 0F                 5981 	.db #0x0F
   14B2 0F                 5982 	.db #0x0F
   14B3 0F                 5983 	.db #0x0F
   14B4 0F                 5984 	.db #0x0F
   14B5 0F                 5985 	.db #0x0F
   14B6 0F                 5986 	.db #0x0F
   14B7 0F                 5987 	.db #0x0F
   14B8 0F                 5988 	.db #0x0F
   14B9 FF                 5989 	.db #0xFF
   14BA FF                 5990 	.db #0xFF
   14BB FF                 5991 	.db #0xFF
   14BC FF                 5992 	.db #0xFF
   14BD FF                 5993 	.db #0xFF
   14BE FF                 5994 	.db #0xFF
   14BF FF                 5995 	.db #0xFF
   14C0 FF                 5996 	.db #0xFF
   14C1 FF                 5997 	.db #0xFF
   14C2 FF                 5998 	.db #0xFF
   14C3 FC                 5999 	.db #0xFC
   14C4 FC                 6000 	.db #0xFC
   14C5 F9                 6001 	.db #0xF9
   14C6 F9                 6002 	.db #0xF9
   14C7 F3                 6003 	.db #0xF3
   14C8 F3                 6004 	.db #0xF3
   14C9 FF                 6005 	.db #0xFF
   14CA FF                 6006 	.db #0xFF
   14CB FF                 6007 	.db #0xFF
   14CC FF                 6008 	.db #0xFF
   14CD FF                 6009 	.db #0xFF
   14CE FF                 6010 	.db #0xFF
   14CF F0                 6011 	.db #0xF0
   14D0 F0                 6012 	.db #0xF0
   14D1 8F                 6013 	.db #0x8F
   14D2 8F                 6014 	.db #0x8F
   14D3 3F                 6015 	.db #0x3F
   14D4 3F                 6016 	.db #0x3F
   14D5 FF                 6017 	.db #0xFF
   14D6 FF                 6018 	.db #0xFF
   14D7 FF                 6019 	.db #0xFF
   14D8 FF                 6020 	.db #0xFF
   14D9 FF                 6021 	.db #0xFF
   14DA FF                 6022 	.db #0xFF
   14DB FF                 6023 	.db #0xFF
   14DC FF                 6024 	.db #0xFF
   14DD 1F                 6025 	.db #0x1F
   14DE 1F                 6026 	.db #0x1F
   14DF 47                 6027 	.db #0x47
   14E0 47                 6028 	.db #0x47
   14E1 FF                 6029 	.db #0xFF
   14E2 FF                 6030 	.db #0xFF
   14E3 FF                 6031 	.db #0xFF
   14E4 FF                 6032 	.db #0xFF
   14E5 FF                 6033 	.db #0xFF
   14E6 FF                 6034 	.db #0xFF
   14E7 FF                 6035 	.db #0xFF
   14E8 FF                 6036 	.db #0xFF
   14E9 80                 6037 	.db #0x80
   14EA 80                 6038 	.db #0x80
   14EB 80                 6039 	.db #0x80
   14EC 80                 6040 	.db #0x80
   14ED 80                 6041 	.db #0x80
   14EE 80                 6042 	.db #0x80
   14EF 80                 6043 	.db #0x80
   14F0 80                 6044 	.db #0x80
   14F1 80                 6045 	.db #0x80
   14F2 80                 6046 	.db #0x80
   14F3 80                 6047 	.db #0x80
   14F4 80                 6048 	.db #0x80
   14F5 80                 6049 	.db #0x80
   14F6 80                 6050 	.db #0x80
   14F7 80                 6051 	.db #0x80
   14F8 80                 6052 	.db #0x80
   14F9 FF                 6053 	.db #0xFF
   14FA FF                 6054 	.db #0xFF
   14FB FF                 6055 	.db #0xFF
   14FC FF                 6056 	.db #0xFF
   14FD FF                 6057 	.db #0xFF
   14FE FF                 6058 	.db #0xFF
   14FF FF                 6059 	.db #0xFF
   1500 FF                 6060 	.db #0xFF
   1501 FF                 6061 	.db #0xFF
   1502 FF                 6062 	.db #0xFF
   1503 FF                 6063 	.db #0xFF
   1504 FF                 6064 	.db #0xFF
   1505 FF                 6065 	.db #0xFF
   1506 FF                 6066 	.db #0xFF
   1507 FE                 6067 	.db #0xFE
   1508 FE                 6068 	.db #0xFE
   1509 FF                 6069 	.db #0xFF
   150A FF                 6070 	.db #0xFF
   150B FF                 6071 	.db #0xFF
   150C FF                 6072 	.db #0xFF
   150D FF                 6073 	.db #0xFF
   150E FF                 6074 	.db #0xFF
   150F FE                 6075 	.db #0xFE
   1510 FE                 6076 	.db #0xFE
   1511 F1                 6077 	.db #0xF1
   1512 F1                 6078 	.db #0xF1
   1513 87                 6079 	.db #0x87
   1514 87                 6080 	.db #0x87
   1515 3F                 6081 	.db #0x3F
   1516 3F                 6082 	.db #0x3F
   1517 7F                 6083 	.db #0x7F
   1518 7F                 6084 	.db #0x7F
   1519 FF                 6085 	.db #0xFF
   151A FF                 6086 	.db #0xFF
   151B FF                 6087 	.db #0xFF
   151C FF                 6088 	.db #0xFF
   151D E3                 6089 	.db #0xE3
   151E E3                 6090 	.db #0xE3
   151F 08                 6091 	.db #0x08
   1520 08                 6092 	.db #0x08
   1521 FF                 6093 	.db #0xFF
   1522 FF                 6094 	.db #0xFF
   1523 FF                 6095 	.db #0xFF
   1524 FF                 6096 	.db #0xFF
   1525 FF                 6097 	.db #0xFF
   1526 FF                 6098 	.db #0xFF
   1527 FF                 6099 	.db #0xFF
   1528 FF                 6100 	.db #0xFF
   1529 FF                 6101 	.db #0xFF
   152A FF                 6102 	.db #0xFF
   152B FF                 6103 	.db #0xFF
   152C FF                 6104 	.db #0xFF
   152D FF                 6105 	.db #0xFF
   152E FF                 6106 	.db #0xFF
   152F FF                 6107 	.db #0xFF
   1530 FF                 6108 	.db #0xFF
   1531 FF                 6109 	.db #0xFF
   1532 FF                 6110 	.db #0xFF
   1533 F8                 6111 	.db #0xF8
   1534 F8                 6112 	.db #0xF8
   1535 C3                 6113 	.db #0xC3
   1536 C3                 6114 	.db #0xC3
   1537 9F                 6115 	.db #0x9F
   1538 9F                 6116 	.db #0x9F
   1539 FF                 6117 	.db #0xFF
   153A FF                 6118 	.db #0xFF
   153B FF                 6119 	.db #0xFF
   153C FF                 6120 	.db #0xFF
   153D FF                 6121 	.db #0xFF
   153E FF                 6122 	.db #0xFF
   153F F1                 6123 	.db #0xF1
   1540 F1                 6124 	.db #0xF1
   1541 04                 6125 	.db #0x04
   1542 04                 6126 	.db #0x04
   1543 FF                 6127 	.db #0xFF
   1544 FF                 6128 	.db #0xFF
   1545 FF                 6129 	.db #0xFF
   1546 FF                 6130 	.db #0xFF
   1547 FF                 6131 	.db #0xFF
   1548 FF                 6132 	.db #0xFF
   1549 F8                 6133 	.db #0xF8
   154A F8                 6134 	.db #0xF8
   154B F8                 6135 	.db #0xF8
   154C F8                 6136 	.db #0xF8
   154D F8                 6137 	.db #0xF8
   154E F8                 6138 	.db #0xF8
   154F F8                 6139 	.db #0xF8
   1550 F8                 6140 	.db #0xF8
   1551 78                 6141 	.db #0x78
   1552 78                 6142 	.db #0x78
   1553 F8                 6143 	.db #0xF8
   1554 F8                 6144 	.db #0xF8
   1555 F8                 6145 	.db #0xF8
   1556 F8                 6146 	.db #0xF8
   1557 F8                 6147 	.db #0xF8
   1558 F8                 6148 	.db #0xF8
   1559 1F                 6149 	.db #0x1F
   155A 1F                 6150 	.db #0x1F
   155B 1F                 6151 	.db #0x1F
   155C 1F                 6152 	.db #0x1F
   155D 1F                 6153 	.db #0x1F
   155E 1F                 6154 	.db #0x1F
   155F 1F                 6155 	.db #0x1F
   1560 1F                 6156 	.db #0x1F
   1561 1F                 6157 	.db #0x1F
   1562 1F                 6158 	.db #0x1F
   1563 1F                 6159 	.db #0x1F
   1564 1F                 6160 	.db #0x1F
   1565 1F                 6161 	.db #0x1F
   1566 1F                 6162 	.db #0x1F
   1567 1F                 6163 	.db #0x1F
   1568 1F                 6164 	.db #0x1F
   1569 FF                 6165 	.db #0xFF
   156A FF                 6166 	.db #0xFF
   156B FF                 6167 	.db #0xFF
   156C FF                 6168 	.db #0xFF
   156D FF                 6169 	.db #0xFF
   156E FF                 6170 	.db #0xFF
   156F FF                 6171 	.db #0xFF
   1570 FF                 6172 	.db #0xFF
   1571 FF                 6173 	.db #0xFF
   1572 FF                 6174 	.db #0xFF
   1573 FF                 6175 	.db #0xFF
   1574 FF                 6176 	.db #0xFF
   1575 F8                 6177 	.db #0xF8
   1576 F8                 6178 	.db #0xF8
   1577 F3                 6179 	.db #0xF3
   1578 F3                 6180 	.db #0xF3
   1579 FF                 6181 	.db #0xFF
   157A FF                 6182 	.db #0xFF
   157B FF                 6183 	.db #0xFF
   157C FF                 6184 	.db #0xFF
   157D FF                 6185 	.db #0xFF
   157E FF                 6186 	.db #0xFF
   157F FE                 6187 	.db #0xFE
   1580 FE                 6188 	.db #0xFE
   1581 E0                 6189 	.db #0xE0
   1582 E0                 6190 	.db #0xE0
   1583 1F                 6191 	.db #0x1F
   1584 1F                 6192 	.db #0x1F
   1585 7F                 6193 	.db #0x7F
   1586 7F                 6194 	.db #0x7F
   1587 FF                 6195 	.db #0xFF
   1588 FF                 6196 	.db #0xFF
   1589 FF                 6197 	.db #0xFF
   158A FF                 6198 	.db #0xFF
   158B FF                 6199 	.db #0xFF
   158C FF                 6200 	.db #0xFF
   158D FF                 6201 	.db #0xFF
   158E FF                 6202 	.db #0xFF
   158F 3F                 6203 	.db #0x3F
   1590 3F                 6204 	.db #0x3F
   1591 8F                 6205 	.db #0x8F
   1592 8F                 6206 	.db #0x8F
   1593 FF                 6207 	.db #0xFF
   1594 FF                 6208 	.db #0xFF
   1595 FF                 6209 	.db #0xFF
   1596 FF                 6210 	.db #0xFF
   1597 FF                 6211 	.db #0xFF
   1598 FF                 6212 	.db #0xFF
   1599 FB                 6213 	.db #0xFB
   159A FB                 6214 	.db #0xFB
   159B FF                 6215 	.db #0xFF
   159C FF                 6216 	.db #0xFF
   159D FF                 6217 	.db #0xFF
   159E FF                 6218 	.db #0xFF
   159F FF                 6219 	.db #0xFF
   15A0 FF                 6220 	.db #0xFF
   15A1 FF                 6221 	.db #0xFF
   15A2 FF                 6222 	.db #0xFF
   15A3 FF                 6223 	.db #0xFF
   15A4 FF                 6224 	.db #0xFF
   15A5 FF                 6225 	.db #0xFF
   15A6 FF                 6226 	.db #0xFF
   15A7 FF                 6227 	.db #0xFF
   15A8 FF                 6228 	.db #0xFF
   15A9 47                 6229 	.db #0x47
   15AA 47                 6230 	.db #0x47
   15AB 47                 6231 	.db #0x47
   15AC 47                 6232 	.db #0x47
   15AD 4F                 6233 	.db #0x4F
   15AE 4F                 6234 	.db #0x4F
   15AF 4A                 6235 	.db #0x4A
   15B0 4A                 6236 	.db #0x4A
   15B1 4A                 6237 	.db #0x4A
   15B2 4A                 6238 	.db #0x4A
   15B3 40                 6239 	.db #0x40
   15B4 40                 6240 	.db #0x40
   15B5 40                 6241 	.db #0x40
   15B6 40                 6242 	.db #0x40
   15B7 40                 6243 	.db #0x40
   15B8 40                 6244 	.db #0x40
   15B9 FF                 6245 	.db #0xFF
   15BA FF                 6246 	.db #0xFF
   15BB FF                 6247 	.db #0xFF
   15BC FF                 6248 	.db #0xFF
   15BD FF                 6249 	.db #0xFF
   15BE FF                 6250 	.db #0xFF
   15BF 00                 6251 	.db #0x00
   15C0 00                 6252 	.db #0x00
   15C1 00                 6253 	.db #0x00
   15C2 00                 6254 	.db #0x00
   15C3 00                 6255 	.db #0x00
   15C4 00                 6256 	.db #0x00
   15C5 00                 6257 	.db #0x00
   15C6 00                 6258 	.db #0x00
   15C7 00                 6259 	.db #0x00
   15C8 00                 6260 	.db #0x00
   15C9 00                 6261 	.db #0x00
   15CA 00                 6262 	.db #0x00
   15CB 07                 6263 	.db #0x07
   15CC 07                 6264 	.db #0x07
   15CD FC                 6265 	.db #0xFC
   15CE FC                 6266 	.db #0xFC
   15CF 00                 6267 	.db #0x00
   15D0 00                 6268 	.db #0x00
   15D1 00                 6269 	.db #0x00
   15D2 00                 6270 	.db #0x00
   15D3 00                 6271 	.db #0x00
   15D4 00                 6272 	.db #0x00
   15D5 00                 6273 	.db #0x00
   15D6 00                 6274 	.db #0x00
   15D7 00                 6275 	.db #0x00
   15D8 00                 6276 	.db #0x00
   15D9 00                 6277 	.db #0x00
   15DA 00                 6278 	.db #0x00
   15DB F0                 6279 	.db #0xF0
   15DC F0                 6280 	.db #0xF0
   15DD 1E                 6281 	.db #0x1E
   15DE 1E                 6282 	.db #0x1E
   15DF 01                 6283 	.db #0x01
   15E0 01                 6284 	.db #0x01
   15E1 00                 6285 	.db #0x00
   15E2 00                 6286 	.db #0x00
   15E3 00                 6287 	.db #0x00
   15E4 00                 6288 	.db #0x00
   15E5 00                 6289 	.db #0x00
   15E6 00                 6290 	.db #0x00
   15E7 00                 6291 	.db #0x00
   15E8 00                 6292 	.db #0x00
   15E9 00                 6293 	.db #0x00
   15EA 00                 6294 	.db #0x00
   15EB 00                 6295 	.db #0x00
   15EC 00                 6296 	.db #0x00
   15ED 00                 6297 	.db #0x00
   15EE 00                 6298 	.db #0x00
   15EF 80                 6299 	.db #0x80
   15F0 80                 6300 	.db #0x80
   15F1 C0                 6301 	.db #0xC0
   15F2 C0                 6302 	.db #0xC0
   15F3 70                 6303 	.db #0x70
   15F4 70                 6304 	.db #0x70
   15F5 18                 6305 	.db #0x18
   15F6 18                 6306 	.db #0x18
   15F7 04                 6307 	.db #0x04
   15F8 04                 6308 	.db #0x04
   15F9 FF                 6309 	.db #0xFF
   15FA FF                 6310 	.db #0xFF
   15FB FF                 6311 	.db #0xFF
   15FC FF                 6312 	.db #0xFF
   15FD FF                 6313 	.db #0xFF
   15FE FF                 6314 	.db #0xFF
   15FF FF                 6315 	.db #0xFF
   1600 FF                 6316 	.db #0xFF
   1601 FF                 6317 	.db #0xFF
   1602 80                 6318 	.db #0x80
   1603 FF                 6319 	.db #0xFF
   1604 80                 6320 	.db #0x80
   1605 FF                 6321 	.db #0xFF
   1606 80                 6322 	.db #0x80
   1607 FF                 6323 	.db #0xFF
   1608 80                 6324 	.db #0x80
   1609 FF                 6325 	.db #0xFF
   160A FF                 6326 	.db #0xFF
   160B FF                 6327 	.db #0xFF
   160C FF                 6328 	.db #0xFF
   160D FF                 6329 	.db #0xFF
   160E FF                 6330 	.db #0xFF
   160F FF                 6331 	.db #0xFF
   1610 FF                 6332 	.db #0xFF
   1611 FF                 6333 	.db #0xFF
   1612 00                 6334 	.db #0x00
   1613 FF                 6335 	.db #0xFF
   1614 00                 6336 	.db #0x00
   1615 FF                 6337 	.db #0xFF
   1616 00                 6338 	.db #0x00
   1617 FF                 6339 	.db #0xFF
   1618 00                 6340 	.db #0x00
   1619 FE                 6341 	.db #0xFE
   161A FE                 6342 	.db #0xFE
   161B FE                 6343 	.db #0xFE
   161C FE                 6344 	.db #0xFE
   161D FE                 6345 	.db #0xFE
   161E FE                 6346 	.db #0xFE
   161F FE                 6347 	.db #0xFE
   1620 FE                 6348 	.db #0xFE
   1621 FE                 6349 	.db #0xFE
   1622 FE                 6350 	.db #0xFE
   1623 FE                 6351 	.db #0xFE
   1624 FE                 6352 	.db #0xFE
   1625 FE                 6353 	.db #0xFE
   1626 FE                 6354 	.db #0xFE
   1627 FE                 6355 	.db #0xFE
   1628 FE                 6356 	.db #0xFE
   1629 7F                 6357 	.db #0x7F
   162A 7F                 6358 	.db #0x7F
   162B 7F                 6359 	.db #0x7F
   162C 7F                 6360 	.db #0x7F
   162D 7F                 6361 	.db #0x7F
   162E 7F                 6362 	.db #0x7F
   162F 7F                 6363 	.db #0x7F
   1630 7F                 6364 	.db #0x7F
   1631 7F                 6365 	.db #0x7F
   1632 7F                 6366 	.db #0x7F
   1633 7F                 6367 	.db #0x7F
   1634 7F                 6368 	.db #0x7F
   1635 7F                 6369 	.db #0x7F
   1636 7F                 6370 	.db #0x7F
   1637 7F                 6371 	.db #0x7F
   1638 7F                 6372 	.db #0x7F
   1639 FC                 6373 	.db #0xFC
   163A FC                 6374 	.db #0xFC
   163B FC                 6375 	.db #0xFC
   163C FC                 6376 	.db #0xFC
   163D FC                 6377 	.db #0xFC
   163E FC                 6378 	.db #0xFC
   163F FC                 6379 	.db #0xFC
   1640 FC                 6380 	.db #0xFC
   1641 FC                 6381 	.db #0xFC
   1642 FC                 6382 	.db #0xFC
   1643 FC                 6383 	.db #0xFC
   1644 FC                 6384 	.db #0xFC
   1645 FC                 6385 	.db #0xFC
   1646 FC                 6386 	.db #0xFC
   1647 FC                 6387 	.db #0xFC
   1648 FC                 6388 	.db #0xFC
   1649 7F                 6389 	.db #0x7F
   164A 7F                 6390 	.db #0x7F
   164B FF                 6391 	.db #0xFF
   164C FF                 6392 	.db #0xFF
   164D FF                 6393 	.db #0xFF
   164E FF                 6394 	.db #0xFF
   164F FF                 6395 	.db #0xFF
   1650 FF                 6396 	.db #0xFF
   1651 FF                 6397 	.db #0xFF
   1652 FF                 6398 	.db #0xFF
   1653 FF                 6399 	.db #0xFF
   1654 FF                 6400 	.db #0xFF
   1655 FF                 6401 	.db #0xFF
   1656 FF                 6402 	.db #0xFF
   1657 FF                 6403 	.db #0xFF
   1658 FF                 6404 	.db #0xFF
   1659 EF                 6405 	.db #0xEF
   165A EF                 6406 	.db #0xEF
   165B FF                 6407 	.db #0xFF
   165C FF                 6408 	.db #0xFF
   165D FF                 6409 	.db #0xFF
   165E FF                 6410 	.db #0xFF
   165F FF                 6411 	.db #0xFF
   1660 FF                 6412 	.db #0xFF
   1661 FF                 6413 	.db #0xFF
   1662 FF                 6414 	.db #0xFF
   1663 FF                 6415 	.db #0xFF
   1664 FF                 6416 	.db #0xFF
   1665 FF                 6417 	.db #0xFF
   1666 FF                 6418 	.db #0xFF
   1667 FF                 6419 	.db #0xFF
   1668 FF                 6420 	.db #0xFF
   1669 E7                 6421 	.db #0xE7
   166A E7                 6422 	.db #0xE7
   166B CF                 6423 	.db #0xCF
   166C CF                 6424 	.db #0xCF
   166D DF                 6425 	.db #0xDF
   166E DF                 6426 	.db #0xDF
   166F FF                 6427 	.db #0xFF
   1670 FF                 6428 	.db #0xFF
   1671 FF                 6429 	.db #0xFF
   1672 FF                 6430 	.db #0xFF
   1673 FF                 6431 	.db #0xFF
   1674 FF                 6432 	.db #0xFF
   1675 FF                 6433 	.db #0xFF
   1676 FF                 6434 	.db #0xFF
   1677 FF                 6435 	.db #0xFF
   1678 FF                 6436 	.db #0xFF
   1679 FC                 6437 	.db #0xFC
   167A FC                 6438 	.db #0xFC
   167B F9                 6439 	.db #0xF9
   167C F9                 6440 	.db #0xF9
   167D FB                 6441 	.db #0xFB
   167E FB                 6442 	.db #0xFB
   167F FF                 6443 	.db #0xFF
   1680 FF                 6444 	.db #0xFF
   1681 FF                 6445 	.db #0xFF
   1682 FF                 6446 	.db #0xFF
   1683 FF                 6447 	.db #0xFF
   1684 FF                 6448 	.db #0xFF
   1685 FF                 6449 	.db #0xFF
   1686 FF                 6450 	.db #0xFF
   1687 FF                 6451 	.db #0xFF
   1688 FF                 6452 	.db #0xFF
   1689 FF                 6453 	.db #0xFF
   168A FF                 6454 	.db #0xFF
   168B FE                 6455 	.db #0xFE
   168C FE                 6456 	.db #0xFE
   168D FC                 6457 	.db #0xFC
   168E FC                 6458 	.db #0xFC
   168F FD                 6459 	.db #0xFD
   1690 FD                 6460 	.db #0xFD
   1691 FF                 6461 	.db #0xFF
   1692 FF                 6462 	.db #0xFF
   1693 FF                 6463 	.db #0xFF
   1694 FF                 6464 	.db #0xFF
   1695 FF                 6465 	.db #0xFF
   1696 FF                 6466 	.db #0xFF
   1697 FF                 6467 	.db #0xFF
   1698 FF                 6468 	.db #0xFF
   1699 3F                 6469 	.db #0x3F
   169A 3F                 6470 	.db #0x3F
   169B 7F                 6471 	.db #0x7F
   169C 7F                 6472 	.db #0x7F
   169D FF                 6473 	.db #0xFF
   169E FF                 6474 	.db #0xFF
   169F FF                 6475 	.db #0xFF
   16A0 FF                 6476 	.db #0xFF
   16A1 FF                 6477 	.db #0xFF
   16A2 FF                 6478 	.db #0xFF
   16A3 FF                 6479 	.db #0xFF
   16A4 FF                 6480 	.db #0xFF
   16A5 FF                 6481 	.db #0xFF
   16A6 FF                 6482 	.db #0xFF
   16A7 FF                 6483 	.db #0xFF
   16A8 FF                 6484 	.db #0xFF
   16A9 F8                 6485 	.db #0xF8
   16AA F8                 6486 	.db #0xF8
   16AB F8                 6487 	.db #0xF8
   16AC F8                 6488 	.db #0xF8
   16AD F8                 6489 	.db #0xF8
   16AE F8                 6490 	.db #0xF8
   16AF F8                 6491 	.db #0xF8
   16B0 F8                 6492 	.db #0xF8
   16B1 F8                 6493 	.db #0xF8
   16B2 F8                 6494 	.db #0xF8
   16B3 F8                 6495 	.db #0xF8
   16B4 F8                 6496 	.db #0xF8
   16B5 F8                 6497 	.db #0xF8
   16B6 F8                 6498 	.db #0xF8
   16B7 F8                 6499 	.db #0xF8
   16B8 F8                 6500 	.db #0xF8
   16B9 E7                 6501 	.db #0xE7
   16BA E7                 6502 	.db #0xE7
   16BB CF                 6503 	.db #0xCF
   16BC CF                 6504 	.db #0xCF
   16BD 9F                 6505 	.db #0x9F
   16BE 9F                 6506 	.db #0x9F
   16BF BF                 6507 	.db #0xBF
   16C0 BF                 6508 	.db #0xBF
   16C1 FF                 6509 	.db #0xFF
   16C2 FF                 6510 	.db #0xFF
   16C3 FF                 6511 	.db #0xFF
   16C4 FF                 6512 	.db #0xFF
   16C5 FF                 6513 	.db #0xFF
   16C6 FF                 6514 	.db #0xFF
   16C7 FF                 6515 	.db #0xFF
   16C8 FF                 6516 	.db #0xFF
   16C9 01                 6517 	.db #0x01
   16CA 01                 6518 	.db #0x01
   16CB 01                 6519 	.db #0x01
   16CC 01                 6520 	.db #0x01
   16CD 01                 6521 	.db #0x01
   16CE 01                 6522 	.db #0x01
   16CF 01                 6523 	.db #0x01
   16D0 01                 6524 	.db #0x01
   16D1 01                 6525 	.db #0x01
   16D2 01                 6526 	.db #0x01
   16D3 01                 6527 	.db #0x01
   16D4 01                 6528 	.db #0x01
   16D5 00                 6529 	.db #0x00
   16D6 00                 6530 	.db #0x00
   16D7 00                 6531 	.db #0x00
   16D8 00                 6532 	.db #0x00
   16D9 FF                 6533 	.db #0xFF
   16DA FF                 6534 	.db #0xFF
   16DB FF                 6535 	.db #0xFF
   16DC FF                 6536 	.db #0xFF
   16DD FF                 6537 	.db #0xFF
   16DE FF                 6538 	.db #0xFF
   16DF FF                 6539 	.db #0xFF
   16E0 FF                 6540 	.db #0xFF
   16E1 FF                 6541 	.db #0xFF
   16E2 FF                 6542 	.db #0xFF
   16E3 FF                 6543 	.db #0xFF
   16E4 FF                 6544 	.db #0xFF
   16E5 00                 6545 	.db #0x00
   16E6 00                 6546 	.db #0x00
   16E7 00                 6547 	.db #0x00
   16E8 00                 6548 	.db #0x00
   16E9 F0                 6549 	.db #0xF0
   16EA F0                 6550 	.db #0xF0
   16EB F0                 6551 	.db #0xF0
   16EC F0                 6552 	.db #0xF0
   16ED F0                 6553 	.db #0xF0
   16EE F0                 6554 	.db #0xF0
   16EF F0                 6555 	.db #0xF0
   16F0 F0                 6556 	.db #0xF0
   16F1 F0                 6557 	.db #0xF0
   16F2 F0                 6558 	.db #0xF0
   16F3 F0                 6559 	.db #0xF0
   16F4 F0                 6560 	.db #0xF0
   16F5 00                 6561 	.db #0x00
   16F6 00                 6562 	.db #0x00
   16F7 00                 6563 	.db #0x00
   16F8 00                 6564 	.db #0x00
   16F9 40                 6565 	.db #0x40
   16FA 40                 6566 	.db #0x40
   16FB 40                 6567 	.db #0x40
   16FC 40                 6568 	.db #0x40
   16FD 40                 6569 	.db #0x40
   16FE 40                 6570 	.db #0x40
   16FF 40                 6571 	.db #0x40
   1700 40                 6572 	.db #0x40
   1701 40                 6573 	.db #0x40
   1702 40                 6574 	.db #0x40
   1703 40                 6575 	.db #0x40
   1704 40                 6576 	.db #0x40
   1705 40                 6577 	.db #0x40
   1706 40                 6578 	.db #0x40
   1707 40                 6579 	.db #0x40
   1708 40                 6580 	.db #0x40
   1709 02                 6581 	.db #0x02
   170A 02                 6582 	.db #0x02
   170B 01                 6583 	.db #0x01
   170C 01                 6584 	.db #0x01
   170D 00                 6585 	.db #0x00
   170E 00                 6586 	.db #0x00
   170F 00                 6587 	.db #0x00
   1710 00                 6588 	.db #0x00
   1711 00                 6589 	.db #0x00
   1712 00                 6590 	.db #0x00
   1713 00                 6591 	.db #0x00
   1714 00                 6592 	.db #0x00
   1715 00                 6593 	.db #0x00
   1716 00                 6594 	.db #0x00
   1717 00                 6595 	.db #0x00
   1718 00                 6596 	.db #0x00
   1719 00                 6597 	.db #0x00
   171A 00                 6598 	.db #0x00
   171B 80                 6599 	.db #0x80
   171C 80                 6600 	.db #0x80
   171D C0                 6601 	.db #0xC0
   171E C0                 6602 	.db #0xC0
   171F 30                 6603 	.db #0x30
   1720 30                 6604 	.db #0x30
   1721 0C                 6605 	.db #0x0C
   1722 0C                 6606 	.db #0x0C
   1723 07                 6607 	.db #0x07
   1724 07                 6608 	.db #0x07
   1725 00                 6609 	.db #0x00
   1726 00                 6610 	.db #0x00
   1727 00                 6611 	.db #0x00
   1728 00                 6612 	.db #0x00
   1729 00                 6613 	.db #0x00
   172A 00                 6614 	.db #0x00
   172B 00                 6615 	.db #0x00
   172C 00                 6616 	.db #0x00
   172D 00                 6617 	.db #0x00
   172E 00                 6618 	.db #0x00
   172F 00                 6619 	.db #0x00
   1730 00                 6620 	.db #0x00
   1731 00                 6621 	.db #0x00
   1732 00                 6622 	.db #0x00
   1733 80                 6623 	.db #0x80
   1734 80                 6624 	.db #0x80
   1735 C0                 6625 	.db #0xC0
   1736 C0                 6626 	.db #0xC0
   1737 60                 6627 	.db #0x60
   1738 60                 6628 	.db #0x60
   1739 FF                 6629 	.db #0xFF
   173A 80                 6630 	.db #0x80
   173B FF                 6631 	.db #0xFF
   173C 80                 6632 	.db #0x80
   173D FF                 6633 	.db #0xFF
   173E 80                 6634 	.db #0x80
   173F FF                 6635 	.db #0xFF
   1740 80                 6636 	.db #0x80
   1741 FF                 6637 	.db #0xFF
   1742 80                 6638 	.db #0x80
   1743 FF                 6639 	.db #0xFF
   1744 80                 6640 	.db #0x80
   1745 FF                 6641 	.db #0xFF
   1746 80                 6642 	.db #0x80
   1747 FC                 6643 	.db #0xFC
   1748 80                 6644 	.db #0x80
   1749 FF                 6645 	.db #0xFF
   174A 00                 6646 	.db #0x00
   174B FF                 6647 	.db #0xFF
   174C 00                 6648 	.db #0x00
   174D FF                 6649 	.db #0xFF
   174E 00                 6650 	.db #0x00
   174F FF                 6651 	.db #0xFF
   1750 00                 6652 	.db #0x00
   1751 FF                 6653 	.db #0xFF
   1752 00                 6654 	.db #0x00
   1753 FF                 6655 	.db #0xFF
   1754 00                 6656 	.db #0x00
   1755 FF                 6657 	.db #0xFF
   1756 00                 6658 	.db #0x00
   1757 3E                 6659 	.db #0x3E
   1758 00                 6660 	.db #0x00
   1759 FF                 6661 	.db #0xFF
   175A 00                 6662 	.db #0x00
   175B FF                 6663 	.db #0xFF
   175C 00                 6664 	.db #0x00
   175D FF                 6665 	.db #0xFF
   175E 00                 6666 	.db #0x00
   175F FF                 6667 	.db #0xFF
   1760 00                 6668 	.db #0x00
   1761 FF                 6669 	.db #0xFF
   1762 00                 6670 	.db #0x00
   1763 FF                 6671 	.db #0xFF
   1764 00                 6672 	.db #0x00
   1765 FF                 6673 	.db #0xFF
   1766 00                 6674 	.db #0x00
   1767 1E                 6675 	.db #0x1E
   1768 00                 6676 	.db #0x00
   1769 FF                 6677 	.db #0xFF
   176A 00                 6678 	.db #0x00
   176B FF                 6679 	.db #0xFF
   176C 00                 6680 	.db #0x00
   176D FF                 6681 	.db #0xFF
   176E 00                 6682 	.db #0x00
   176F FF                 6683 	.db #0xFF
   1770 00                 6684 	.db #0x00
   1771 FF                 6685 	.db #0xFF
   1772 00                 6686 	.db #0x00
   1773 FF                 6687 	.db #0xFF
   1774 00                 6688 	.db #0x00
   1775 FF                 6689 	.db #0xFF
   1776 00                 6690 	.db #0x00
   1777 1F                 6691 	.db #0x1F
   1778 00                 6692 	.db #0x00
   1779 03                 6693 	.db #0x03
   177A 03                 6694 	.db #0x03
   177B 03                 6695 	.db #0x03
   177C 03                 6696 	.db #0x03
   177D 03                 6697 	.db #0x03
   177E 03                 6698 	.db #0x03
   177F 03                 6699 	.db #0x03
   1780 03                 6700 	.db #0x03
   1781 03                 6701 	.db #0x03
   1782 03                 6702 	.db #0x03
   1783 00                 6703 	.db #0x00
   1784 00                 6704 	.db #0x00
   1785 00                 6705 	.db #0x00
   1786 00                 6706 	.db #0x00
   1787 00                 6707 	.db #0x00
   1788 00                 6708 	.db #0x00
   1789 FF                 6709 	.db #0xFF
   178A FF                 6710 	.db #0xFF
   178B FF                 6711 	.db #0xFF
   178C FF                 6712 	.db #0xFF
   178D FF                 6713 	.db #0xFF
   178E FF                 6714 	.db #0xFF
   178F FF                 6715 	.db #0xFF
   1790 FF                 6716 	.db #0xFF
   1791 FF                 6717 	.db #0xFF
   1792 FF                 6718 	.db #0xFF
   1793 00                 6719 	.db #0x00
   1794 00                 6720 	.db #0x00
   1795 00                 6721 	.db #0x00
   1796 00                 6722 	.db #0x00
   1797 00                 6723 	.db #0x00
   1798 00                 6724 	.db #0x00
   1799 E0                 6725 	.db #0xE0
   179A E0                 6726 	.db #0xE0
   179B E0                 6727 	.db #0xE0
   179C E0                 6728 	.db #0xE0
   179D E0                 6729 	.db #0xE0
   179E E0                 6730 	.db #0xE0
   179F E0                 6731 	.db #0xE0
   17A0 E0                 6732 	.db #0xE0
   17A1 E0                 6733 	.db #0xE0
   17A2 E0                 6734 	.db #0xE0
   17A3 00                 6735 	.db #0x00
   17A4 00                 6736 	.db #0x00
   17A5 00                 6737 	.db #0x00
   17A6 00                 6738 	.db #0x00
   17A7 00                 6739 	.db #0x00
   17A8 00                 6740 	.db #0x00
   17A9 7F                 6741 	.db #0x7F
   17AA 7F                 6742 	.db #0x7F
   17AB 7F                 6743 	.db #0x7F
   17AC 7F                 6744 	.db #0x7F
   17AD 7F                 6745 	.db #0x7F
   17AE 7F                 6746 	.db #0x7F
   17AF 7F                 6747 	.db #0x7F
   17B0 7F                 6748 	.db #0x7F
   17B1 7F                 6749 	.db #0x7F
   17B2 7F                 6750 	.db #0x7F
   17B3 00                 6751 	.db #0x00
   17B4 00                 6752 	.db #0x00
   17B5 00                 6753 	.db #0x00
   17B6 00                 6754 	.db #0x00
   17B7 00                 6755 	.db #0x00
   17B8 00                 6756 	.db #0x00
   17B9 FC                 6757 	.db #0xFC
   17BA FC                 6758 	.db #0xFC
   17BB FC                 6759 	.db #0xFC
   17BC FC                 6760 	.db #0xFC
   17BD FC                 6761 	.db #0xFC
   17BE FC                 6762 	.db #0xFC
   17BF FC                 6763 	.db #0xFC
   17C0 FC                 6764 	.db #0xFC
   17C1 FC                 6765 	.db #0xFC
   17C2 FC                 6766 	.db #0xFC
   17C3 00                 6767 	.db #0x00
   17C4 00                 6768 	.db #0x00
   17C5 00                 6769 	.db #0x00
   17C6 00                 6770 	.db #0x00
   17C7 00                 6771 	.db #0x00
   17C8 00                 6772 	.db #0x00
   17C9 3F                 6773 	.db #0x3F
   17CA 3F                 6774 	.db #0x3F
   17CB 3F                 6775 	.db #0x3F
   17CC 3F                 6776 	.db #0x3F
   17CD 3F                 6777 	.db #0x3F
   17CE 3F                 6778 	.db #0x3F
   17CF 3F                 6779 	.db #0x3F
   17D0 3F                 6780 	.db #0x3F
   17D1 3F                 6781 	.db #0x3F
   17D2 3F                 6782 	.db #0x3F
   17D3 3F                 6783 	.db #0x3F
   17D4 3F                 6784 	.db #0x3F
   17D5 00                 6785 	.db #0x00
   17D6 00                 6786 	.db #0x00
   17D7 00                 6787 	.db #0x00
   17D8 00                 6788 	.db #0x00
   17D9 FE                 6789 	.db #0xFE
   17DA FE                 6790 	.db #0xFE
   17DB FE                 6791 	.db #0xFE
   17DC FE                 6792 	.db #0xFE
   17DD FE                 6793 	.db #0xFE
   17DE FE                 6794 	.db #0xFE
   17DF FE                 6795 	.db #0xFE
   17E0 FE                 6796 	.db #0xFE
   17E1 FE                 6797 	.db #0xFE
   17E2 FE                 6798 	.db #0xFE
   17E3 FE                 6799 	.db #0xFE
   17E4 FE                 6800 	.db #0xFE
   17E5 00                 6801 	.db #0x00
   17E6 00                 6802 	.db #0x00
   17E7 00                 6803 	.db #0x00
   17E8 00                 6804 	.db #0x00
   17E9 07                 6805 	.db #0x07
   17EA 07                 6806 	.db #0x07
   17EB 07                 6807 	.db #0x07
   17EC 07                 6808 	.db #0x07
   17ED 07                 6809 	.db #0x07
   17EE 07                 6810 	.db #0x07
   17EF 07                 6811 	.db #0x07
   17F0 07                 6812 	.db #0x07
   17F1 07                 6813 	.db #0x07
   17F2 07                 6814 	.db #0x07
   17F3 07                 6815 	.db #0x07
   17F4 07                 6816 	.db #0x07
   17F5 00                 6817 	.db #0x00
   17F6 00                 6818 	.db #0x00
   17F7 00                 6819 	.db #0x00
   17F8 00                 6820 	.db #0x00
   17F9 C0                 6821 	.db #0xC0
   17FA C0                 6822 	.db #0xC0
   17FB C0                 6823 	.db #0xC0
   17FC C0                 6824 	.db #0xC0
   17FD C0                 6825 	.db #0xC0
   17FE C0                 6826 	.db #0xC0
   17FF C0                 6827 	.db #0xC0
   1800 C0                 6828 	.db #0xC0
   1801 C0                 6829 	.db #0xC0
   1802 C0                 6830 	.db #0xC0
   1803 C0                 6831 	.db #0xC0
   1804 C0                 6832 	.db #0xC0
   1805 00                 6833 	.db #0x00
   1806 00                 6834 	.db #0x00
   1807 00                 6835 	.db #0x00
   1808 00                 6836 	.db #0x00
   1809 30                 6837 	.db #0x30
   180A 30                 6838 	.db #0x30
   180B 08                 6839 	.db #0x08
   180C 08                 6840 	.db #0x08
   180D 0C                 6841 	.db #0x0C
   180E 0C                 6842 	.db #0x0C
   180F 04                 6843 	.db #0x04
   1810 04                 6844 	.db #0x04
   1811 02                 6845 	.db #0x02
   1812 02                 6846 	.db #0x02
   1813 02                 6847 	.db #0x02
   1814 02                 6848 	.db #0x02
   1815 01                 6849 	.db #0x01
   1816 01                 6850 	.db #0x01
   1817 01                 6851 	.db #0x01
   1818 01                 6852 	.db #0x01
   1819 00                 6853 	.db #0x00
   181A 00                 6854 	.db #0x00
   181B 00                 6855 	.db #0x00
   181C 00                 6856 	.db #0x00
   181D 00                 6857 	.db #0x00
   181E 00                 6858 	.db #0x00
   181F 00                 6859 	.db #0x00
   1820 00                 6860 	.db #0x00
   1821 00                 6861 	.db #0x00
   1822 00                 6862 	.db #0x00
   1823 00                 6863 	.db #0x00
   1824 00                 6864 	.db #0x00
   1825 00                 6865 	.db #0x00
   1826 00                 6866 	.db #0x00
   1827 80                 6867 	.db #0x80
   1828 80                 6868 	.db #0x80
   1829 FC                 6869 	.db #0xFC
   182A 80                 6870 	.db #0x80
   182B FC                 6871 	.db #0xFC
   182C 80                 6872 	.db #0x80
   182D FC                 6873 	.db #0xFC
   182E 80                 6874 	.db #0x80
   182F FF                 6875 	.db #0xFF
   1830 80                 6876 	.db #0x80
   1831 FF                 6877 	.db #0xFF
   1832 80                 6878 	.db #0x80
   1833 FF                 6879 	.db #0xFF
   1834 80                 6880 	.db #0x80
   1835 FF                 6881 	.db #0xFF
   1836 80                 6882 	.db #0x80
   1837 FF                 6883 	.db #0xFF
   1838 80                 6884 	.db #0x80
   1839 3E                 6885 	.db #0x3E
   183A 00                 6886 	.db #0x00
   183B 3E                 6887 	.db #0x3E
   183C 00                 6888 	.db #0x00
   183D 3E                 6889 	.db #0x3E
   183E 00                 6890 	.db #0x00
   183F FF                 6891 	.db #0xFF
   1840 00                 6892 	.db #0x00
   1841 FF                 6893 	.db #0xFF
   1842 00                 6894 	.db #0x00
   1843 FF                 6895 	.db #0xFF
   1844 00                 6896 	.db #0x00
   1845 FF                 6897 	.db #0xFF
   1846 00                 6898 	.db #0x00
   1847 FF                 6899 	.db #0xFF
   1848 00                 6900 	.db #0x00
   1849 1E                 6901 	.db #0x1E
   184A 00                 6902 	.db #0x00
   184B 1E                 6903 	.db #0x1E
   184C 00                 6904 	.db #0x00
   184D 1E                 6905 	.db #0x1E
   184E 00                 6906 	.db #0x00
   184F FF                 6907 	.db #0xFF
   1850 00                 6908 	.db #0x00
   1851 FF                 6909 	.db #0xFF
   1852 00                 6910 	.db #0x00
   1853 FF                 6911 	.db #0xFF
   1854 00                 6912 	.db #0x00
   1855 FF                 6913 	.db #0xFF
   1856 00                 6914 	.db #0x00
   1857 FF                 6915 	.db #0xFF
   1858 00                 6916 	.db #0x00
   1859 1F                 6917 	.db #0x1F
   185A 00                 6918 	.db #0x00
   185B 1F                 6919 	.db #0x1F
   185C 00                 6920 	.db #0x00
   185D 1F                 6921 	.db #0x1F
   185E 00                 6922 	.db #0x00
   185F FF                 6923 	.db #0xFF
   1860 00                 6924 	.db #0x00
   1861 FF                 6925 	.db #0xFF
   1862 00                 6926 	.db #0x00
   1863 FF                 6927 	.db #0xFF
   1864 00                 6928 	.db #0x00
   1865 FF                 6929 	.db #0xFF
   1866 00                 6930 	.db #0x00
   1867 FF                 6931 	.db #0xFF
   1868 00                 6932 	.db #0x00
   1869 FF                 6933 	.db #0xFF
   186A FF                 6934 	.db #0xFF
   186B 00                 6935 	.db #0x00
   186C 00                 6936 	.db #0x00
   186D 00                 6937 	.db #0x00
   186E 00                 6938 	.db #0x00
   186F 00                 6939 	.db #0x00
   1870 00                 6940 	.db #0x00
   1871 00                 6941 	.db #0x00
   1872 00                 6942 	.db #0x00
   1873 00                 6943 	.db #0x00
   1874 00                 6944 	.db #0x00
   1875 00                 6945 	.db #0x00
   1876 00                 6946 	.db #0x00
   1877 00                 6947 	.db #0x00
   1878 00                 6948 	.db #0x00
   1879 F8                 6949 	.db #0xF8
   187A F8                 6950 	.db #0xF8
   187B 00                 6951 	.db #0x00
   187C 00                 6952 	.db #0x00
   187D 00                 6953 	.db #0x00
   187E 00                 6954 	.db #0x00
   187F 00                 6955 	.db #0x00
   1880 00                 6956 	.db #0x00
   1881 00                 6957 	.db #0x00
   1882 00                 6958 	.db #0x00
   1883 00                 6959 	.db #0x00
   1884 00                 6960 	.db #0x00
   1885 00                 6961 	.db #0x00
   1886 00                 6962 	.db #0x00
   1887 00                 6963 	.db #0x00
   1888 00                 6964 	.db #0x00
   1889 1F                 6965 	.db #0x1F
   188A 1F                 6966 	.db #0x1F
   188B 00                 6967 	.db #0x00
   188C 00                 6968 	.db #0x00
   188D 00                 6969 	.db #0x00
   188E 00                 6970 	.db #0x00
   188F 00                 6971 	.db #0x00
   1890 00                 6972 	.db #0x00
   1891 00                 6973 	.db #0x00
   1892 00                 6974 	.db #0x00
   1893 00                 6975 	.db #0x00
   1894 00                 6976 	.db #0x00
   1895 00                 6977 	.db #0x00
   1896 00                 6978 	.db #0x00
   1897 00                 6979 	.db #0x00
   1898 00                 6980 	.db #0x00
   1899 F0                 6981 	.db #0xF0
   189A F0                 6982 	.db #0xF0
   189B 38                 6983 	.db #0x38
   189C 38                 6984 	.db #0x38
   189D 18                 6985 	.db #0x18
   189E 18                 6986 	.db #0x18
   189F 0C                 6987 	.db #0x0C
   18A0 0C                 6988 	.db #0x0C
   18A1 06                 6989 	.db #0x06
   18A2 06                 6990 	.db #0x06
   18A3 02                 6991 	.db #0x02
   18A4 02                 6992 	.db #0x02
   18A5 02                 6993 	.db #0x02
   18A6 02                 6994 	.db #0x02
   18A7 02                 6995 	.db #0x02
   18A8 02                 6996 	.db #0x02
   18A9 FC                 6997 	.db #0xFC
   18AA 80                 6998 	.db #0x80
   18AB FC                 6999 	.db #0xFC
   18AC 80                 7000 	.db #0x80
   18AD FC                 7001 	.db #0xFC
   18AE 80                 7002 	.db #0x80
   18AF FC                 7003 	.db #0xFC
   18B0 80                 7004 	.db #0x80
   18B1 FF                 7005 	.db #0xFF
   18B2 80                 7006 	.db #0x80
   18B3 FF                 7007 	.db #0xFF
   18B4 80                 7008 	.db #0x80
   18B5 FF                 7009 	.db #0xFF
   18B6 80                 7010 	.db #0x80
   18B7 FF                 7011 	.db #0xFF
   18B8 80                 7012 	.db #0x80
   18B9 3E                 7013 	.db #0x3E
   18BA 00                 7014 	.db #0x00
   18BB 3E                 7015 	.db #0x3E
   18BC 00                 7016 	.db #0x00
   18BD 3E                 7017 	.db #0x3E
   18BE 00                 7018 	.db #0x00
   18BF 3E                 7019 	.db #0x3E
   18C0 00                 7020 	.db #0x00
   18C1 FF                 7021 	.db #0xFF
   18C2 00                 7022 	.db #0x00
   18C3 FF                 7023 	.db #0xFF
   18C4 00                 7024 	.db #0x00
   18C5 FF                 7025 	.db #0xFF
   18C6 00                 7026 	.db #0x00
   18C7 FF                 7027 	.db #0xFF
   18C8 00                 7028 	.db #0x00
   18C9 1E                 7029 	.db #0x1E
   18CA 00                 7030 	.db #0x00
   18CB 1E                 7031 	.db #0x1E
   18CC 00                 7032 	.db #0x00
   18CD 1E                 7033 	.db #0x1E
   18CE 00                 7034 	.db #0x00
   18CF 1E                 7035 	.db #0x1E
   18D0 00                 7036 	.db #0x00
   18D1 FF                 7037 	.db #0xFF
   18D2 00                 7038 	.db #0x00
   18D3 FF                 7039 	.db #0xFF
   18D4 00                 7040 	.db #0x00
   18D5 FF                 7041 	.db #0xFF
   18D6 00                 7042 	.db #0x00
   18D7 FF                 7043 	.db #0xFF
   18D8 00                 7044 	.db #0x00
   18D9 1F                 7045 	.db #0x1F
   18DA 00                 7046 	.db #0x00
   18DB 1F                 7047 	.db #0x1F
   18DC 00                 7048 	.db #0x00
   18DD 1F                 7049 	.db #0x1F
   18DE 00                 7050 	.db #0x00
   18DF 1F                 7051 	.db #0x1F
   18E0 00                 7052 	.db #0x00
   18E1 FF                 7053 	.db #0xFF
   18E2 00                 7054 	.db #0x00
   18E3 FF                 7055 	.db #0xFF
   18E4 00                 7056 	.db #0x00
   18E5 FF                 7057 	.db #0xFF
   18E6 00                 7058 	.db #0x00
   18E7 FF                 7059 	.db #0xFF
   18E8 00                 7060 	.db #0x00
   18E9 02                 7061 	.db #0x02
   18EA 02                 7062 	.db #0x02
   18EB 02                 7063 	.db #0x02
   18EC 02                 7064 	.db #0x02
   18ED 02                 7065 	.db #0x02
   18EE 02                 7066 	.db #0x02
   18EF 02                 7067 	.db #0x02
   18F0 02                 7068 	.db #0x02
   18F1 02                 7069 	.db #0x02
   18F2 02                 7070 	.db #0x02
   18F3 02                 7071 	.db #0x02
   18F4 02                 7072 	.db #0x02
   18F5 02                 7073 	.db #0x02
   18F6 02                 7074 	.db #0x02
   18F7 02                 7075 	.db #0x02
   18F8 02                 7076 	.db #0x02
   18F9 FF                 7077 	.db #0xFF
   18FA 80                 7078 	.db #0x80
   18FB FC                 7079 	.db #0xFC
   18FC 80                 7080 	.db #0x80
   18FD FC                 7081 	.db #0xFC
   18FE 80                 7082 	.db #0x80
   18FF FC                 7083 	.db #0xFC
   1900 80                 7084 	.db #0x80
   1901 FC                 7085 	.db #0xFC
   1902 80                 7086 	.db #0x80
   1903 FF                 7087 	.db #0xFF
   1904 80                 7088 	.db #0x80
   1905 FF                 7089 	.db #0xFF
   1906 80                 7090 	.db #0x80
   1907 FF                 7091 	.db #0xFF
   1908 80                 7092 	.db #0x80
   1909 FF                 7093 	.db #0xFF
   190A 00                 7094 	.db #0x00
   190B 3E                 7095 	.db #0x3E
   190C 00                 7096 	.db #0x00
   190D 3E                 7097 	.db #0x3E
   190E 00                 7098 	.db #0x00
   190F 3E                 7099 	.db #0x3E
   1910 00                 7100 	.db #0x00
   1911 3E                 7101 	.db #0x3E
   1912 00                 7102 	.db #0x00
   1913 FF                 7103 	.db #0xFF
   1914 00                 7104 	.db #0x00
   1915 FF                 7105 	.db #0xFF
   1916 00                 7106 	.db #0x00
   1917 FF                 7107 	.db #0xFF
   1918 00                 7108 	.db #0x00
   1919 FF                 7109 	.db #0xFF
   191A 00                 7110 	.db #0x00
   191B 1E                 7111 	.db #0x1E
   191C 00                 7112 	.db #0x00
   191D 1E                 7113 	.db #0x1E
   191E 00                 7114 	.db #0x00
   191F 1E                 7115 	.db #0x1E
   1920 00                 7116 	.db #0x00
   1921 1E                 7117 	.db #0x1E
   1922 00                 7118 	.db #0x00
   1923 FF                 7119 	.db #0xFF
   1924 00                 7120 	.db #0x00
   1925 FF                 7121 	.db #0xFF
   1926 00                 7122 	.db #0x00
   1927 FF                 7123 	.db #0xFF
   1928 00                 7124 	.db #0x00
   1929 FF                 7125 	.db #0xFF
   192A 00                 7126 	.db #0x00
   192B 1F                 7127 	.db #0x1F
   192C 00                 7128 	.db #0x00
   192D 1F                 7129 	.db #0x1F
   192E 00                 7130 	.db #0x00
   192F 1F                 7131 	.db #0x1F
   1930 00                 7132 	.db #0x00
   1931 1F                 7133 	.db #0x1F
   1932 00                 7134 	.db #0x00
   1933 FF                 7135 	.db #0xFF
   1934 00                 7136 	.db #0x00
   1935 FF                 7137 	.db #0xFF
   1936 00                 7138 	.db #0x00
   1937 FF                 7139 	.db #0xFF
   1938 00                 7140 	.db #0x00
   1939 FF                 7141 	.db #0xFF
   193A 80                 7142 	.db #0x80
   193B FF                 7143 	.db #0xFF
   193C 80                 7144 	.db #0x80
   193D FC                 7145 	.db #0xFC
   193E 80                 7146 	.db #0x80
   193F FC                 7147 	.db #0xFC
   1940 80                 7148 	.db #0x80
   1941 FC                 7149 	.db #0xFC
   1942 80                 7150 	.db #0x80
   1943 FC                 7151 	.db #0xFC
   1944 80                 7152 	.db #0x80
   1945 FF                 7153 	.db #0xFF
   1946 80                 7154 	.db #0x80
   1947 FF                 7155 	.db #0xFF
   1948 80                 7156 	.db #0x80
   1949 FF                 7157 	.db #0xFF
   194A 00                 7158 	.db #0x00
   194B FE                 7159 	.db #0xFE
   194C 00                 7160 	.db #0x00
   194D 3E                 7161 	.db #0x3E
   194E 00                 7162 	.db #0x00
   194F 3E                 7163 	.db #0x3E
   1950 00                 7164 	.db #0x00
   1951 3E                 7165 	.db #0x3E
   1952 00                 7166 	.db #0x00
   1953 3F                 7167 	.db #0x3F
   1954 00                 7168 	.db #0x00
   1955 FF                 7169 	.db #0xFF
   1956 00                 7170 	.db #0x00
   1957 FF                 7171 	.db #0xFF
   1958 00                 7172 	.db #0x00
   1959 FF                 7173 	.db #0xFF
   195A 00                 7174 	.db #0x00
   195B 1F                 7175 	.db #0x1F
   195C 00                 7176 	.db #0x00
   195D 1F                 7177 	.db #0x1F
   195E 00                 7178 	.db #0x00
   195F 1F                 7179 	.db #0x1F
   1960 00                 7180 	.db #0x00
   1961 1F                 7181 	.db #0x1F
   1962 00                 7182 	.db #0x00
   1963 FF                 7183 	.db #0xFF
   1964 00                 7184 	.db #0x00
   1965 FF                 7185 	.db #0xFF
   1966 0F                 7186 	.db #0x0F
   1967 FF                 7187 	.db #0xFF
   1968 0F                 7188 	.db #0x0F
   1969 02                 7189 	.db #0x02
   196A 02                 7190 	.db #0x02
   196B 03                 7191 	.db #0x03
   196C 03                 7192 	.db #0x03
   196D 01                 7193 	.db #0x01
   196E 01                 7194 	.db #0x01
   196F 01                 7195 	.db #0x01
   1970 01                 7196 	.db #0x01
   1971 01                 7197 	.db #0x01
   1972 01                 7198 	.db #0x01
   1973 01                 7199 	.db #0x01
   1974 01                 7200 	.db #0x01
   1975 01                 7201 	.db #0x01
   1976 01                 7202 	.db #0x01
   1977 01                 7203 	.db #0x01
   1978 01                 7204 	.db #0x01
   1979 FF                 7205 	.db #0xFF
   197A 80                 7206 	.db #0x80
   197B FF                 7207 	.db #0xFF
   197C 80                 7208 	.db #0x80
   197D FF                 7209 	.db #0xFF
   197E 80                 7210 	.db #0x80
   197F FF                 7211 	.db #0xFF
   1980 80                 7212 	.db #0x80
   1981 80                 7213 	.db #0x80
   1982 80                 7214 	.db #0x80
   1983 80                 7215 	.db #0x80
   1984 80                 7216 	.db #0x80
   1985 80                 7217 	.db #0x80
   1986 80                 7218 	.db #0x80
   1987 80                 7219 	.db #0x80
   1988 80                 7220 	.db #0x80
   1989 FF                 7221 	.db #0xFF
   198A 00                 7222 	.db #0x00
   198B FF                 7223 	.db #0xFF
   198C 00                 7224 	.db #0x00
   198D FF                 7225 	.db #0xFF
   198E 00                 7226 	.db #0x00
   198F C0                 7227 	.db #0xC0
   1990 00                 7228 	.db #0x00
   1991 00                 7229 	.db #0x00
   1992 00                 7230 	.db #0x00
   1993 00                 7231 	.db #0x00
   1994 00                 7232 	.db #0x00
   1995 00                 7233 	.db #0x00
   1996 00                 7234 	.db #0x00
   1997 00                 7235 	.db #0x00
   1998 00                 7236 	.db #0x00
   1999 FF                 7237 	.db #0xFF
   199A 00                 7238 	.db #0x00
   199B FF                 7239 	.db #0xFF
   199C 00                 7240 	.db #0x00
   199D FF                 7241 	.db #0xFF
   199E 00                 7242 	.db #0x00
   199F 01                 7243 	.db #0x01
   19A0 00                 7244 	.db #0x00
   19A1 00                 7245 	.db #0x00
   19A2 00                 7246 	.db #0x00
   19A3 00                 7247 	.db #0x00
   19A4 00                 7248 	.db #0x00
   19A5 00                 7249 	.db #0x00
   19A6 00                 7250 	.db #0x00
   19A7 00                 7251 	.db #0x00
   19A8 00                 7252 	.db #0x00
   19A9 FF                 7253 	.db #0xFF
   19AA 0F                 7254 	.db #0x0F
   19AB FF                 7255 	.db #0xFF
   19AC 0F                 7256 	.db #0x0F
   19AD FF                 7257 	.db #0xFF
   19AE 00                 7258 	.db #0x00
   19AF FF                 7259 	.db #0xFF
   19B0 00                 7260 	.db #0x00
   19B1 FF                 7261 	.db #0xFF
   19B2 00                 7262 	.db #0x00
   19B3 FF                 7263 	.db #0xFF
   19B4 00                 7264 	.db #0x00
   19B5 7F                 7265 	.db #0x7F
   19B6 00                 7266 	.db #0x00
   19B7 7F                 7267 	.db #0x7F
   19B8 00                 7268 	.db #0x00
   19B9 01                 7269 	.db #0x01
   19BA 01                 7270 	.db #0x01
   19BB 01                 7271 	.db #0x01
   19BC 01                 7272 	.db #0x01
   19BD 01                 7273 	.db #0x01
   19BE 01                 7274 	.db #0x01
   19BF 01                 7275 	.db #0x01
   19C0 01                 7276 	.db #0x01
   19C1 01                 7277 	.db #0x01
   19C2 01                 7278 	.db #0x01
   19C3 01                 7279 	.db #0x01
   19C4 01                 7280 	.db #0x01
   19C5 02                 7281 	.db #0x02
   19C6 02                 7282 	.db #0x02
   19C7 02                 7283 	.db #0x02
   19C8 02                 7284 	.db #0x02
   19C9 7F                 7285 	.db #0x7F
   19CA 00                 7286 	.db #0x00
   19CB 7F                 7287 	.db #0x7F
   19CC 00                 7288 	.db #0x00
   19CD 7F                 7289 	.db #0x7F
   19CE 00                 7290 	.db #0x00
   19CF 7F                 7291 	.db #0x7F
   19D0 00                 7292 	.db #0x00
   19D1 7F                 7293 	.db #0x7F
   19D2 00                 7294 	.db #0x00
   19D3 FF                 7295 	.db #0xFF
   19D4 00                 7296 	.db #0x00
   19D5 FF                 7297 	.db #0xFF
   19D6 00                 7298 	.db #0x00
   19D7 FF                 7299 	.db #0xFF
   19D8 00                 7300 	.db #0x00
   19D9 04                 7301 	.db #0x04
   19DA 04                 7302 	.db #0x04
   19DB 04                 7303 	.db #0x04
   19DC 04                 7304 	.db #0x04
   19DD 04                 7305 	.db #0x04
   19DE 04                 7306 	.db #0x04
   19DF 08                 7307 	.db #0x08
   19E0 08                 7308 	.db #0x08
   19E1 18                 7309 	.db #0x18
   19E2 18                 7310 	.db #0x18
   19E3 10                 7311 	.db #0x10
   19E4 10                 7312 	.db #0x10
   19E5 10                 7313 	.db #0x10
   19E6 10                 7314 	.db #0x10
   19E7 10                 7315 	.db #0x10
   19E8 10                 7316 	.db #0x10
   19E9 80                 7317 	.db #0x80
   19EA 80                 7318 	.db #0x80
   19EB FF                 7319 	.db #0xFF
   19EC FF                 7320 	.db #0xFF
   19ED FF                 7321 	.db #0xFF
   19EE FF                 7322 	.db #0xFF
   19EF FF                 7323 	.db #0xFF
   19F0 FF                 7324 	.db #0xFF
   19F1 FF                 7325 	.db #0xFF
   19F2 FF                 7326 	.db #0xFF
   19F3 FF                 7327 	.db #0xFF
   19F4 FF                 7328 	.db #0xFF
   19F5 FF                 7329 	.db #0xFF
   19F6 FF                 7330 	.db #0xFF
   19F7 FF                 7331 	.db #0xFF
   19F8 FF                 7332 	.db #0xFF
   19F9 00                 7333 	.db #0x00
   19FA 00                 7334 	.db #0x00
   19FB FF                 7335 	.db #0xFF
   19FC FF                 7336 	.db #0xFF
   19FD FF                 7337 	.db #0xFF
   19FE FF                 7338 	.db #0xFF
   19FF FF                 7339 	.db #0xFF
   1A00 FF                 7340 	.db #0xFF
   1A01 FF                 7341 	.db #0xFF
   1A02 FF                 7342 	.db #0xFF
   1A03 FF                 7343 	.db #0xFF
   1A04 FF                 7344 	.db #0xFF
   1A05 FF                 7345 	.db #0xFF
   1A06 FF                 7346 	.db #0xFF
   1A07 FF                 7347 	.db #0xFF
   1A08 FF                 7348 	.db #0xFF
   1A09 FF                 7349 	.db #0xFF
   1A0A 00                 7350 	.db #0x00
   1A0B FF                 7351 	.db #0xFF
   1A0C FF                 7352 	.db #0xFF
   1A0D FF                 7353 	.db #0xFF
   1A0E FF                 7354 	.db #0xFF
   1A0F FF                 7355 	.db #0xFF
   1A10 FF                 7356 	.db #0xFF
   1A11 FF                 7357 	.db #0xFF
   1A12 FF                 7358 	.db #0xFF
   1A13 FF                 7359 	.db #0xFF
   1A14 FF                 7360 	.db #0xFF
   1A15 FF                 7361 	.db #0xFF
   1A16 FF                 7362 	.db #0xFF
   1A17 FF                 7363 	.db #0xFF
   1A18 FF                 7364 	.db #0xFF
   1A19 01                 7365 	.db #0x01
   1A1A 01                 7366 	.db #0x01
   1A1B 01                 7367 	.db #0x01
   1A1C 01                 7368 	.db #0x01
   1A1D 00                 7369 	.db #0x00
   1A1E 00                 7370 	.db #0x00
   1A1F 00                 7371 	.db #0x00
   1A20 00                 7372 	.db #0x00
   1A21 00                 7373 	.db #0x00
   1A22 00                 7374 	.db #0x00
   1A23 00                 7375 	.db #0x00
   1A24 00                 7376 	.db #0x00
   1A25 00                 7377 	.db #0x00
   1A26 00                 7378 	.db #0x00
   1A27 00                 7379 	.db #0x00
   1A28 00                 7380 	.db #0x00
   1A29 40                 7381 	.db #0x40
   1A2A 40                 7382 	.db #0x40
   1A2B C0                 7383 	.db #0xC0
   1A2C C0                 7384 	.db #0xC0
   1A2D 00                 7385 	.db #0x00
   1A2E 00                 7386 	.db #0x00
   1A2F 00                 7387 	.db #0x00
   1A30 00                 7388 	.db #0x00
   1A31 00                 7389 	.db #0x00
   1A32 00                 7390 	.db #0x00
   1A33 00                 7391 	.db #0x00
   1A34 00                 7392 	.db #0x00
   1A35 00                 7393 	.db #0x00
   1A36 00                 7394 	.db #0x00
   1A37 00                 7395 	.db #0x00
   1A38 00                 7396 	.db #0x00
   1A39 00                 7397 	.db #0x00
   1A3A 00                 7398 	.db #0x00
   1A3B 00                 7399 	.db #0x00
   1A3C 00                 7400 	.db #0x00
   1A3D 00                 7401 	.db #0x00
   1A3E 00                 7402 	.db #0x00
   1A3F 00                 7403 	.db #0x00
   1A40 00                 7404 	.db #0x00
   1A41 00                 7405 	.db #0x00
   1A42 00                 7406 	.db #0x00
   1A43 00                 7407 	.db #0x00
   1A44 00                 7408 	.db #0x00
   1A45 00                 7409 	.db #0x00
   1A46 00                 7410 	.db #0x00
   1A47 0F                 7411 	.db #0x0F
   1A48 0F                 7412 	.db #0x0F
   1A49 00                 7413 	.db #0x00
   1A4A 00                 7414 	.db #0x00
   1A4B 00                 7415 	.db #0x00
   1A4C 00                 7416 	.db #0x00
   1A4D 00                 7417 	.db #0x00
   1A4E 00                 7418 	.db #0x00
   1A4F 00                 7419 	.db #0x00
   1A50 00                 7420 	.db #0x00
   1A51 00                 7421 	.db #0x00
   1A52 00                 7422 	.db #0x00
   1A53 00                 7423 	.db #0x00
   1A54 00                 7424 	.db #0x00
   1A55 00                 7425 	.db #0x00
   1A56 00                 7426 	.db #0x00
   1A57 FF                 7427 	.db #0xFF
   1A58 FF                 7428 	.db #0xFF
   1A59 00                 7429 	.db #0x00
   1A5A 00                 7430 	.db #0x00
   1A5B 00                 7431 	.db #0x00
   1A5C 00                 7432 	.db #0x00
   1A5D 00                 7433 	.db #0x00
   1A5E 00                 7434 	.db #0x00
   1A5F 00                 7435 	.db #0x00
   1A60 00                 7436 	.db #0x00
   1A61 00                 7437 	.db #0x00
   1A62 00                 7438 	.db #0x00
   1A63 00                 7439 	.db #0x00
   1A64 00                 7440 	.db #0x00
   1A65 07                 7441 	.db #0x07
   1A66 07                 7442 	.db #0x07
   1A67 FC                 7443 	.db #0xFC
   1A68 FC                 7444 	.db #0xFC
   1A69 00                 7445 	.db #0x00
   1A6A 00                 7446 	.db #0x00
   1A6B 00                 7447 	.db #0x00
   1A6C 00                 7448 	.db #0x00
   1A6D 00                 7449 	.db #0x00
   1A6E 00                 7450 	.db #0x00
   1A6F 01                 7451 	.db #0x01
   1A70 01                 7452 	.db #0x01
   1A71 07                 7453 	.db #0x07
   1A72 07                 7454 	.db #0x07
   1A73 38                 7455 	.db #0x38
   1A74 38                 7456 	.db #0x38
   1A75 E0                 7457 	.db #0xE0
   1A76 E0                 7458 	.db #0xE0
   1A77 00                 7459 	.db #0x00
   1A78 00                 7460 	.db #0x00
   1A79 30                 7461 	.db #0x30
   1A7A 30                 7462 	.db #0x30
   1A7B 20                 7463 	.db #0x20
   1A7C 20                 7464 	.db #0x20
   1A7D 40                 7465 	.db #0x40
   1A7E 40                 7466 	.db #0x40
   1A7F C0                 7467 	.db #0xC0
   1A80 C0                 7468 	.db #0xC0
   1A81 00                 7469 	.db #0x00
   1A82 00                 7470 	.db #0x00
   1A83 00                 7471 	.db #0x00
   1A84 00                 7472 	.db #0x00
   1A85 00                 7473 	.db #0x00
   1A86 00                 7474 	.db #0x00
   1A87 00                 7475 	.db #0x00
   1A88 00                 7476 	.db #0x00
   1A89 FF                 7477 	.db #0xFF
   1A8A FF                 7478 	.db #0xFF
   1A8B 00                 7479 	.db #0x00
   1A8C FF                 7480 	.db #0xFF
   1A8D 00                 7481 	.db #0x00
   1A8E FF                 7482 	.db #0xFF
   1A8F 00                 7483 	.db #0x00
   1A90 FF                 7484 	.db #0xFF
   1A91 00                 7485 	.db #0x00
   1A92 FF                 7486 	.db #0xFF
   1A93 00                 7487 	.db #0x00
   1A94 FF                 7488 	.db #0xFF
   1A95 00                 7489 	.db #0x00
   1A96 FF                 7490 	.db #0xFF
   1A97 00                 7491 	.db #0x00
   1A98 FF                 7492 	.db #0xFF
   1A99 FF                 7493 	.db #0xFF
   1A9A FF                 7494 	.db #0xFF
   1A9B 80                 7495 	.db #0x80
   1A9C FF                 7496 	.db #0xFF
   1A9D 80                 7497 	.db #0x80
   1A9E FF                 7498 	.db #0xFF
   1A9F 00                 7499 	.db #0x00
   1AA0 FF                 7500 	.db #0xFF
   1AA1 00                 7501 	.db #0x00
   1AA2 FF                 7502 	.db #0xFF
   1AA3 00                 7503 	.db #0x00
   1AA4 FF                 7504 	.db #0xFF
   1AA5 00                 7505 	.db #0x00
   1AA6 FF                 7506 	.db #0xFF
   1AA7 00                 7507 	.db #0x00
   1AA8 FF                 7508 	.db #0xFF
   1AA9 00                 7509 	.db #0x00
   1AAA FF                 7510 	.db #0xFF
   1AAB 00                 7511 	.db #0x00
   1AAC FF                 7512 	.db #0xFF
   1AAD 00                 7513 	.db #0x00
   1AAE FF                 7514 	.db #0xFF
   1AAF 00                 7515 	.db #0x00
   1AB0 FF                 7516 	.db #0xFF
   1AB1 00                 7517 	.db #0x00
   1AB2 FF                 7518 	.db #0xFF
   1AB3 00                 7519 	.db #0x00
   1AB4 FF                 7520 	.db #0xFF
   1AB5 00                 7521 	.db #0x00
   1AB6 FF                 7522 	.db #0xFF
   1AB7 00                 7523 	.db #0x00
   1AB8 FF                 7524 	.db #0xFF
   1AB9                    7525 _backmap1_map:
   1AB9 00                 7526 	.db #0x00
   1ABA 00                 7527 	.db #0x00
   1ABB 00                 7528 	.db #0x00
   1ABC 00                 7529 	.db #0x00
   1ABD 00                 7530 	.db #0x00
   1ABE 00                 7531 	.db #0x00
   1ABF 00                 7532 	.db #0x00
   1AC0 00                 7533 	.db #0x00
   1AC1 00                 7534 	.db #0x00
   1AC2 00                 7535 	.db #0x00
   1AC3 00                 7536 	.db #0x00
   1AC4 00                 7537 	.db #0x00
   1AC5 00                 7538 	.db #0x00
   1AC6 00                 7539 	.db #0x00
   1AC7 00                 7540 	.db #0x00
   1AC8 00                 7541 	.db #0x00
   1AC9 00                 7542 	.db #0x00
   1ACA 00                 7543 	.db #0x00
   1ACB 00                 7544 	.db #0x00
   1ACC 00                 7545 	.db #0x00
   1ACD 00                 7546 	.db #0x00
   1ACE 00                 7547 	.db #0x00
   1ACF 00                 7548 	.db #0x00
   1AD0 00                 7549 	.db #0x00
   1AD1 00                 7550 	.db #0x00
   1AD2 00                 7551 	.db #0x00
   1AD3 00                 7552 	.db #0x00
   1AD4 00                 7553 	.db #0x00
   1AD5 00                 7554 	.db #0x00
   1AD6 00                 7555 	.db #0x00
   1AD7 00                 7556 	.db #0x00
   1AD8 00                 7557 	.db #0x00
   1AD9 00                 7558 	.db #0x00
   1ADA 00                 7559 	.db #0x00
   1ADB 00                 7560 	.db #0x00
   1ADC 00                 7561 	.db #0x00
   1ADD 00                 7562 	.db #0x00
   1ADE 00                 7563 	.db #0x00
   1ADF 00                 7564 	.db #0x00
   1AE0 00                 7565 	.db #0x00
   1AE1 00                 7566 	.db #0x00
   1AE2 00                 7567 	.db #0x00
   1AE3 00                 7568 	.db #0x00
   1AE4 00                 7569 	.db #0x00
   1AE5 00                 7570 	.db #0x00
   1AE6 00                 7571 	.db #0x00
   1AE7 00                 7572 	.db #0x00
   1AE8 00                 7573 	.db #0x00
   1AE9 00                 7574 	.db #0x00
   1AEA 00                 7575 	.db #0x00
   1AEB 00                 7576 	.db #0x00
   1AEC 00                 7577 	.db #0x00
   1AED 00                 7578 	.db #0x00
   1AEE 00                 7579 	.db #0x00
   1AEF 00                 7580 	.db #0x00
   1AF0 00                 7581 	.db #0x00
   1AF1 00                 7582 	.db #0x00
   1AF2 00                 7583 	.db #0x00
   1AF3 00                 7584 	.db #0x00
   1AF4 00                 7585 	.db #0x00
   1AF5 00                 7586 	.db #0x00
   1AF6 00                 7587 	.db #0x00
   1AF7 00                 7588 	.db #0x00
   1AF8 00                 7589 	.db #0x00
   1AF9 00                 7590 	.db #0x00
   1AFA 00                 7591 	.db #0x00
   1AFB 00                 7592 	.db #0x00
   1AFC 00                 7593 	.db #0x00
   1AFD 00                 7594 	.db #0x00
   1AFE 00                 7595 	.db #0x00
   1AFF 00                 7596 	.db #0x00
   1B00 00                 7597 	.db #0x00
   1B01 00                 7598 	.db #0x00
   1B02 00                 7599 	.db #0x00
   1B03 00                 7600 	.db #0x00
   1B04 00                 7601 	.db #0x00
   1B05 00                 7602 	.db #0x00
   1B06 00                 7603 	.db #0x00
   1B07 00                 7604 	.db #0x00
   1B08 00                 7605 	.db #0x00
   1B09 00                 7606 	.db #0x00
   1B0A 00                 7607 	.db #0x00
   1B0B 00                 7608 	.db #0x00
   1B0C 00                 7609 	.db #0x00
   1B0D 00                 7610 	.db #0x00
   1B0E 00                 7611 	.db #0x00
   1B0F 01                 7612 	.db #0x01
   1B10 02                 7613 	.db #0x02
   1B11 03                 7614 	.db #0x03
   1B12 03                 7615 	.db #0x03
   1B13 03                 7616 	.db #0x03
   1B14 03                 7617 	.db #0x03
   1B15 03                 7618 	.db #0x03
   1B16 03                 7619 	.db #0x03
   1B17 03                 7620 	.db #0x03
   1B18 03                 7621 	.db #0x03
   1B19 03                 7622 	.db #0x03
   1B1A 03                 7623 	.db #0x03
   1B1B 03                 7624 	.db #0x03
   1B1C 03                 7625 	.db #0x03
   1B1D 03                 7626 	.db #0x03
   1B1E 03                 7627 	.db #0x03
   1B1F 03                 7628 	.db #0x03
   1B20 03                 7629 	.db #0x03
   1B21 03                 7630 	.db #0x03
   1B22 03                 7631 	.db #0x03
   1B23 03                 7632 	.db #0x03
   1B24 03                 7633 	.db #0x03
   1B25 03                 7634 	.db #0x03
   1B26 03                 7635 	.db #0x03
   1B27 03                 7636 	.db #0x03
   1B28 03                 7637 	.db #0x03
   1B29 03                 7638 	.db #0x03
   1B2A 03                 7639 	.db #0x03
   1B2B 03                 7640 	.db #0x03
   1B2C 03                 7641 	.db #0x03
   1B2D 03                 7642 	.db #0x03
   1B2E 03                 7643 	.db #0x03
   1B2F 03                 7644 	.db #0x03
   1B30 03                 7645 	.db #0x03
   1B31 03                 7646 	.db #0x03
   1B32 03                 7647 	.db #0x03
   1B33 03                 7648 	.db #0x03
   1B34 03                 7649 	.db #0x03
   1B35 03                 7650 	.db #0x03
   1B36 03                 7651 	.db #0x03
   1B37 03                 7652 	.db #0x03
   1B38 03                 7653 	.db #0x03
   1B39 03                 7654 	.db #0x03
   1B3A 03                 7655 	.db #0x03
   1B3B 03                 7656 	.db #0x03
   1B3C 03                 7657 	.db #0x03
   1B3D 03                 7658 	.db #0x03
   1B3E 03                 7659 	.db #0x03
   1B3F 03                 7660 	.db #0x03
   1B40 03                 7661 	.db #0x03
   1B41 03                 7662 	.db #0x03
   1B42 03                 7663 	.db #0x03
   1B43 03                 7664 	.db #0x03
   1B44 03                 7665 	.db #0x03
   1B45 03                 7666 	.db #0x03
   1B46 04                 7667 	.db #0x04
   1B47 05                 7668 	.db #0x05
   1B48 05                 7669 	.db #0x05
   1B49 05                 7670 	.db #0x05
   1B4A 05                 7671 	.db #0x05
   1B4B 05                 7672 	.db #0x05
   1B4C 05                 7673 	.db #0x05
   1B4D 06                 7674 	.db #0x06
   1B4E 00                 7675 	.db #0x00
   1B4F 00                 7676 	.db #0x00
   1B50 00                 7677 	.db #0x00
   1B51 00                 7678 	.db #0x00
   1B52 00                 7679 	.db #0x00
   1B53 00                 7680 	.db #0x00
   1B54 00                 7681 	.db #0x00
   1B55 00                 7682 	.db #0x00
   1B56 00                 7683 	.db #0x00
   1B57 00                 7684 	.db #0x00
   1B58 00                 7685 	.db #0x00
   1B59 00                 7686 	.db #0x00
   1B5A 00                 7687 	.db #0x00
   1B5B 00                 7688 	.db #0x00
   1B5C 00                 7689 	.db #0x00
   1B5D 07                 7690 	.db #0x07
   1B5E 08                 7691 	.db #0x08
   1B5F 09                 7692 	.db #0x09
   1B60 00                 7693 	.db #0x00
   1B61 00                 7694 	.db #0x00
   1B62 00                 7695 	.db #0x00
   1B63 00                 7696 	.db #0x00
   1B64 00                 7697 	.db #0x00
   1B65 00                 7698 	.db #0x00
   1B66 00                 7699 	.db #0x00
   1B67 00                 7700 	.db #0x00
   1B68 00                 7701 	.db #0x00
   1B69 00                 7702 	.db #0x00
   1B6A 00                 7703 	.db #0x00
   1B6B 00                 7704 	.db #0x00
   1B6C 00                 7705 	.db #0x00
   1B6D 00                 7706 	.db #0x00
   1B6E 00                 7707 	.db #0x00
   1B6F 00                 7708 	.db #0x00
   1B70 00                 7709 	.db #0x00
   1B71 00                 7710 	.db #0x00
   1B72 00                 7711 	.db #0x00
   1B73 00                 7712 	.db #0x00
   1B74 00                 7713 	.db #0x00
   1B75 00                 7714 	.db #0x00
   1B76 00                 7715 	.db #0x00
   1B77 00                 7716 	.db #0x00
   1B78 00                 7717 	.db #0x00
   1B79 00                 7718 	.db #0x00
   1B7A 00                 7719 	.db #0x00
   1B7B 00                 7720 	.db #0x00
   1B7C 00                 7721 	.db #0x00
   1B7D 00                 7722 	.db #0x00
   1B7E 00                 7723 	.db #0x00
   1B7F 00                 7724 	.db #0x00
   1B80 00                 7725 	.db #0x00
   1B81 00                 7726 	.db #0x00
   1B82 00                 7727 	.db #0x00
   1B83 00                 7728 	.db #0x00
   1B84 00                 7729 	.db #0x00
   1B85 00                 7730 	.db #0x00
   1B86 00                 7731 	.db #0x00
   1B87 00                 7732 	.db #0x00
   1B88 00                 7733 	.db #0x00
   1B89 00                 7734 	.db #0x00
   1B8A 00                 7735 	.db #0x00
   1B8B 00                 7736 	.db #0x00
   1B8C 00                 7737 	.db #0x00
   1B8D 00                 7738 	.db #0x00
   1B8E 00                 7739 	.db #0x00
   1B8F 00                 7740 	.db #0x00
   1B90 0A                 7741 	.db #0x0A
   1B91 0B                 7742 	.db #0x0B
   1B92 0B                 7743 	.db #0x0B
   1B93 0B                 7744 	.db #0x0B
   1B94 0B                 7745 	.db #0x0B
   1B95 0B                 7746 	.db #0x0B
   1B96 0C                 7747 	.db #0x0C
   1B97 0D                 7748 	.db #0x0D
   1B98 0D                 7749 	.db #0x0D
   1B99 0D                 7750 	.db #0x0D
   1B9A 0D                 7751 	.db #0x0D
   1B9B 0D                 7752 	.db #0x0D
   1B9C 0D                 7753 	.db #0x0D
   1B9D 0E                 7754 	.db #0x0E
   1B9E 0F                 7755 	.db #0x0F
   1B9F 10                 7756 	.db #0x10
   1BA0 00                 7757 	.db #0x00
   1BA1 00                 7758 	.db #0x00
   1BA2 00                 7759 	.db #0x00
   1BA3 00                 7760 	.db #0x00
   1BA4 00                 7761 	.db #0x00
   1BA5 00                 7762 	.db #0x00
   1BA6 00                 7763 	.db #0x00
   1BA7 00                 7764 	.db #0x00
   1BA8 00                 7765 	.db #0x00
   1BA9 00                 7766 	.db #0x00
   1BAA 00                 7767 	.db #0x00
   1BAB 00                 7768 	.db #0x00
   1BAC 11                 7769 	.db #0x11
   1BAD 12                 7770 	.db #0x12
   1BAE 00                 7771 	.db #0x00
   1BAF 00                 7772 	.db #0x00
   1BB0 00                 7773 	.db #0x00
   1BB1 00                 7774 	.db #0x00
   1BB2 00                 7775 	.db #0x00
   1BB3 00                 7776 	.db #0x00
   1BB4 00                 7777 	.db #0x00
   1BB5 00                 7778 	.db #0x00
   1BB6 00                 7779 	.db #0x00
   1BB7 00                 7780 	.db #0x00
   1BB8 00                 7781 	.db #0x00
   1BB9 00                 7782 	.db #0x00
   1BBA 00                 7783 	.db #0x00
   1BBB 00                 7784 	.db #0x00
   1BBC 00                 7785 	.db #0x00
   1BBD 00                 7786 	.db #0x00
   1BBE 00                 7787 	.db #0x00
   1BBF 00                 7788 	.db #0x00
   1BC0 00                 7789 	.db #0x00
   1BC1 00                 7790 	.db #0x00
   1BC2 00                 7791 	.db #0x00
   1BC3 00                 7792 	.db #0x00
   1BC4 00                 7793 	.db #0x00
   1BC5 00                 7794 	.db #0x00
   1BC6 00                 7795 	.db #0x00
   1BC7 00                 7796 	.db #0x00
   1BC8 00                 7797 	.db #0x00
   1BC9 00                 7798 	.db #0x00
   1BCA 00                 7799 	.db #0x00
   1BCB 00                 7800 	.db #0x00
   1BCC 00                 7801 	.db #0x00
   1BCD 00                 7802 	.db #0x00
   1BCE 00                 7803 	.db #0x00
   1BCF 00                 7804 	.db #0x00
   1BD0 00                 7805 	.db #0x00
   1BD1 00                 7806 	.db #0x00
   1BD2 00                 7807 	.db #0x00
   1BD3 00                 7808 	.db #0x00
   1BD4 00                 7809 	.db #0x00
   1BD5 00                 7810 	.db #0x00
   1BD6 00                 7811 	.db #0x00
   1BD7 00                 7812 	.db #0x00
   1BD8 00                 7813 	.db #0x00
   1BD9 00                 7814 	.db #0x00
   1BDA 00                 7815 	.db #0x00
   1BDB 00                 7816 	.db #0x00
   1BDC 00                 7817 	.db #0x00
   1BDD 00                 7818 	.db #0x00
   1BDE 00                 7819 	.db #0x00
   1BDF 00                 7820 	.db #0x00
   1BE0 13                 7821 	.db #0x13
   1BE1 14                 7822 	.db #0x14
   1BE2 15                 7823 	.db #0x15
   1BE3 15                 7824 	.db #0x15
   1BE4 15                 7825 	.db #0x15
   1BE5 16                 7826 	.db #0x16
   1BE6 17                 7827 	.db #0x17
   1BE7 0D                 7828 	.db #0x0D
   1BE8 0D                 7829 	.db #0x0D
   1BE9 0D                 7830 	.db #0x0D
   1BEA 0D                 7831 	.db #0x0D
   1BEB 0D                 7832 	.db #0x0D
   1BEC 0D                 7833 	.db #0x0D
   1BED 0D                 7834 	.db #0x0D
   1BEE 0D                 7835 	.db #0x0D
   1BEF 18                 7836 	.db #0x18
   1BF0 19                 7837 	.db #0x19
   1BF1 1A                 7838 	.db #0x1A
   1BF2 00                 7839 	.db #0x00
   1BF3 00                 7840 	.db #0x00
   1BF4 00                 7841 	.db #0x00
   1BF5 00                 7842 	.db #0x00
   1BF6 00                 7843 	.db #0x00
   1BF7 00                 7844 	.db #0x00
   1BF8 00                 7845 	.db #0x00
   1BF9 00                 7846 	.db #0x00
   1BFA 00                 7847 	.db #0x00
   1BFB 00                 7848 	.db #0x00
   1BFC 1B                 7849 	.db #0x1B
   1BFD 00                 7850 	.db #0x00
   1BFE 00                 7851 	.db #0x00
   1BFF 00                 7852 	.db #0x00
   1C00 00                 7853 	.db #0x00
   1C01 00                 7854 	.db #0x00
   1C02 1C                 7855 	.db #0x1C
   1C03 1D                 7856 	.db #0x1D
   1C04 1D                 7857 	.db #0x1D
   1C05 1E                 7858 	.db #0x1E
   1C06 1F                 7859 	.db #0x1F
   1C07 00                 7860 	.db #0x00
   1C08 20                 7861 	.db #0x20
   1C09 1D                 7862 	.db #0x1D
   1C0A 21                 7863 	.db #0x21
   1C0B 22                 7864 	.db #0x22
   1C0C 00                 7865 	.db #0x00
   1C0D 00                 7866 	.db #0x00
   1C0E 23                 7867 	.db #0x23
   1C0F 15                 7868 	.db #0x15
   1C10 15                 7869 	.db #0x15
   1C11 24                 7870 	.db #0x24
   1C12 00                 7871 	.db #0x00
   1C13 25                 7872 	.db #0x25
   1C14 15                 7873 	.db #0x15
   1C15 15                 7874 	.db #0x15
   1C16 15                 7875 	.db #0x15
   1C17 26                 7876 	.db #0x26
   1C18 00                 7877 	.db #0x00
   1C19 27                 7878 	.db #0x27
   1C1A 05                 7879 	.db #0x05
   1C1B 05                 7880 	.db #0x05
   1C1C 05                 7881 	.db #0x05
   1C1D 28                 7882 	.db #0x28
   1C1E 29                 7883 	.db #0x29
   1C1F 05                 7884 	.db #0x05
   1C20 05                 7885 	.db #0x05
   1C21 05                 7886 	.db #0x05
   1C22 2A                 7887 	.db #0x2A
   1C23 00                 7888 	.db #0x00
   1C24 00                 7889 	.db #0x00
   1C25 2B                 7890 	.db #0x2B
   1C26 2B                 7891 	.db #0x2B
   1C27 2B                 7892 	.db #0x2B
   1C28 2C                 7893 	.db #0x2C
   1C29 00                 7894 	.db #0x00
   1C2A 2D                 7895 	.db #0x2D
   1C2B 2B                 7896 	.db #0x2B
   1C2C 2B                 7897 	.db #0x2B
   1C2D 2B                 7898 	.db #0x2B
   1C2E 00                 7899 	.db #0x00
   1C2F 00                 7900 	.db #0x00
   1C30 13                 7901 	.db #0x13
   1C31 13                 7902 	.db #0x13
   1C32 2E                 7903 	.db #0x2E
   1C33 2F                 7904 	.db #0x2F
   1C34 30                 7905 	.db #0x30
   1C35 31                 7906 	.db #0x31
   1C36 32                 7907 	.db #0x32
   1C37 0D                 7908 	.db #0x0D
   1C38 0D                 7909 	.db #0x0D
   1C39 0D                 7910 	.db #0x0D
   1C3A 0D                 7911 	.db #0x0D
   1C3B 0D                 7912 	.db #0x0D
   1C3C 0D                 7913 	.db #0x0D
   1C3D 0D                 7914 	.db #0x0D
   1C3E 0D                 7915 	.db #0x0D
   1C3F 0D                 7916 	.db #0x0D
   1C40 0D                 7917 	.db #0x0D
   1C41 33                 7918 	.db #0x33
   1C42 34                 7919 	.db #0x34
   1C43 00                 7920 	.db #0x00
   1C44 00                 7921 	.db #0x00
   1C45 00                 7922 	.db #0x00
   1C46 00                 7923 	.db #0x00
   1C47 00                 7924 	.db #0x00
   1C48 00                 7925 	.db #0x00
   1C49 35                 7926 	.db #0x35
   1C4A 36                 7927 	.db #0x36
   1C4B 36                 7928 	.db #0x36
   1C4C 37                 7929 	.db #0x37
   1C4D 36                 7930 	.db #0x36
   1C4E 38                 7931 	.db #0x38
   1C4F 00                 7932 	.db #0x00
   1C50 00                 7933 	.db #0x00
   1C51 00                 7934 	.db #0x00
   1C52 39                 7935 	.db #0x39
   1C53 3A                 7936 	.db #0x3A
   1C54 3B                 7937 	.db #0x3B
   1C55 3C                 7938 	.db #0x3C
   1C56 3D                 7939 	.db #0x3D
   1C57 00                 7940 	.db #0x00
   1C58 3E                 7941 	.db #0x3E
   1C59 3F                 7942 	.db #0x3F
   1C5A 40                 7943 	.db #0x40
   1C5B 41                 7944 	.db #0x41
   1C5C 00                 7945 	.db #0x00
   1C5D 00                 7946 	.db #0x00
   1C5E 42                 7947 	.db #0x42
   1C5F 43                 7948 	.db #0x43
   1C60 44                 7949 	.db #0x44
   1C61 45                 7950 	.db #0x45
   1C62 00                 7951 	.db #0x00
   1C63 46                 7952 	.db #0x46
   1C64 47                 7953 	.db #0x47
   1C65 48                 7954 	.db #0x48
   1C66 49                 7955 	.db #0x49
   1C67 4A                 7956 	.db #0x4A
   1C68 00                 7957 	.db #0x00
   1C69 4B                 7958 	.db #0x4B
   1C6A 4C                 7959 	.db #0x4C
   1C6B 4D                 7960 	.db #0x4D
   1C6C 4E                 7961 	.db #0x4E
   1C6D 4F                 7962 	.db #0x4F
   1C6E 13                 7963 	.db #0x13
   1C6F 50                 7964 	.db #0x50
   1C70 51                 7965 	.db #0x51
   1C71 52                 7966 	.db #0x52
   1C72 31                 7967 	.db #0x31
   1C73 00                 7968 	.db #0x00
   1C74 00                 7969 	.db #0x00
   1C75 0D                 7970 	.db #0x0D
   1C76 53                 7971 	.db #0x53
   1C77 54                 7972 	.db #0x54
   1C78 55                 7973 	.db #0x55
   1C79 00                 7974 	.db #0x00
   1C7A 56                 7975 	.db #0x56
   1C7B 57                 7976 	.db #0x57
   1C7C 58                 7977 	.db #0x58
   1C7D 59                 7978 	.db #0x59
   1C7E 00                 7979 	.db #0x00
   1C7F 00                 7980 	.db #0x00
   1C80 13                 7981 	.db #0x13
   1C81 13                 7982 	.db #0x13
   1C82 5A                 7983 	.db #0x5A
   1C83 0D                 7984 	.db #0x0D
   1C84 0D                 7985 	.db #0x0D
   1C85 31                 7986 	.db #0x31
   1C86 5B                 7987 	.db #0x5B
   1C87 5C                 7988 	.db #0x5C
   1C88 5C                 7989 	.db #0x5C
   1C89 5C                 7990 	.db #0x5C
   1C8A 5C                 7991 	.db #0x5C
   1C8B 5C                 7992 	.db #0x5C
   1C8C 5C                 7993 	.db #0x5C
   1C8D 5C                 7994 	.db #0x5C
   1C8E 5C                 7995 	.db #0x5C
   1C8F 5C                 7996 	.db #0x5C
   1C90 5C                 7997 	.db #0x5C
   1C91 5C                 7998 	.db #0x5C
   1C92 5C                 7999 	.db #0x5C
   1C93 5D                 8000 	.db #0x5D
   1C94 5E                 8001 	.db #0x5E
   1C95 5F                 8002 	.db #0x5F
   1C96 00                 8003 	.db #0x00
   1C97 00                 8004 	.db #0x00
   1C98 00                 8005 	.db #0x00
   1C99 42                 8006 	.db #0x42
   1C9A 60                 8007 	.db #0x60
   1C9B 61                 8008 	.db #0x61
   1C9C 61                 8009 	.db #0x61
   1C9D 61                 8010 	.db #0x61
   1C9E 62                 8011 	.db #0x62
   1C9F 00                 8012 	.db #0x00
   1CA0 00                 8013 	.db #0x00
   1CA1 00                 8014 	.db #0x00
   1CA2 39                 8015 	.db #0x39
   1CA3 0D                 8016 	.db #0x0D
   1CA4 0D                 8017 	.db #0x0D
   1CA5 0D                 8018 	.db #0x0D
   1CA6 3D                 8019 	.db #0x3D
   1CA7 00                 8020 	.db #0x00
   1CA8 63                 8021 	.db #0x63
   1CA9 0D                 8022 	.db #0x0D
   1CAA 0D                 8023 	.db #0x0D
   1CAB 64                 8024 	.db #0x64
   1CAC 00                 8025 	.db #0x00
   1CAD 00                 8026 	.db #0x00
   1CAE 42                 8027 	.db #0x42
   1CAF 65                 8028 	.db #0x65
   1CB0 0D                 8029 	.db #0x0D
   1CB1 62                 8030 	.db #0x62
   1CB2 00                 8031 	.db #0x00
   1CB3 46                 8032 	.db #0x46
   1CB4 66                 8033 	.db #0x66
   1CB5 0D                 8034 	.db #0x0D
   1CB6 0D                 8035 	.db #0x0D
   1CB7 4A                 8036 	.db #0x4A
   1CB8 00                 8037 	.db #0x00
   1CB9 4B                 8038 	.db #0x4B
   1CBA 67                 8039 	.db #0x67
   1CBB 0D                 8040 	.db #0x0D
   1CBC 0D                 8041 	.db #0x0D
   1CBD 4F                 8042 	.db #0x4F
   1CBE 13                 8043 	.db #0x13
   1CBF 68                 8044 	.db #0x68
   1CC0 0D                 8045 	.db #0x0D
   1CC1 0D                 8046 	.db #0x0D
   1CC2 31                 8047 	.db #0x31
   1CC3 00                 8048 	.db #0x00
   1CC4 00                 8049 	.db #0x00
   1CC5 69                 8050 	.db #0x69
   1CC6 6A                 8051 	.db #0x6A
   1CC7 0D                 8052 	.db #0x0D
   1CC8 6B                 8053 	.db #0x6B
   1CC9 00                 8054 	.db #0x00
   1CCA 56                 8055 	.db #0x56
   1CCB 6C                 8056 	.db #0x6C
   1CCC 0D                 8057 	.db #0x0D
   1CCD 0D                 8058 	.db #0x0D
   1CCE 00                 8059 	.db #0x00
   1CCF 00                 8060 	.db #0x00
   1CD0 13                 8061 	.db #0x13
   1CD1 6D                 8062 	.db #0x6D
   1CD2 6E                 8063 	.db #0x6E
   1CD3 6E                 8064 	.db #0x6E
   1CD4 6E                 8065 	.db #0x6E
   1CD5 6F                 8066 	.db #0x6F
   1CD6 70                 8067 	.db #0x70
   1CD7 00                 8068 	.db #0x00
   1CD8 00                 8069 	.db #0x00
   1CD9 00                 8070 	.db #0x00
   1CDA 00                 8071 	.db #0x00
   1CDB 00                 8072 	.db #0x00
   1CDC 00                 8073 	.db #0x00
   1CDD 00                 8074 	.db #0x00
   1CDE 00                 8075 	.db #0x00
   1CDF 00                 8076 	.db #0x00
   1CE0 00                 8077 	.db #0x00
   1CE1 00                 8078 	.db #0x00
   1CE2 00                 8079 	.db #0x00
   1CE3 00                 8080 	.db #0x00
   1CE4 00                 8081 	.db #0x00
   1CE5 71                 8082 	.db #0x71
   1CE6 72                 8083 	.db #0x72
   1CE7 73                 8084 	.db #0x73
   1CE8 00                 8085 	.db #0x00
   1CE9 42                 8086 	.db #0x42
   1CEA 74                 8087 	.db #0x74
   1CEB 75                 8088 	.db #0x75
   1CEC 76                 8089 	.db #0x76
   1CED 77                 8090 	.db #0x77
   1CEE 62                 8091 	.db #0x62
   1CEF 00                 8092 	.db #0x00
   1CF0 00                 8093 	.db #0x00
   1CF1 00                 8094 	.db #0x00
   1CF2 78                 8095 	.db #0x78
   1CF3 79                 8096 	.db #0x79
   1CF4 79                 8097 	.db #0x79
   1CF5 79                 8098 	.db #0x79
   1CF6 7A                 8099 	.db #0x7A
   1CF7 00                 8100 	.db #0x00
   1CF8 7B                 8101 	.db #0x7B
   1CF9 79                 8102 	.db #0x79
   1CFA 79                 8103 	.db #0x79
   1CFB 7C                 8104 	.db #0x7C
   1CFC 00                 8105 	.db #0x00
   1CFD 00                 8106 	.db #0x00
   1CFE 7D                 8107 	.db #0x7D
   1CFF 6E                 8108 	.db #0x6E
   1D00 6E                 8109 	.db #0x6E
   1D01 7E                 8110 	.db #0x7E
   1D02 00                 8111 	.db #0x00
   1D03 7F                 8112 	.db #0x7F
   1D04 6E                 8113 	.db #0x6E
   1D05 6E                 8114 	.db #0x6E
   1D06 6E                 8115 	.db #0x6E
   1D07 80                 8116 	.db #0x80
   1D08 00                 8117 	.db #0x00
   1D09 4B                 8118 	.db #0x4B
   1D0A 0D                 8119 	.db #0x0D
   1D0B 0D                 8120 	.db #0x0D
   1D0C 0D                 8121 	.db #0x0D
   1D0D 4F                 8122 	.db #0x4F
   1D0E 13                 8123 	.db #0x13
   1D0F 0D                 8124 	.db #0x0D
   1D10 0D                 8125 	.db #0x0D
   1D11 0D                 8126 	.db #0x0D
   1D12 31                 8127 	.db #0x31
   1D13 00                 8128 	.db #0x00
   1D14 00                 8129 	.db #0x00
   1D15 0D                 8130 	.db #0x0D
   1D16 0D                 8131 	.db #0x0D
   1D17 0D                 8132 	.db #0x0D
   1D18 6B                 8133 	.db #0x6B
   1D19 00                 8134 	.db #0x00
   1D1A 56                 8135 	.db #0x56
   1D1B 0D                 8136 	.db #0x0D
   1D1C 0D                 8137 	.db #0x0D
   1D1D 0D                 8138 	.db #0x0D
   1D1E 00                 8139 	.db #0x00
   1D1F 00                 8140 	.db #0x00
   1D20 13                 8141 	.db #0x13
   1D21 00                 8142 	.db #0x00
   1D22 00                 8143 	.db #0x00
   1D23 00                 8144 	.db #0x00
   1D24 00                 8145 	.db #0x00
   1D25 00                 8146 	.db #0x00
   1D26 70                 8147 	.db #0x70
   1D27 00                 8148 	.db #0x00
   1D28 00                 8149 	.db #0x00
   1D29 00                 8150 	.db #0x00
   1D2A 00                 8151 	.db #0x00
   1D2B 00                 8152 	.db #0x00
   1D2C 00                 8153 	.db #0x00
   1D2D 00                 8154 	.db #0x00
   1D2E 00                 8155 	.db #0x00
   1D2F 00                 8156 	.db #0x00
   1D30 00                 8157 	.db #0x00
   1D31 00                 8158 	.db #0x00
   1D32 00                 8159 	.db #0x00
   1D33 00                 8160 	.db #0x00
   1D34 00                 8161 	.db #0x00
   1D35 00                 8162 	.db #0x00
   1D36 00                 8163 	.db #0x00
   1D37 81                 8164 	.db #0x81
   1D38 82                 8165 	.db #0x82
   1D39 42                 8166 	.db #0x42
   1D3A 83                 8167 	.db #0x83
   1D3B 84                 8168 	.db #0x84
   1D3C 85                 8169 	.db #0x85
   1D3D 86                 8170 	.db #0x86
   1D3E 62                 8171 	.db #0x62
   1D3F 00                 8172 	.db #0x00
   1D40 00                 8173 	.db #0x00
   1D41 00                 8174 	.db #0x00
   1D42 00                 8175 	.db #0x00
   1D43 00                 8176 	.db #0x00
   1D44 00                 8177 	.db #0x00
   1D45 00                 8178 	.db #0x00
   1D46 00                 8179 	.db #0x00
   1D47 00                 8180 	.db #0x00
   1D48 00                 8181 	.db #0x00
   1D49 00                 8182 	.db #0x00
   1D4A 00                 8183 	.db #0x00
   1D4B 00                 8184 	.db #0x00
   1D4C 00                 8185 	.db #0x00
   1D4D 00                 8186 	.db #0x00
   1D4E 00                 8187 	.db #0x00
   1D4F 00                 8188 	.db #0x00
   1D50 00                 8189 	.db #0x00
   1D51 00                 8190 	.db #0x00
   1D52 00                 8191 	.db #0x00
   1D53 00                 8192 	.db #0x00
   1D54 00                 8193 	.db #0x00
   1D55 00                 8194 	.db #0x00
   1D56 00                 8195 	.db #0x00
   1D57 00                 8196 	.db #0x00
   1D58 00                 8197 	.db #0x00
   1D59 00                 8198 	.db #0x00
   1D5A 00                 8199 	.db #0x00
   1D5B 00                 8200 	.db #0x00
   1D5C 00                 8201 	.db #0x00
   1D5D 00                 8202 	.db #0x00
   1D5E 00                 8203 	.db #0x00
   1D5F 00                 8204 	.db #0x00
   1D60 00                 8205 	.db #0x00
   1D61 00                 8206 	.db #0x00
   1D62 00                 8207 	.db #0x00
   1D63 00                 8208 	.db #0x00
   1D64 00                 8209 	.db #0x00
   1D65 87                 8210 	.db #0x87
   1D66 87                 8211 	.db #0x87
   1D67 87                 8212 	.db #0x87
   1D68 88                 8213 	.db #0x88
   1D69 00                 8214 	.db #0x00
   1D6A 89                 8215 	.db #0x89
   1D6B 87                 8216 	.db #0x87
   1D6C 87                 8217 	.db #0x87
   1D6D 87                 8218 	.db #0x87
   1D6E 00                 8219 	.db #0x00
   1D6F 00                 8220 	.db #0x00
   1D70 13                 8221 	.db #0x13
   1D71 00                 8222 	.db #0x00
   1D72 00                 8223 	.db #0x00
   1D73 00                 8224 	.db #0x00
   1D74 00                 8225 	.db #0x00
   1D75 00                 8226 	.db #0x00
   1D76 70                 8227 	.db #0x70
   1D77 00                 8228 	.db #0x00
   1D78 00                 8229 	.db #0x00
   1D79 00                 8230 	.db #0x00
   1D7A 00                 8231 	.db #0x00
   1D7B 00                 8232 	.db #0x00
   1D7C 00                 8233 	.db #0x00
   1D7D 00                 8234 	.db #0x00
   1D7E 00                 8235 	.db #0x00
   1D7F 00                 8236 	.db #0x00
   1D80 00                 8237 	.db #0x00
   1D81 00                 8238 	.db #0x00
   1D82 00                 8239 	.db #0x00
   1D83 00                 8240 	.db #0x00
   1D84 00                 8241 	.db #0x00
   1D85 00                 8242 	.db #0x00
   1D86 00                 8243 	.db #0x00
   1D87 00                 8244 	.db #0x00
   1D88 8A                 8245 	.db #0x8A
   1D89 42                 8246 	.db #0x42
   1D8A 8B                 8247 	.db #0x8B
   1D8B 8C                 8248 	.db #0x8C
   1D8C 8D                 8249 	.db #0x8D
   1D8D 8E                 8250 	.db #0x8E
   1D8E 62                 8251 	.db #0x62
   1D8F 00                 8252 	.db #0x00
   1D90 00                 8253 	.db #0x00
   1D91 00                 8254 	.db #0x00
   1D92 00                 8255 	.db #0x00
   1D93 00                 8256 	.db #0x00
   1D94 00                 8257 	.db #0x00
   1D95 00                 8258 	.db #0x00
   1D96 00                 8259 	.db #0x00
   1D97 00                 8260 	.db #0x00
   1D98 00                 8261 	.db #0x00
   1D99 00                 8262 	.db #0x00
   1D9A 00                 8263 	.db #0x00
   1D9B 00                 8264 	.db #0x00
   1D9C 00                 8265 	.db #0x00
   1D9D 00                 8266 	.db #0x00
   1D9E 00                 8267 	.db #0x00
   1D9F 00                 8268 	.db #0x00
   1DA0 00                 8269 	.db #0x00
   1DA1 00                 8270 	.db #0x00
   1DA2 00                 8271 	.db #0x00
   1DA3 00                 8272 	.db #0x00
   1DA4 00                 8273 	.db #0x00
   1DA5 00                 8274 	.db #0x00
   1DA6 00                 8275 	.db #0x00
   1DA7 00                 8276 	.db #0x00
   1DA8 00                 8277 	.db #0x00
   1DA9 00                 8278 	.db #0x00
   1DAA 00                 8279 	.db #0x00
   1DAB 00                 8280 	.db #0x00
   1DAC 00                 8281 	.db #0x00
   1DAD 00                 8282 	.db #0x00
   1DAE 00                 8283 	.db #0x00
   1DAF 00                 8284 	.db #0x00
   1DB0 00                 8285 	.db #0x00
   1DB1 00                 8286 	.db #0x00
   1DB2 00                 8287 	.db #0x00
   1DB3 00                 8288 	.db #0x00
   1DB4 00                 8289 	.db #0x00
   1DB5 00                 8290 	.db #0x00
   1DB6 00                 8291 	.db #0x00
   1DB7 00                 8292 	.db #0x00
   1DB8 00                 8293 	.db #0x00
   1DB9 00                 8294 	.db #0x00
   1DBA 00                 8295 	.db #0x00
   1DBB 00                 8296 	.db #0x00
   1DBC 00                 8297 	.db #0x00
   1DBD 00                 8298 	.db #0x00
   1DBE 00                 8299 	.db #0x00
   1DBF 00                 8300 	.db #0x00
   1DC0 13                 8301 	.db #0x13
   1DC1 00                 8302 	.db #0x00
   1DC2 00                 8303 	.db #0x00
   1DC3 00                 8304 	.db #0x00
   1DC4 00                 8305 	.db #0x00
   1DC5 00                 8306 	.db #0x00
   1DC6 70                 8307 	.db #0x70
   1DC7 00                 8308 	.db #0x00
   1DC8 00                 8309 	.db #0x00
   1DC9 00                 8310 	.db #0x00
   1DCA 00                 8311 	.db #0x00
   1DCB 00                 8312 	.db #0x00
   1DCC 00                 8313 	.db #0x00
   1DCD 00                 8314 	.db #0x00
   1DCE 00                 8315 	.db #0x00
   1DCF 00                 8316 	.db #0x00
   1DD0 00                 8317 	.db #0x00
   1DD1 00                 8318 	.db #0x00
   1DD2 00                 8319 	.db #0x00
   1DD3 00                 8320 	.db #0x00
   1DD4 00                 8321 	.db #0x00
   1DD5 00                 8322 	.db #0x00
   1DD6 00                 8323 	.db #0x00
   1DD7 00                 8324 	.db #0x00
   1DD8 8F                 8325 	.db #0x8F
   1DD9 42                 8326 	.db #0x42
   1DDA 90                 8327 	.db #0x90
   1DDB 91                 8328 	.db #0x91
   1DDC 92                 8329 	.db #0x92
   1DDD 93                 8330 	.db #0x93
   1DDE 62                 8331 	.db #0x62
   1DDF 00                 8332 	.db #0x00
   1DE0 00                 8333 	.db #0x00
   1DE1 00                 8334 	.db #0x00
   1DE2 00                 8335 	.db #0x00
   1DE3 00                 8336 	.db #0x00
   1DE4 00                 8337 	.db #0x00
   1DE5 00                 8338 	.db #0x00
   1DE6 00                 8339 	.db #0x00
   1DE7 00                 8340 	.db #0x00
   1DE8 00                 8341 	.db #0x00
   1DE9 00                 8342 	.db #0x00
   1DEA 00                 8343 	.db #0x00
   1DEB 00                 8344 	.db #0x00
   1DEC 00                 8345 	.db #0x00
   1DED 00                 8346 	.db #0x00
   1DEE 00                 8347 	.db #0x00
   1DEF 00                 8348 	.db #0x00
   1DF0 00                 8349 	.db #0x00
   1DF1 00                 8350 	.db #0x00
   1DF2 00                 8351 	.db #0x00
   1DF3 00                 8352 	.db #0x00
   1DF4 00                 8353 	.db #0x00
   1DF5 00                 8354 	.db #0x00
   1DF6 00                 8355 	.db #0x00
   1DF7 00                 8356 	.db #0x00
   1DF8 00                 8357 	.db #0x00
   1DF9 00                 8358 	.db #0x00
   1DFA 00                 8359 	.db #0x00
   1DFB 00                 8360 	.db #0x00
   1DFC 00                 8361 	.db #0x00
   1DFD 00                 8362 	.db #0x00
   1DFE 00                 8363 	.db #0x00
   1DFF 00                 8364 	.db #0x00
   1E00 00                 8365 	.db #0x00
   1E01 00                 8366 	.db #0x00
   1E02 00                 8367 	.db #0x00
   1E03 00                 8368 	.db #0x00
   1E04 00                 8369 	.db #0x00
   1E05 00                 8370 	.db #0x00
   1E06 00                 8371 	.db #0x00
   1E07 00                 8372 	.db #0x00
   1E08 00                 8373 	.db #0x00
   1E09 00                 8374 	.db #0x00
   1E0A 00                 8375 	.db #0x00
   1E0B 00                 8376 	.db #0x00
   1E0C 00                 8377 	.db #0x00
   1E0D 00                 8378 	.db #0x00
   1E0E 00                 8379 	.db #0x00
   1E0F 00                 8380 	.db #0x00
   1E10 13                 8381 	.db #0x13
   1E11 00                 8382 	.db #0x00
   1E12 00                 8383 	.db #0x00
   1E13 00                 8384 	.db #0x00
   1E14 00                 8385 	.db #0x00
   1E15 00                 8386 	.db #0x00
   1E16 70                 8387 	.db #0x70
   1E17 00                 8388 	.db #0x00
   1E18 00                 8389 	.db #0x00
   1E19 00                 8390 	.db #0x00
   1E1A 00                 8391 	.db #0x00
   1E1B 00                 8392 	.db #0x00
   1E1C 00                 8393 	.db #0x00
   1E1D 00                 8394 	.db #0x00
   1E1E 00                 8395 	.db #0x00
   1E1F 00                 8396 	.db #0x00
   1E20 00                 8397 	.db #0x00
   1E21 00                 8398 	.db #0x00
   1E22 00                 8399 	.db #0x00
   1E23 00                 8400 	.db #0x00
   1E24 00                 8401 	.db #0x00
   1E25 00                 8402 	.db #0x00
   1E26 00                 8403 	.db #0x00
   1E27 00                 8404 	.db #0x00
   1E28 8F                 8405 	.db #0x8F
   1E29 42                 8406 	.db #0x42
   1E2A 94                 8407 	.db #0x94
   1E2B 95                 8408 	.db #0x95
   1E2C 92                 8409 	.db #0x92
   1E2D 96                 8410 	.db #0x96
   1E2E 62                 8411 	.db #0x62
   1E2F 00                 8412 	.db #0x00
   1E30 00                 8413 	.db #0x00
   1E31 00                 8414 	.db #0x00
   1E32 00                 8415 	.db #0x00
   1E33 00                 8416 	.db #0x00
   1E34 00                 8417 	.db #0x00
   1E35 00                 8418 	.db #0x00
   1E36 00                 8419 	.db #0x00
   1E37 00                 8420 	.db #0x00
   1E38 00                 8421 	.db #0x00
   1E39 00                 8422 	.db #0x00
   1E3A 00                 8423 	.db #0x00
   1E3B 00                 8424 	.db #0x00
   1E3C 00                 8425 	.db #0x00
   1E3D 00                 8426 	.db #0x00
   1E3E 00                 8427 	.db #0x00
   1E3F 00                 8428 	.db #0x00
   1E40 00                 8429 	.db #0x00
   1E41 00                 8430 	.db #0x00
   1E42 00                 8431 	.db #0x00
   1E43 00                 8432 	.db #0x00
   1E44 00                 8433 	.db #0x00
   1E45 00                 8434 	.db #0x00
   1E46 00                 8435 	.db #0x00
   1E47 00                 8436 	.db #0x00
   1E48 00                 8437 	.db #0x00
   1E49 00                 8438 	.db #0x00
   1E4A 00                 8439 	.db #0x00
   1E4B 00                 8440 	.db #0x00
   1E4C 00                 8441 	.db #0x00
   1E4D 00                 8442 	.db #0x00
   1E4E 00                 8443 	.db #0x00
   1E4F 00                 8444 	.db #0x00
   1E50 00                 8445 	.db #0x00
   1E51 00                 8446 	.db #0x00
   1E52 00                 8447 	.db #0x00
   1E53 00                 8448 	.db #0x00
   1E54 00                 8449 	.db #0x00
   1E55 00                 8450 	.db #0x00
   1E56 00                 8451 	.db #0x00
   1E57 00                 8452 	.db #0x00
   1E58 00                 8453 	.db #0x00
   1E59 00                 8454 	.db #0x00
   1E5A 00                 8455 	.db #0x00
   1E5B 00                 8456 	.db #0x00
   1E5C 00                 8457 	.db #0x00
   1E5D 00                 8458 	.db #0x00
   1E5E 00                 8459 	.db #0x00
   1E5F 00                 8460 	.db #0x00
   1E60 13                 8461 	.db #0x13
   1E61 00                 8462 	.db #0x00
   1E62 00                 8463 	.db #0x00
   1E63 00                 8464 	.db #0x00
   1E64 00                 8465 	.db #0x00
   1E65 00                 8466 	.db #0x00
   1E66 70                 8467 	.db #0x70
   1E67 00                 8468 	.db #0x00
   1E68 00                 8469 	.db #0x00
   1E69 00                 8470 	.db #0x00
   1E6A 00                 8471 	.db #0x00
   1E6B 00                 8472 	.db #0x00
   1E6C 00                 8473 	.db #0x00
   1E6D 00                 8474 	.db #0x00
   1E6E 00                 8475 	.db #0x00
   1E6F 00                 8476 	.db #0x00
   1E70 00                 8477 	.db #0x00
   1E71 00                 8478 	.db #0x00
   1E72 00                 8479 	.db #0x00
   1E73 00                 8480 	.db #0x00
   1E74 00                 8481 	.db #0x00
   1E75 00                 8482 	.db #0x00
   1E76 00                 8483 	.db #0x00
   1E77 00                 8484 	.db #0x00
   1E78 97                 8485 	.db #0x97
   1E79 42                 8486 	.db #0x42
   1E7A 98                 8487 	.db #0x98
   1E7B 99                 8488 	.db #0x99
   1E7C 9A                 8489 	.db #0x9A
   1E7D 9B                 8490 	.db #0x9B
   1E7E 62                 8491 	.db #0x62
   1E7F 00                 8492 	.db #0x00
   1E80 00                 8493 	.db #0x00
   1E81 00                 8494 	.db #0x00
   1E82 00                 8495 	.db #0x00
   1E83 00                 8496 	.db #0x00
   1E84 00                 8497 	.db #0x00
   1E85 00                 8498 	.db #0x00
   1E86 00                 8499 	.db #0x00
   1E87 00                 8500 	.db #0x00
   1E88 00                 8501 	.db #0x00
   1E89 00                 8502 	.db #0x00
   1E8A 00                 8503 	.db #0x00
   1E8B 00                 8504 	.db #0x00
   1E8C 00                 8505 	.db #0x00
   1E8D 00                 8506 	.db #0x00
   1E8E 00                 8507 	.db #0x00
   1E8F 00                 8508 	.db #0x00
   1E90 00                 8509 	.db #0x00
   1E91 00                 8510 	.db #0x00
   1E92 00                 8511 	.db #0x00
   1E93 00                 8512 	.db #0x00
   1E94 00                 8513 	.db #0x00
   1E95 00                 8514 	.db #0x00
   1E96 00                 8515 	.db #0x00
   1E97 00                 8516 	.db #0x00
   1E98 00                 8517 	.db #0x00
   1E99 00                 8518 	.db #0x00
   1E9A 00                 8519 	.db #0x00
   1E9B 00                 8520 	.db #0x00
   1E9C 00                 8521 	.db #0x00
   1E9D 00                 8522 	.db #0x00
   1E9E 00                 8523 	.db #0x00
   1E9F 00                 8524 	.db #0x00
   1EA0 00                 8525 	.db #0x00
   1EA1 00                 8526 	.db #0x00
   1EA2 00                 8527 	.db #0x00
   1EA3 00                 8528 	.db #0x00
   1EA4 00                 8529 	.db #0x00
   1EA5 00                 8530 	.db #0x00
   1EA6 00                 8531 	.db #0x00
   1EA7 00                 8532 	.db #0x00
   1EA8 00                 8533 	.db #0x00
   1EA9 00                 8534 	.db #0x00
   1EAA 00                 8535 	.db #0x00
   1EAB 00                 8536 	.db #0x00
   1EAC 00                 8537 	.db #0x00
   1EAD 00                 8538 	.db #0x00
   1EAE 00                 8539 	.db #0x00
   1EAF 00                 8540 	.db #0x00
   1EB0 13                 8541 	.db #0x13
   1EB1 00                 8542 	.db #0x00
   1EB2 00                 8543 	.db #0x00
   1EB3 00                 8544 	.db #0x00
   1EB4 00                 8545 	.db #0x00
   1EB5 00                 8546 	.db #0x00
   1EB6 70                 8547 	.db #0x70
   1EB7 00                 8548 	.db #0x00
   1EB8 00                 8549 	.db #0x00
   1EB9 00                 8550 	.db #0x00
   1EBA 00                 8551 	.db #0x00
   1EBB 00                 8552 	.db #0x00
   1EBC 00                 8553 	.db #0x00
   1EBD 00                 8554 	.db #0x00
   1EBE 00                 8555 	.db #0x00
   1EBF 00                 8556 	.db #0x00
   1EC0 00                 8557 	.db #0x00
   1EC1 00                 8558 	.db #0x00
   1EC2 00                 8559 	.db #0x00
   1EC3 00                 8560 	.db #0x00
   1EC4 00                 8561 	.db #0x00
   1EC5 00                 8562 	.db #0x00
   1EC6 00                 8563 	.db #0x00
   1EC7 00                 8564 	.db #0x00
   1EC8 9C                 8565 	.db #0x9C
   1EC9 42                 8566 	.db #0x42
   1ECA 4F                 8567 	.db #0x4F
   1ECB 00                 8568 	.db #0x00
   1ECC 00                 8569 	.db #0x00
   1ECD 9D                 8570 	.db #0x9D
   1ECE 62                 8571 	.db #0x62
   1ECF 00                 8572 	.db #0x00
   1ED0 00                 8573 	.db #0x00
   1ED1 00                 8574 	.db #0x00
   1ED2 00                 8575 	.db #0x00
   1ED3 00                 8576 	.db #0x00
   1ED4 00                 8577 	.db #0x00
   1ED5 00                 8578 	.db #0x00
   1ED6 00                 8579 	.db #0x00
   1ED7 00                 8580 	.db #0x00
   1ED8 00                 8581 	.db #0x00
   1ED9 00                 8582 	.db #0x00
   1EDA 00                 8583 	.db #0x00
   1EDB 00                 8584 	.db #0x00
   1EDC 00                 8585 	.db #0x00
   1EDD 00                 8586 	.db #0x00
   1EDE 00                 8587 	.db #0x00
   1EDF 00                 8588 	.db #0x00
   1EE0 00                 8589 	.db #0x00
   1EE1 00                 8590 	.db #0x00
   1EE2 00                 8591 	.db #0x00
   1EE3 00                 8592 	.db #0x00
   1EE4 00                 8593 	.db #0x00
   1EE5 00                 8594 	.db #0x00
   1EE6 00                 8595 	.db #0x00
   1EE7 00                 8596 	.db #0x00
   1EE8 00                 8597 	.db #0x00
   1EE9 00                 8598 	.db #0x00
   1EEA 00                 8599 	.db #0x00
   1EEB 00                 8600 	.db #0x00
   1EEC 00                 8601 	.db #0x00
   1EED 00                 8602 	.db #0x00
   1EEE 00                 8603 	.db #0x00
   1EEF 00                 8604 	.db #0x00
   1EF0 00                 8605 	.db #0x00
   1EF1 00                 8606 	.db #0x00
   1EF2 00                 8607 	.db #0x00
   1EF3 00                 8608 	.db #0x00
   1EF4 00                 8609 	.db #0x00
   1EF5 00                 8610 	.db #0x00
   1EF6 00                 8611 	.db #0x00
   1EF7 00                 8612 	.db #0x00
   1EF8 00                 8613 	.db #0x00
   1EF9 00                 8614 	.db #0x00
   1EFA 00                 8615 	.db #0x00
   1EFB 00                 8616 	.db #0x00
   1EFC 00                 8617 	.db #0x00
   1EFD 00                 8618 	.db #0x00
   1EFE 00                 8619 	.db #0x00
   1EFF 00                 8620 	.db #0x00
   1F00 13                 8621 	.db #0x13
   1F01 00                 8622 	.db #0x00
   1F02 00                 8623 	.db #0x00
   1F03 00                 8624 	.db #0x00
   1F04 00                 8625 	.db #0x00
   1F05 00                 8626 	.db #0x00
   1F06 70                 8627 	.db #0x70
   1F07 00                 8628 	.db #0x00
   1F08 00                 8629 	.db #0x00
   1F09 00                 8630 	.db #0x00
   1F0A 00                 8631 	.db #0x00
   1F0B 00                 8632 	.db #0x00
   1F0C 00                 8633 	.db #0x00
   1F0D 00                 8634 	.db #0x00
   1F0E 00                 8635 	.db #0x00
   1F0F 00                 8636 	.db #0x00
   1F10 00                 8637 	.db #0x00
   1F11 00                 8638 	.db #0x00
   1F12 00                 8639 	.db #0x00
   1F13 00                 8640 	.db #0x00
   1F14 00                 8641 	.db #0x00
   1F15 00                 8642 	.db #0x00
   1F16 00                 8643 	.db #0x00
   1F17 00                 8644 	.db #0x00
   1F18 9E                 8645 	.db #0x9E
   1F19 42                 8646 	.db #0x42
   1F1A 9F                 8647 	.db #0x9F
   1F1B A0                 8648 	.db #0xA0
   1F1C A0                 8649 	.db #0xA0
   1F1D A1                 8650 	.db #0xA1
   1F1E 62                 8651 	.db #0x62
   1F1F 00                 8652 	.db #0x00
   1F20 00                 8653 	.db #0x00
   1F21 00                 8654 	.db #0x00
   1F22 00                 8655 	.db #0x00
   1F23 00                 8656 	.db #0x00
   1F24 00                 8657 	.db #0x00
   1F25 00                 8658 	.db #0x00
   1F26 00                 8659 	.db #0x00
   1F27 00                 8660 	.db #0x00
   1F28 00                 8661 	.db #0x00
   1F29 00                 8662 	.db #0x00
   1F2A 00                 8663 	.db #0x00
   1F2B 00                 8664 	.db #0x00
   1F2C 00                 8665 	.db #0x00
   1F2D 00                 8666 	.db #0x00
   1F2E 00                 8667 	.db #0x00
   1F2F 00                 8668 	.db #0x00
   1F30 00                 8669 	.db #0x00
   1F31 00                 8670 	.db #0x00
   1F32 00                 8671 	.db #0x00
   1F33 00                 8672 	.db #0x00
   1F34 00                 8673 	.db #0x00
   1F35 00                 8674 	.db #0x00
   1F36 00                 8675 	.db #0x00
   1F37 00                 8676 	.db #0x00
   1F38 00                 8677 	.db #0x00
   1F39 00                 8678 	.db #0x00
   1F3A 00                 8679 	.db #0x00
   1F3B 00                 8680 	.db #0x00
   1F3C 00                 8681 	.db #0x00
   1F3D 00                 8682 	.db #0x00
   1F3E 00                 8683 	.db #0x00
   1F3F 00                 8684 	.db #0x00
   1F40 00                 8685 	.db #0x00
   1F41 00                 8686 	.db #0x00
   1F42 00                 8687 	.db #0x00
   1F43 00                 8688 	.db #0x00
   1F44 00                 8689 	.db #0x00
   1F45 00                 8690 	.db #0x00
   1F46 00                 8691 	.db #0x00
   1F47 00                 8692 	.db #0x00
   1F48 00                 8693 	.db #0x00
   1F49 00                 8694 	.db #0x00
   1F4A 00                 8695 	.db #0x00
   1F4B 00                 8696 	.db #0x00
   1F4C 00                 8697 	.db #0x00
   1F4D 00                 8698 	.db #0x00
   1F4E 00                 8699 	.db #0x00
   1F4F 00                 8700 	.db #0x00
   1F50 A2                 8701 	.db #0xA2
   1F51 0B                 8702 	.db #0x0B
   1F52 0B                 8703 	.db #0x0B
   1F53 0B                 8704 	.db #0x0B
   1F54 0B                 8705 	.db #0x0B
   1F55 0B                 8706 	.db #0x0B
   1F56 A3                 8707 	.db #0xA3
   1F57 00                 8708 	.db #0x00
   1F58 00                 8709 	.db #0x00
   1F59 00                 8710 	.db #0x00
   1F5A 00                 8711 	.db #0x00
   1F5B 00                 8712 	.db #0x00
   1F5C 00                 8713 	.db #0x00
   1F5D 00                 8714 	.db #0x00
   1F5E 00                 8715 	.db #0x00
   1F5F 00                 8716 	.db #0x00
   1F60 00                 8717 	.db #0x00
   1F61 00                 8718 	.db #0x00
   1F62 00                 8719 	.db #0x00
   1F63 00                 8720 	.db #0x00
   1F64 A4                 8721 	.db #0xA4
   1F65 A5                 8722 	.db #0xA5
   1F66 A6                 8723 	.db #0xA6
   1F67 A7                 8724 	.db #0xA7
   1F68 A8                 8725 	.db #0xA8
   1F69 A9                 8726 	.db #0xA9
   1F6A A9                 8727 	.db #0xA9
   1F6B A9                 8728 	.db #0xA9
   1F6C AA                 8729 	.db #0xAA
   1F6D A9                 8730 	.db #0xA9
   1F6E A9                 8731 	.db #0xA9
   1F6F A9                 8732 	.db #0xA9
   1F70 A9                 8733 	.db #0xA9
   1F71 A9                 8734 	.db #0xA9
   1F72 A9                 8735 	.db #0xA9
   1F73 A9                 8736 	.db #0xA9
   1F74 A9                 8737 	.db #0xA9
   1F75 A9                 8738 	.db #0xA9
   1F76 A9                 8739 	.db #0xA9
   1F77 A9                 8740 	.db #0xA9
   1F78 A9                 8741 	.db #0xA9
   1F79 A9                 8742 	.db #0xA9
   1F7A A9                 8743 	.db #0xA9
   1F7B A9                 8744 	.db #0xA9
   1F7C A9                 8745 	.db #0xA9
   1F7D A9                 8746 	.db #0xA9
   1F7E A9                 8747 	.db #0xA9
   1F7F A9                 8748 	.db #0xA9
   1F80 A9                 8749 	.db #0xA9
   1F81 A9                 8750 	.db #0xA9
   1F82 A9                 8751 	.db #0xA9
   1F83 A9                 8752 	.db #0xA9
   1F84 A9                 8753 	.db #0xA9
   1F85 A9                 8754 	.db #0xA9
   1F86 A9                 8755 	.db #0xA9
   1F87 A9                 8756 	.db #0xA9
   1F88 A9                 8757 	.db #0xA9
   1F89 A9                 8758 	.db #0xA9
   1F8A A9                 8759 	.db #0xA9
   1F8B A9                 8760 	.db #0xA9
   1F8C A9                 8761 	.db #0xA9
   1F8D A9                 8762 	.db #0xA9
   1F8E A9                 8763 	.db #0xA9
   1F8F A9                 8764 	.db #0xA9
   1F90 A9                 8765 	.db #0xA9
   1F91 A9                 8766 	.db #0xA9
   1F92 A9                 8767 	.db #0xA9
   1F93 A9                 8768 	.db #0xA9
   1F94 A9                 8769 	.db #0xA9
   1F95 A9                 8770 	.db #0xA9
   1F96 A9                 8771 	.db #0xA9
   1F97 A9                 8772 	.db #0xA9
   1F98 A9                 8773 	.db #0xA9
   1F99 A9                 8774 	.db #0xA9
   1F9A A9                 8775 	.db #0xA9
   1F9B A9                 8776 	.db #0xA9
   1F9C A9                 8777 	.db #0xA9
   1F9D A9                 8778 	.db #0xA9
   1F9E A9                 8779 	.db #0xA9
   1F9F A9                 8780 	.db #0xA9
   1FA0 A9                 8781 	.db #0xA9
   1FA1 A9                 8782 	.db #0xA9
   1FA2 A9                 8783 	.db #0xA9
   1FA3 A9                 8784 	.db #0xA9
   1FA4 A9                 8785 	.db #0xA9
   1FA5 A9                 8786 	.db #0xA9
   1FA6 A9                 8787 	.db #0xA9
   1FA7 A9                 8788 	.db #0xA9
   1FA8 A9                 8789 	.db #0xA9
   1FA9 A9                 8790 	.db #0xA9
   1FAA A9                 8791 	.db #0xA9
   1FAB A9                 8792 	.db #0xA9
   1FAC A9                 8793 	.db #0xA9
   1FAD A9                 8794 	.db #0xA9
   1FAE A9                 8795 	.db #0xA9
   1FAF A9                 8796 	.db #0xA9
   1FB0 A9                 8797 	.db #0xA9
   1FB1 A9                 8798 	.db #0xA9
   1FB2 A9                 8799 	.db #0xA9
   1FB3 A9                 8800 	.db #0xA9
   1FB4 A9                 8801 	.db #0xA9
   1FB5 A9                 8802 	.db #0xA9
   1FB6 A9                 8803 	.db #0xA9
   1FB7 A9                 8804 	.db #0xA9
   1FB8 A9                 8805 	.db #0xA9
   1FB9 AB                 8806 	.db #0xAB
   1FBA AB                 8807 	.db #0xAB
   1FBB AB                 8808 	.db #0xAB
   1FBC AB                 8809 	.db #0xAB
   1FBD AB                 8810 	.db #0xAB
   1FBE AB                 8811 	.db #0xAB
   1FBF AB                 8812 	.db #0xAB
   1FC0 AB                 8813 	.db #0xAB
   1FC1 AB                 8814 	.db #0xAB
   1FC2 AB                 8815 	.db #0xAB
   1FC3 AB                 8816 	.db #0xAB
   1FC4 AB                 8817 	.db #0xAB
   1FC5 AB                 8818 	.db #0xAB
   1FC6 AB                 8819 	.db #0xAB
   1FC7 AB                 8820 	.db #0xAB
   1FC8 AB                 8821 	.db #0xAB
   1FC9 AB                 8822 	.db #0xAB
   1FCA AB                 8823 	.db #0xAB
   1FCB AB                 8824 	.db #0xAB
   1FCC AB                 8825 	.db #0xAB
   1FCD AB                 8826 	.db #0xAB
   1FCE AB                 8827 	.db #0xAB
   1FCF AB                 8828 	.db #0xAB
   1FD0 AB                 8829 	.db #0xAB
   1FD1 AB                 8830 	.db #0xAB
   1FD2 AB                 8831 	.db #0xAB
   1FD3 AB                 8832 	.db #0xAB
   1FD4 AB                 8833 	.db #0xAB
   1FD5 AB                 8834 	.db #0xAB
   1FD6 AB                 8835 	.db #0xAB
   1FD7 AB                 8836 	.db #0xAB
   1FD8 AB                 8837 	.db #0xAB
   1FD9 AB                 8838 	.db #0xAB
   1FDA AB                 8839 	.db #0xAB
   1FDB AB                 8840 	.db #0xAB
   1FDC AB                 8841 	.db #0xAB
   1FDD AB                 8842 	.db #0xAB
   1FDE AB                 8843 	.db #0xAB
   1FDF AB                 8844 	.db #0xAB
   1FE0 AB                 8845 	.db #0xAB
   1FE1 AB                 8846 	.db #0xAB
   1FE2 AB                 8847 	.db #0xAB
   1FE3 AB                 8848 	.db #0xAB
   1FE4 AB                 8849 	.db #0xAB
   1FE5 AB                 8850 	.db #0xAB
   1FE6 AB                 8851 	.db #0xAB
   1FE7 AB                 8852 	.db #0xAB
   1FE8 AB                 8853 	.db #0xAB
   1FE9 AB                 8854 	.db #0xAB
   1FEA AB                 8855 	.db #0xAB
   1FEB AB                 8856 	.db #0xAB
   1FEC AB                 8857 	.db #0xAB
   1FED AB                 8858 	.db #0xAB
   1FEE AB                 8859 	.db #0xAB
   1FEF AB                 8860 	.db #0xAB
   1FF0 AB                 8861 	.db #0xAB
   1FF1 AB                 8862 	.db #0xAB
   1FF2 AB                 8863 	.db #0xAB
   1FF3 AB                 8864 	.db #0xAB
   1FF4 AB                 8865 	.db #0xAB
   1FF5 AB                 8866 	.db #0xAB
   1FF6 AB                 8867 	.db #0xAB
   1FF7 AB                 8868 	.db #0xAB
   1FF8 AB                 8869 	.db #0xAB
   1FF9 AB                 8870 	.db #0xAB
   1FFA AB                 8871 	.db #0xAB
   1FFB AB                 8872 	.db #0xAB
   1FFC AB                 8873 	.db #0xAB
   1FFD AB                 8874 	.db #0xAB
   1FFE AB                 8875 	.db #0xAB
   1FFF AB                 8876 	.db #0xAB
   2000 AB                 8877 	.db #0xAB
   2001 AB                 8878 	.db #0xAB
   2002 AB                 8879 	.db #0xAB
   2003 AB                 8880 	.db #0xAB
   2004 AB                 8881 	.db #0xAB
   2005 AB                 8882 	.db #0xAB
   2006 AB                 8883 	.db #0xAB
   2007 AB                 8884 	.db #0xAB
   2008 AB                 8885 	.db #0xAB
   2009 AB                 8886 	.db #0xAB
   200A AB                 8887 	.db #0xAB
   200B AB                 8888 	.db #0xAB
   200C AB                 8889 	.db #0xAB
   200D AB                 8890 	.db #0xAB
   200E AB                 8891 	.db #0xAB
   200F AB                 8892 	.db #0xAB
   2010 AB                 8893 	.db #0xAB
   2011 AB                 8894 	.db #0xAB
   2012 AB                 8895 	.db #0xAB
   2013 AB                 8896 	.db #0xAB
   2014 AB                 8897 	.db #0xAB
   2015 AB                 8898 	.db #0xAB
   2016 AB                 8899 	.db #0xAB
   2017 AB                 8900 	.db #0xAB
   2018 AB                 8901 	.db #0xAB
   2019 AB                 8902 	.db #0xAB
   201A AB                 8903 	.db #0xAB
   201B AB                 8904 	.db #0xAB
   201C AB                 8905 	.db #0xAB
   201D AB                 8906 	.db #0xAB
   201E AB                 8907 	.db #0xAB
   201F AB                 8908 	.db #0xAB
   2020 AB                 8909 	.db #0xAB
   2021 AB                 8910 	.db #0xAB
   2022 AB                 8911 	.db #0xAB
   2023 AB                 8912 	.db #0xAB
   2024 AB                 8913 	.db #0xAB
   2025 AB                 8914 	.db #0xAB
   2026 AB                 8915 	.db #0xAB
   2027 AB                 8916 	.db #0xAB
   2028 AB                 8917 	.db #0xAB
   2029 AB                 8918 	.db #0xAB
   202A AB                 8919 	.db #0xAB
   202B AB                 8920 	.db #0xAB
   202C AB                 8921 	.db #0xAB
   202D AB                 8922 	.db #0xAB
   202E AB                 8923 	.db #0xAB
   202F AB                 8924 	.db #0xAB
   2030 AB                 8925 	.db #0xAB
   2031 AB                 8926 	.db #0xAB
   2032 AB                 8927 	.db #0xAB
   2033 AB                 8928 	.db #0xAB
   2034 AB                 8929 	.db #0xAB
   2035 AB                 8930 	.db #0xAB
   2036 AB                 8931 	.db #0xAB
   2037 AB                 8932 	.db #0xAB
   2038 AB                 8933 	.db #0xAB
   2039 AB                 8934 	.db #0xAB
   203A AB                 8935 	.db #0xAB
   203B AB                 8936 	.db #0xAB
   203C AB                 8937 	.db #0xAB
   203D AB                 8938 	.db #0xAB
   203E AB                 8939 	.db #0xAB
   203F AB                 8940 	.db #0xAB
   2040 AB                 8941 	.db #0xAB
   2041 AB                 8942 	.db #0xAB
   2042 AB                 8943 	.db #0xAB
   2043 AB                 8944 	.db #0xAB
   2044 AB                 8945 	.db #0xAB
   2045 AB                 8946 	.db #0xAB
   2046 AB                 8947 	.db #0xAB
   2047 AB                 8948 	.db #0xAB
   2048 AB                 8949 	.db #0xAB
   2049 AB                 8950 	.db #0xAB
   204A AB                 8951 	.db #0xAB
   204B AB                 8952 	.db #0xAB
   204C AB                 8953 	.db #0xAB
   204D AB                 8954 	.db #0xAB
   204E AB                 8955 	.db #0xAB
   204F AB                 8956 	.db #0xAB
   2050 AB                 8957 	.db #0xAB
   2051 AB                 8958 	.db #0xAB
   2052 AB                 8959 	.db #0xAB
   2053 AB                 8960 	.db #0xAB
   2054 AB                 8961 	.db #0xAB
   2055 AB                 8962 	.db #0xAB
   2056 AB                 8963 	.db #0xAB
   2057 AB                 8964 	.db #0xAB
   2058 AB                 8965 	.db #0xAB
   2059                    8966 _fontTiles:
   2059 0D                 8967 	.db #0x0D
   205A 10                 8968 	.db #0x10
   205B 0C                 8969 	.db #0x0C
   205C 23                 8970 	.db #0x23
   205D                    8971 _beasprite:
   205D 9F                 8972 	.db #0x9F
   205E 7F                 8973 	.db #0x7F
   205F DF                 8974 	.db #0xDF
   2060 3F                 8975 	.db #0x3F
   2061 3F                 8976 	.db #0x3F
   2062 FF                 8977 	.db #0xFF
   2063 FF                 8978 	.db #0xFF
   2064 FF                 8979 	.db #0xFF
   2065 FF                 8980 	.db #0xFF
   2066 FF                 8981 	.db #0xFF
   2067 FF                 8982 	.db #0xFF
   2068 FF                 8983 	.db #0xFF
   2069 FF                 8984 	.db #0xFF
   206A FF                 8985 	.db #0xFF
   206B FF                 8986 	.db #0xFF
   206C FF                 8987 	.db #0xFF
   206D FF                 8988 	.db #0xFF
   206E FF                 8989 	.db #0xFF
   206F FF                 8990 	.db #0xFF
   2070 FF                 8991 	.db #0xFF
   2071 FF                 8992 	.db #0xFF
   2072 FF                 8993 	.db #0xFF
   2073 FE                 8994 	.db #0xFE
   2074 FF                 8995 	.db #0xFF
   2075 FD                 8996 	.db #0xFD
   2076 FE                 8997 	.db #0xFE
   2077 F1                 8998 	.db #0xF1
   2078 FE                 8999 	.db #0xFE
   2079 F1                 9000 	.db #0xF1
   207A FE                 9001 	.db #0xFE
   207B F3                 9002 	.db #0xF3
   207C FC                 9003 	.db #0xFC
   207D FF                 9004 	.db #0xFF
   207E FF                 9005 	.db #0xFF
   207F FF                 9006 	.db #0xFF
   2080 FF                 9007 	.db #0xFF
   2081 0F                 9008 	.db #0x0F
   2082 FF                 9009 	.db #0xFF
   2083 FB                 9010 	.db #0xFB
   2084 07                 9011 	.db #0x07
   2085 FD                 9012 	.db #0xFD
   2086 03                 9013 	.db #0x03
   2087 FE                 9014 	.db #0xFE
   2088 01                 9015 	.db #0x01
   2089 FF                 9016 	.db #0xFF
   208A 00                 9017 	.db #0x00
   208B FF                 9018 	.db #0xFF
   208C 00                 9019 	.db #0x00
   208D F4                 9020 	.db #0xF4
   208E F8                 9021 	.db #0xF8
   208F FB                 9022 	.db #0xFB
   2090 FC                 9023 	.db #0xFC
   2091 F9                 9024 	.db #0xF9
   2092 FE                 9025 	.db #0xFE
   2093 FE                 9026 	.db #0xFE
   2094 FF                 9027 	.db #0xFF
   2095 FE                 9028 	.db #0xFE
   2096 FF                 9029 	.db #0xFF
   2097 FF                 9030 	.db #0xFF
   2098 FF                 9031 	.db #0xFF
   2099 7F                 9032 	.db #0x7F
   209A FF                 9033 	.db #0xFF
   209B 3F                 9034 	.db #0x3F
   209C FF                 9035 	.db #0xFF
   209D FF                 9036 	.db #0xFF
   209E FF                 9037 	.db #0xFF
   209F FF                 9038 	.db #0xFF
   20A0 FF                 9039 	.db #0xFF
   20A1 FF                 9040 	.db #0xFF
   20A2 FF                 9041 	.db #0xFF
   20A3 FF                 9042 	.db #0xFF
   20A4 FF                 9043 	.db #0xFF
   20A5 FF                 9044 	.db #0xFF
   20A6 FF                 9045 	.db #0xFF
   20A7 FF                 9046 	.db #0xFF
   20A8 FF                 9047 	.db #0xFF
   20A9 FF                 9048 	.db #0xFF
   20AA FF                 9049 	.db #0xFF
   20AB FF                 9050 	.db #0xFF
   20AC FF                 9051 	.db #0xFF
   20AD 83                 9052 	.db #0x83
   20AE FC                 9053 	.db #0xFC
   20AF B3                 9054 	.db #0xB3
   20B0 FC                 9055 	.db #0xFC
   20B1 7C                 9056 	.db #0x7C
   20B2 FF                 9057 	.db #0xFF
   20B3 C0                 9058 	.db #0xC0
   20B4 FF                 9059 	.db #0xFF
   20B5 C0                 9060 	.db #0xC0
   20B6 FF                 9061 	.db #0xFF
   20B7 FF                 9062 	.db #0xFF
   20B8 FF                 9063 	.db #0xFF
   20B9 FB                 9064 	.db #0xFB
   20BA FF                 9065 	.db #0xFF
   20BB FC                 9066 	.db #0xFC
   20BC FF                 9067 	.db #0xFF
   20BD FF                 9068 	.db #0xFF
   20BE 00                 9069 	.db #0x00
   20BF E0                 9070 	.db #0xE0
   20C0 1F                 9071 	.db #0x1F
   20C1 C0                 9072 	.db #0xC0
   20C2 3F                 9073 	.db #0x3F
   20C3 C3                 9074 	.db #0xC3
   20C4 3C                 9075 	.db #0x3C
   20C5 C0                 9076 	.db #0xC0
   20C6 3F                 9077 	.db #0x3F
   20C7 1D                 9078 	.db #0x1D
   20C8 FF                 9079 	.db #0xFF
   20C9 EC                 9080 	.db #0xEC
   20CA FF                 9081 	.db #0xFF
   20CB 40                 9082 	.db #0x40
   20CC BF                 9083 	.db #0xBF
   20CD BF                 9084 	.db #0xBF
   20CE 7F                 9085 	.db #0x7F
   20CF BF                 9086 	.db #0xBF
   20D0 7F                 9087 	.db #0x7F
   20D1 3F                 9088 	.db #0x3F
   20D2 FF                 9089 	.db #0xFF
   20D3 DF                 9090 	.db #0xDF
   20D4 3F                 9091 	.db #0x3F
   20D5 1F                 9092 	.db #0x1F
   20D6 FF                 9093 	.db #0xFF
   20D7 3F                 9094 	.db #0x3F
   20D8 FF                 9095 	.db #0xFF
   20D9 3F                 9096 	.db #0x3F
   20DA FF                 9097 	.db #0xFF
   20DB 9F                 9098 	.db #0x9F
   20DC 7F                 9099 	.db #0x7F
   20DD FF                 9100 	.db #0xFF
   20DE FF                 9101 	.db #0xFF
   20DF FF                 9102 	.db #0xFF
   20E0 FF                 9103 	.db #0xFF
   20E1 FF                 9104 	.db #0xFF
   20E2 FF                 9105 	.db #0xFF
   20E3 FF                 9106 	.db #0xFF
   20E4 FF                 9107 	.db #0xFF
   20E5 FF                 9108 	.db #0xFF
   20E6 FF                 9109 	.db #0xFF
   20E7 FF                 9110 	.db #0xFF
   20E8 FF                 9111 	.db #0xFF
   20E9 FF                 9112 	.db #0xFF
   20EA FF                 9113 	.db #0xFF
   20EB FF                 9114 	.db #0xFF
   20EC FF                 9115 	.db #0xFF
   20ED 80                 9116 	.db #0x80
   20EE FF                 9117 	.db #0xFF
   20EF 00                 9118 	.db #0x00
   20F0 FF                 9119 	.db #0xFF
   20F1 00                 9120 	.db #0x00
   20F2 FF                 9121 	.db #0xFF
   20F3 10                 9122 	.db #0x10
   20F4 EF                 9123 	.db #0xEF
   20F5 00                 9124 	.db #0x00
   20F6 FF                 9125 	.db #0xFF
   20F7 00                 9126 	.db #0x00
   20F8 FF                 9127 	.db #0xFF
   20F9 F8                 9128 	.db #0xF8
   20FA FF                 9129 	.db #0xFF
   20FB FE                 9130 	.db #0xFE
   20FC FF                 9131 	.db #0xFF
   20FD 8D                 9132 	.db #0x8D
   20FE 32                 9133 	.db #0x32
   20FF A0                 9134 	.db #0xA0
   2100 1F                 9135 	.db #0x1F
   2101 73                 9136 	.db #0x73
   2102 8C                 9137 	.db #0x8C
   2103 A1                 9138 	.db #0xA1
   2104 FE                 9139 	.db #0xFE
   2105 02                 9140 	.db #0x02
   2106 FF                 9141 	.db #0xFF
   2107 1B                 9142 	.db #0x1B
   2108 E7                 9143 	.db #0xE7
   2109 01                 9144 	.db #0x01
   210A FF                 9145 	.db #0xFF
   210B 67                 9146 	.db #0x67
   210C 9F                 9147 	.db #0x9F
   210D 8F                 9148 	.db #0x8F
   210E 7F                 9149 	.db #0x7F
   210F 5F                 9150 	.db #0x5F
   2110 BF                 9151 	.db #0xBF
   2111 DF                 9152 	.db #0xDF
   2112 3F                 9153 	.db #0x3F
   2113 9F                 9154 	.db #0x9F
   2114 7F                 9155 	.db #0x7F
   2115 1F                 9156 	.db #0x1F
   2116 FF                 9157 	.db #0xFF
   2117 3F                 9158 	.db #0x3F
   2118 FF                 9159 	.db #0xFF
   2119 FF                 9160 	.db #0xFF
   211A FF                 9161 	.db #0xFF
   211B 7F                 9162 	.db #0x7F
   211C FF                 9163 	.db #0xFF
   211D FF                 9164 	.db #0xFF
   211E FF                 9165 	.db #0xFF
   211F FF                 9166 	.db #0xFF
   2120 FF                 9167 	.db #0xFF
   2121 FF                 9168 	.db #0xFF
   2122 FF                 9169 	.db #0xFF
   2123 FF                 9170 	.db #0xFF
   2124 FF                 9171 	.db #0xFF
   2125 FF                 9172 	.db #0xFF
   2126 FF                 9173 	.db #0xFF
   2127 FF                 9174 	.db #0xFF
   2128 FF                 9175 	.db #0xFF
   2129 FF                 9176 	.db #0xFF
   212A FF                 9177 	.db #0xFF
   212B FF                 9178 	.db #0xFF
   212C FF                 9179 	.db #0xFF
   212D CF                 9180 	.db #0xCF
   212E FF                 9181 	.db #0xFF
   212F C7                 9182 	.db #0xC7
   2130 FF                 9183 	.db #0xFF
   2131 E0                 9184 	.db #0xE0
   2132 FF                 9185 	.db #0xFF
   2133 E0                 9186 	.db #0xE0
   2134 FF                 9187 	.db #0xFF
   2135 E0                 9188 	.db #0xE0
   2136 FF                 9189 	.db #0xFF
   2137 E0                 9190 	.db #0xE0
   2138 FF                 9191 	.db #0xFF
   2139 E0                 9192 	.db #0xE0
   213A FF                 9193 	.db #0xFF
   213B F1                 9194 	.db #0xF1
   213C FE                 9195 	.db #0xFE
   213D BE                 9196 	.db #0xBE
   213E FF                 9197 	.db #0xFF
   213F FC                 9198 	.db #0xFC
   2140 FF                 9199 	.db #0xFF
   2141 00                 9200 	.db #0x00
   2142 FF                 9201 	.db #0xFF
   2143 E0                 9202 	.db #0xE0
   2144 1F                 9203 	.db #0x1F
   2145 00                 9204 	.db #0x00
   2146 FF                 9205 	.db #0xFF
   2147 00                 9206 	.db #0x00
   2148 FF                 9207 	.db #0xFF
   2149 08                 9208 	.db #0x08
   214A F7                 9209 	.db #0xF7
   214B F1                 9210 	.db #0xF1
   214C 0F                 9211 	.db #0x0F
   214D 7F                 9212 	.db #0x7F
   214E FF                 9213 	.db #0xFF
   214F FF                 9214 	.db #0xFF
   2150 FF                 9215 	.db #0xFF
   2151 FF                 9216 	.db #0xFF
   2152 FF                 9217 	.db #0xFF
   2153 FF                 9218 	.db #0xFF
   2154 FF                 9219 	.db #0xFF
   2155 7F                 9220 	.db #0x7F
   2156 FF                 9221 	.db #0xFF
   2157 FF                 9222 	.db #0xFF
   2158 FF                 9223 	.db #0xFF
   2159 FF                 9224 	.db #0xFF
   215A FF                 9225 	.db #0xFF
   215B FF                 9226 	.db #0xFF
   215C FF                 9227 	.db #0xFF
   215D                    9228 _tiosprite:
   215D FF                 9229 	.db #0xFF
   215E FF                 9230 	.db #0xFF
   215F 80                 9231 	.db #0x80
   2160 80                 9232 	.db #0x80
   2161 80                 9233 	.db #0x80
   2162 80                 9234 	.db #0x80
   2163 F8                 9235 	.db #0xF8
   2164 F8                 9236 	.db #0xF8
   2165 FF                 9237 	.db #0xFF
   2166 FF                 9238 	.db #0xFF
   2167 D8                 9239 	.db #0xD8
   2168 D8                 9240 	.db #0xD8
   2169 D8                 9241 	.db #0xD8
   216A D8                 9242 	.db #0xD8
   216B F8                 9243 	.db #0xF8
   216C F9                 9244 	.db #0xF9
   216D FF                 9245 	.db #0xFF
   216E FF                 9246 	.db #0xFF
   216F 01                 9247 	.db #0x01
   2170 01                 9248 	.db #0x01
   2171 01                 9249 	.db #0x01
   2172 01                 9250 	.db #0x01
   2173 1F                 9251 	.db #0x1F
   2174 1F                 9252 	.db #0x1F
   2175 FF                 9253 	.db #0xFF
   2176 FF                 9254 	.db #0xFF
   2177 19                 9255 	.db #0x19
   2178 19                 9256 	.db #0x19
   2179 19                 9257 	.db #0x19
   217A 19                 9258 	.db #0x19
   217B 1F                 9259 	.db #0x1F
   217C 9F                 9260 	.db #0x9F
   217D 80                 9261 	.db #0x80
   217E 81                 9262 	.db #0x81
   217F 80                 9263 	.db #0x80
   2180 80                 9264 	.db #0x80
   2181 80                 9265 	.db #0x80
   2182 80                 9266 	.db #0x80
   2183 80                 9267 	.db #0x80
   2184 80                 9268 	.db #0x80
   2185 8F                 9269 	.db #0x8F
   2186 8F                 9270 	.db #0x8F
   2187 88                 9271 	.db #0x88
   2188 88                 9272 	.db #0x88
   2189 8F                 9273 	.db #0x8F
   218A 8F                 9274 	.db #0x8F
   218B 80                 9275 	.db #0x80
   218C 80                 9276 	.db #0x80
   218D 01                 9277 	.db #0x01
   218E 81                 9278 	.db #0x81
   218F 01                 9279 	.db #0x01
   2190 01                 9280 	.db #0x01
   2191 01                 9281 	.db #0x01
   2192 01                 9282 	.db #0x01
   2193 01                 9283 	.db #0x01
   2194 01                 9284 	.db #0x01
   2195 F1                 9285 	.db #0xF1
   2196 F1                 9286 	.db #0xF1
   2197 11                 9287 	.db #0x11
   2198 11                 9288 	.db #0x11
   2199 F1                 9289 	.db #0xF1
   219A F1                 9290 	.db #0xF1
   219B 01                 9291 	.db #0x01
   219C 01                 9292 	.db #0x01
   219D FF                 9293 	.db #0xFF
   219E FF                 9294 	.db #0xFF
   219F 08                 9295 	.db #0x08
   21A0 08                 9296 	.db #0x08
   21A1 8B                 9297 	.db #0x8B
   21A2 8B                 9298 	.db #0x8B
   21A3 FA                 9299 	.db #0xFA
   21A4 FA                 9300 	.db #0xFA
   21A5 8A                 9301 	.db #0x8A
   21A6 8A                 9302 	.db #0x8A
   21A7 3A                 9303 	.db #0x3A
   21A8 3A                 9304 	.db #0x3A
   21A9 62                 9305 	.db #0x62
   21AA 62                 9306 	.db #0x62
   21AB C2                 9307 	.db #0xC2
   21AC C2                 9308 	.db #0xC2
   21AD FF                 9309 	.db #0xFF
   21AE FF                 9310 	.db #0xFF
   21AF 10                 9311 	.db #0x10
   21B0 10                 9312 	.db #0x10
   21B1 D1                 9313 	.db #0xD1
   21B2 D1                 9314 	.db #0xD1
   21B3 5F                 9315 	.db #0x5F
   21B4 5F                 9316 	.db #0x5F
   21B5 51                 9317 	.db #0x51
   21B6 51                 9318 	.db #0x51
   21B7 DC                 9319 	.db #0xDC
   21B8 DC                 9320 	.db #0xDC
   21B9 66                 9321 	.db #0x66
   21BA 66                 9322 	.db #0x66
   21BB 23                 9323 	.db #0x23
   21BC 23                 9324 	.db #0x23
   21BD FF                 9325 	.db #0xFF
   21BE FF                 9326 	.db #0xFF
   21BF 1C                 9327 	.db #0x1C
   21C0 1C                 9328 	.db #0x1C
   21C1 1C                 9329 	.db #0x1C
   21C2 1C                 9330 	.db #0x1C
   21C3 1C                 9331 	.db #0x1C
   21C4 1C                 9332 	.db #0x1C
   21C5 1C                 9333 	.db #0x1C
   21C6 1C                 9334 	.db #0x1C
   21C7 1C                 9335 	.db #0x1C
   21C8 1C                 9336 	.db #0x1C
   21C9 3E                 9337 	.db #0x3E
   21CA 3E                 9338 	.db #0x3E
   21CB 3C                 9339 	.db #0x3C
   21CC 3C                 9340 	.db #0x3C
   21CD FF                 9341 	.db #0xFF
   21CE FF                 9342 	.db #0xFF
   21CF 38                 9343 	.db #0x38
   21D0 38                 9344 	.db #0x38
   21D1 38                 9345 	.db #0x38
   21D2 38                 9346 	.db #0x38
   21D3 38                 9347 	.db #0x38
   21D4 38                 9348 	.db #0x38
   21D5 38                 9349 	.db #0x38
   21D6 38                 9350 	.db #0x38
   21D7 38                 9351 	.db #0x38
   21D8 38                 9352 	.db #0x38
   21D9 7C                 9353 	.db #0x7C
   21DA 7C                 9354 	.db #0x7C
   21DB 3C                 9355 	.db #0x3C
   21DC 3C                 9356 	.db #0x3C
   21DD                    9357 _bulletSprite:
   21DD 00                 9358 	.db #0x00
   21DE 00                 9359 	.db #0x00
   21DF 00                 9360 	.db #0x00
   21E0 00                 9361 	.db #0x00
   21E1 7F                 9362 	.db #0x7F
   21E2 7F                 9363 	.db #0x7F
   21E3 C3                 9364 	.db #0xC3
   21E4 FF                 9365 	.db #0xFF
   21E5 83                 9366 	.db #0x83
   21E6 BF                 9367 	.db #0xBF
   21E7 C3                 9368 	.db #0xC3
   21E8 CF                 9369 	.db #0xCF
   21E9 7F                 9370 	.db #0x7F
   21EA 7F                 9371 	.db #0x7F
   21EB 00                 9372 	.db #0x00
   21EC 00                 9373 	.db #0x00
   21ED                    9374 _bulletSprite2:
   21ED 18                 9375 	.db #0x18
   21EE 18                 9376 	.db #0x18
   21EF 24                 9377 	.db #0x24
   21F0 24                 9378 	.db #0x24
   21F1 42                 9379 	.db #0x42
   21F2 42                 9380 	.db #0x42
   21F3 C3                 9381 	.db #0xC3
   21F4 C3                 9382 	.db #0xC3
   21F5 FF                 9383 	.db #0xFF
   21F6 FF                 9384 	.db #0xFF
   21F7 FF                 9385 	.db #0xFF
   21F8 FF                 9386 	.db #0xFF
   21F9 FF                 9387 	.db #0xFF
   21FA FF                 9388 	.db #0xFF
   21FB FF                 9389 	.db #0xFF
   21FC FF                 9390 	.db #0xFF
   21FD                    9391 _splashscreen3_data:
   21FD 00                 9392 	.db #0x00
   21FE FF                 9393 	.db #0xFF
   21FF 00                 9394 	.db #0x00
   2200 FF                 9395 	.db #0xFF
   2201 00                 9396 	.db #0x00
   2202 FF                 9397 	.db #0xFF
   2203 00                 9398 	.db #0x00
   2204 FF                 9399 	.db #0xFF
   2205 00                 9400 	.db #0x00
   2206 FF                 9401 	.db #0xFF
   2207 00                 9402 	.db #0x00
   2208 FF                 9403 	.db #0xFF
   2209 00                 9404 	.db #0x00
   220A FF                 9405 	.db #0xFF
   220B 00                 9406 	.db #0x00
   220C FF                 9407 	.db #0xFF
   220D 00                 9408 	.db #0x00
   220E FF                 9409 	.db #0xFF
   220F 00                 9410 	.db #0x00
   2210 FF                 9411 	.db #0xFF
   2211 00                 9412 	.db #0x00
   2212 FF                 9413 	.db #0xFF
   2213 00                 9414 	.db #0x00
   2214 FF                 9415 	.db #0xFF
   2215 00                 9416 	.db #0x00
   2216 FF                 9417 	.db #0xFF
   2217 01                 9418 	.db #0x01
   2218 FF                 9419 	.db #0xFF
   2219 01                 9420 	.db #0x01
   221A FF                 9421 	.db #0xFF
   221B 06                 9422 	.db #0x06
   221C FF                 9423 	.db #0xFF
   221D 00                 9424 	.db #0x00
   221E FF                 9425 	.db #0xFF
   221F 00                 9426 	.db #0x00
   2220 FF                 9427 	.db #0xFF
   2221 00                 9428 	.db #0x00
   2222 FF                 9429 	.db #0xFF
   2223 00                 9430 	.db #0x00
   2224 FF                 9431 	.db #0xFF
   2225 00                 9432 	.db #0x00
   2226 FF                 9433 	.db #0xFF
   2227 00                 9434 	.db #0x00
   2228 FF                 9435 	.db #0xFF
   2229 80                 9436 	.db #0x80
   222A FF                 9437 	.db #0xFF
   222B C4                 9438 	.db #0xC4
   222C FF                 9439 	.db #0xFF
   222D 00                 9440 	.db #0x00
   222E FF                 9441 	.db #0xFF
   222F 00                 9442 	.db #0x00
   2230 FF                 9443 	.db #0xFF
   2231 00                 9444 	.db #0x00
   2232 FF                 9445 	.db #0xFF
   2233 00                 9446 	.db #0x00
   2234 FF                 9447 	.db #0xFF
   2235 00                 9448 	.db #0x00
   2236 FF                 9449 	.db #0xFF
   2237 00                 9450 	.db #0x00
   2238 FF                 9451 	.db #0xFF
   2239 10                 9452 	.db #0x10
   223A FF                 9453 	.db #0xFF
   223B 18                 9454 	.db #0x18
   223C FF                 9455 	.db #0xFF
   223D 00                 9456 	.db #0x00
   223E FF                 9457 	.db #0xFF
   223F 00                 9458 	.db #0x00
   2240 FF                 9459 	.db #0xFF
   2241 00                 9460 	.db #0x00
   2242 FF                 9461 	.db #0xFF
   2243 00                 9462 	.db #0x00
   2244 FF                 9463 	.db #0xFF
   2245 00                 9464 	.db #0x00
   2246 FF                 9465 	.db #0xFF
   2247 00                 9466 	.db #0x00
   2248 FF                 9467 	.db #0xFF
   2249 00                 9468 	.db #0x00
   224A FF                 9469 	.db #0xFF
   224B E0                 9470 	.db #0xE0
   224C FF                 9471 	.db #0xFF
   224D 00                 9472 	.db #0x00
   224E FF                 9473 	.db #0xFF
   224F 00                 9474 	.db #0x00
   2250 FF                 9475 	.db #0xFF
   2251 00                 9476 	.db #0x00
   2252 FF                 9477 	.db #0xFF
   2253 00                 9478 	.db #0x00
   2254 FF                 9479 	.db #0xFF
   2255 00                 9480 	.db #0x00
   2256 FF                 9481 	.db #0xFF
   2257 00                 9482 	.db #0x00
   2258 FF                 9483 	.db #0xFF
   2259 80                 9484 	.db #0x80
   225A FF                 9485 	.db #0xFF
   225B C0                 9486 	.db #0xC0
   225C FF                 9487 	.db #0xFF
   225D 00                 9488 	.db #0x00
   225E FF                 9489 	.db #0xFF
   225F 00                 9490 	.db #0x00
   2260 FF                 9491 	.db #0xFF
   2261 00                 9492 	.db #0x00
   2262 FF                 9493 	.db #0xFF
   2263 00                 9494 	.db #0x00
   2264 FF                 9495 	.db #0xFF
   2265 00                 9496 	.db #0x00
   2266 FF                 9497 	.db #0xFF
   2267 00                 9498 	.db #0x00
   2268 FF                 9499 	.db #0xFF
   2269 00                 9500 	.db #0x00
   226A FF                 9501 	.db #0xFF
   226B 01                 9502 	.db #0x01
   226C FF                 9503 	.db #0xFF
   226D 00                 9504 	.db #0x00
   226E FF                 9505 	.db #0xFF
   226F 00                 9506 	.db #0x00
   2270 FF                 9507 	.db #0xFF
   2271 00                 9508 	.db #0x00
   2272 FF                 9509 	.db #0xFF
   2273 00                 9510 	.db #0x00
   2274 FF                 9511 	.db #0xFF
   2275 00                 9512 	.db #0x00
   2276 FF                 9513 	.db #0xFF
   2277 00                 9514 	.db #0x00
   2278 FF                 9515 	.db #0xFF
   2279 00                 9516 	.db #0x00
   227A FF                 9517 	.db #0xFF
   227B 06                 9518 	.db #0x06
   227C FF                 9519 	.db #0xFF
   227D 00                 9520 	.db #0x00
   227E FF                 9521 	.db #0xFF
   227F 00                 9522 	.db #0x00
   2280 FF                 9523 	.db #0xFF
   2281 00                 9524 	.db #0x00
   2282 FF                 9525 	.db #0xFF
   2283 00                 9526 	.db #0x00
   2284 FF                 9527 	.db #0xFF
   2285 00                 9528 	.db #0x00
   2286 FF                 9529 	.db #0xFF
   2287 80                 9530 	.db #0x80
   2288 FF                 9531 	.db #0xFF
   2289 60                 9532 	.db #0x60
   228A FF                 9533 	.db #0xFF
   228B 60                 9534 	.db #0x60
   228C FF                 9535 	.db #0xFF
   228D 00                 9536 	.db #0x00
   228E FF                 9537 	.db #0xFF
   228F 03                 9538 	.db #0x03
   2290 FF                 9539 	.db #0xFF
   2291 1F                 9540 	.db #0x1F
   2292 FF                 9541 	.db #0xFF
   2293 1F                 9542 	.db #0x1F
   2294 FF                 9543 	.db #0xFF
   2295 00                 9544 	.db #0x00
   2296 FF                 9545 	.db #0xFF
   2297 00                 9546 	.db #0x00
   2298 FF                 9547 	.db #0xFF
   2299 00                 9548 	.db #0x00
   229A FF                 9549 	.db #0xFF
   229B 00                 9550 	.db #0x00
   229C FF                 9551 	.db #0xFF
   229D 03                 9552 	.db #0x03
   229E FF                 9553 	.db #0xFF
   229F FD                 9554 	.db #0xFD
   22A0 FF                 9555 	.db #0xFF
   22A1 FC                 9556 	.db #0xFC
   22A2 FF                 9557 	.db #0xFF
   22A3 CC                 9558 	.db #0xCC
   22A4 FF                 9559 	.db #0xFF
   22A5 0C                 9560 	.db #0x0C
   22A6 FF                 9561 	.db #0xFF
   22A7 0C                 9562 	.db #0x0C
   22A8 FF                 9563 	.db #0xFF
   22A9 0C                 9564 	.db #0x0C
   22AA FF                 9565 	.db #0xFF
   22AB 0C                 9566 	.db #0x0C
   22AC FF                 9567 	.db #0xFF
   22AD 0E                 9568 	.db #0x0E
   22AE FF                 9569 	.db #0xFF
   22AF 0E                 9570 	.db #0x0E
   22B0 FF                 9571 	.db #0xFF
   22B1 0E                 9572 	.db #0x0E
   22B2 FF                 9573 	.db #0xFF
   22B3 0E                 9574 	.db #0x0E
   22B4 FF                 9575 	.db #0xFF
   22B5 0E                 9576 	.db #0x0E
   22B6 FF                 9577 	.db #0xFF
   22B7 0E                 9578 	.db #0x0E
   22B8 FF                 9579 	.db #0xFF
   22B9 0E                 9580 	.db #0x0E
   22BA FF                 9581 	.db #0xFF
   22BB 00                 9582 	.db #0x00
   22BC FF                 9583 	.db #0xFF
   22BD 18                 9584 	.db #0x18
   22BE FF                 9585 	.db #0xFF
   22BF 18                 9586 	.db #0x18
   22C0 FF                 9587 	.db #0xFF
   22C1 18                 9588 	.db #0x18
   22C2 FF                 9589 	.db #0xFF
   22C3 18                 9590 	.db #0x18
   22C4 FF                 9591 	.db #0xFF
   22C5 18                 9592 	.db #0x18
   22C6 FF                 9593 	.db #0xFF
   22C7 18                 9594 	.db #0x18
   22C8 FF                 9595 	.db #0xFF
   22C9 18                 9596 	.db #0x18
   22CA FF                 9597 	.db #0xFF
   22CB 38                 9598 	.db #0x38
   22CC FF                 9599 	.db #0xFF
   22CD 1F                 9600 	.db #0x1F
   22CE FF                 9601 	.db #0xFF
   22CF 1F                 9602 	.db #0x1F
   22D0 FF                 9603 	.db #0xFF
   22D1 00                 9604 	.db #0x00
   22D2 FF                 9605 	.db #0xFF
   22D3 00                 9606 	.db #0x00
   22D4 FF                 9607 	.db #0xFF
   22D5 7F                 9608 	.db #0x7F
   22D6 FF                 9609 	.db #0xFF
   22D7 7F                 9610 	.db #0x7F
   22D8 FF                 9611 	.db #0xFF
   22D9 00                 9612 	.db #0x00
   22DA FF                 9613 	.db #0xFF
   22DB 00                 9614 	.db #0x00
   22DC FF                 9615 	.db #0xFF
   22DD F0                 9616 	.db #0xF0
   22DE FF                 9617 	.db #0xFF
   22DF E0                 9618 	.db #0xE0
   22E0 FF                 9619 	.db #0xFF
   22E1 00                 9620 	.db #0x00
   22E2 FF                 9621 	.db #0xFF
   22E3 F8                 9622 	.db #0xF8
   22E4 FF                 9623 	.db #0xFF
   22E5 FC                 9624 	.db #0xFC
   22E6 FF                 9625 	.db #0xFF
   22E7 FC                 9626 	.db #0xFC
   22E8 FF                 9627 	.db #0xFF
   22E9 1C                 9628 	.db #0x1C
   22EA FF                 9629 	.db #0xFF
   22EB 18                 9630 	.db #0x18
   22EC FF                 9631 	.db #0xFF
   22ED 08                 9632 	.db #0x08
   22EE FF                 9633 	.db #0xFF
   22EF 0F                 9634 	.db #0x0F
   22F0 FF                 9635 	.db #0xFF
   22F1 07                 9636 	.db #0x07
   22F2 FF                 9637 	.db #0xFF
   22F3 03                 9638 	.db #0x03
   22F4 FF                 9639 	.db #0xFF
   22F5 00                 9640 	.db #0x00
   22F6 FF                 9641 	.db #0xFF
   22F7 00                 9642 	.db #0x00
   22F8 FF                 9643 	.db #0xFF
   22F9 00                 9644 	.db #0x00
   22FA FF                 9645 	.db #0xFF
   22FB 00                 9646 	.db #0x00
   22FC FF                 9647 	.db #0xFF
   22FD 00                 9648 	.db #0x00
   22FE FF                 9649 	.db #0xFF
   22FF 00                 9650 	.db #0x00
   2300 FF                 9651 	.db #0xFF
   2301 80                 9652 	.db #0x80
   2302 FF                 9653 	.db #0xFF
   2303 81                 9654 	.db #0x81
   2304 FF                 9655 	.db #0xFF
   2305 03                 9656 	.db #0x03
   2306 FF                 9657 	.db #0xFF
   2307 07                 9658 	.db #0x07
   2308 FF                 9659 	.db #0xFF
   2309 0E                 9660 	.db #0x0E
   230A FF                 9661 	.db #0xFF
   230B 1C                 9662 	.db #0x1C
   230C FF                 9663 	.db #0xFF
   230D 03                 9664 	.db #0x03
   230E FF                 9665 	.db #0xFF
   230F 03                 9666 	.db #0x03
   2310 FF                 9667 	.db #0xFF
   2311 03                 9668 	.db #0x03
   2312 FF                 9669 	.db #0xFF
   2313 1F                 9670 	.db #0x1F
   2314 FF                 9671 	.db #0xFF
   2315 9F                 9672 	.db #0x9F
   2316 FF                 9673 	.db #0xFF
   2317 1B                 9674 	.db #0x1B
   2318 FF                 9675 	.db #0xFF
   2319 03                 9676 	.db #0x03
   231A FF                 9677 	.db #0xFF
   231B 03                 9678 	.db #0x03
   231C FF                 9679 	.db #0xFF
   231D 8E                 9680 	.db #0x8E
   231E FF                 9681 	.db #0xFF
   231F 8E                 9682 	.db #0x8E
   2320 FF                 9683 	.db #0xFF
   2321 8F                 9684 	.db #0x8F
   2322 FF                 9685 	.db #0xFF
   2323 FF                 9686 	.db #0xFF
   2324 FF                 9687 	.db #0xFF
   2325 FF                 9688 	.db #0xFF
   2326 FF                 9689 	.db #0xFF
   2327 8E                 9690 	.db #0x8E
   2328 FF                 9691 	.db #0xFF
   2329 8E                 9692 	.db #0x8E
   232A FF                 9693 	.db #0xFF
   232B 8E                 9694 	.db #0x8E
   232C FF                 9695 	.db #0xFF
   232D 03                 9696 	.db #0x03
   232E FF                 9697 	.db #0xFF
   232F 03                 9698 	.db #0x03
   2330 FF                 9699 	.db #0xFF
   2331 C3                 9700 	.db #0xC3
   2332 FF                 9701 	.db #0xFF
   2333 E3                 9702 	.db #0xE3
   2334 FF                 9703 	.db #0xFF
   2335 C3                 9704 	.db #0xC3
   2336 FF                 9705 	.db #0xFF
   2337 03                 9706 	.db #0x03
   2338 FF                 9707 	.db #0xFF
   2339 03                 9708 	.db #0x03
   233A FF                 9709 	.db #0xFF
   233B 03                 9710 	.db #0x03
   233C FF                 9711 	.db #0xFF
   233D 00                 9712 	.db #0x00
   233E FF                 9713 	.db #0xFF
   233F 00                 9714 	.db #0x00
   2340 FF                 9715 	.db #0xFF
   2341 00                 9716 	.db #0x00
   2342 FF                 9717 	.db #0xFF
   2343 00                 9718 	.db #0x00
   2344 FF                 9719 	.db #0xFF
   2345 00                 9720 	.db #0x00
   2346 FF                 9721 	.db #0xFF
   2347 01                 9722 	.db #0x01
   2348 FF                 9723 	.db #0xFF
   2349 03                 9724 	.db #0x03
   234A FF                 9725 	.db #0xFF
   234B 0F                 9726 	.db #0x0F
   234C FF                 9727 	.db #0xFF
   234D 03                 9728 	.db #0x03
   234E FF                 9729 	.db #0xFF
   234F 07                 9730 	.db #0x07
   2350 FF                 9731 	.db #0xFF
   2351 07                 9732 	.db #0x07
   2352 FF                 9733 	.db #0xFF
   2353 00                 9734 	.db #0x00
   2354 FF                 9735 	.db #0xFF
   2355 00                 9736 	.db #0x00
   2356 FF                 9737 	.db #0xFF
   2357 80                 9738 	.db #0x80
   2358 FF                 9739 	.db #0xFF
   2359 00                 9740 	.db #0x00
   235A FF                 9741 	.db #0xFF
   235B 00                 9742 	.db #0x00
   235C FF                 9743 	.db #0xFF
   235D FD                 9744 	.db #0xFD
   235E FF                 9745 	.db #0xFF
   235F FE                 9746 	.db #0xFE
   2360 FF                 9747 	.db #0xFF
   2361 CC                 9748 	.db #0xCC
   2362 FF                 9749 	.db #0xFF
   2363 1C                 9750 	.db #0x1C
   2364 FF                 9751 	.db #0xFF
   2365 18                 9752 	.db #0x18
   2366 FF                 9753 	.db #0xFF
   2367 38                 9754 	.db #0x38
   2368 FF                 9755 	.db #0xFF
   2369 70                 9756 	.db #0x70
   236A FF                 9757 	.db #0xFF
   236B F0                 9758 	.db #0xF0
   236C FF                 9759 	.db #0xFF
   236D 80                 9760 	.db #0x80
   236E FF                 9761 	.db #0xFF
   236F 80                 9762 	.db #0x80
   2370 FF                 9763 	.db #0xFF
   2371 00                 9764 	.db #0x00
   2372 FF                 9765 	.db #0xFF
   2373 00                 9766 	.db #0x00
   2374 FF                 9767 	.db #0xFF
   2375 00                 9768 	.db #0x00
   2376 FF                 9769 	.db #0xFF
   2377 00                 9770 	.db #0x00
   2378 FF                 9771 	.db #0xFF
   2379 00                 9772 	.db #0x00
   237A FF                 9773 	.db #0xFF
   237B 00                 9774 	.db #0x00
   237C FF                 9775 	.db #0xFF
   237D 00                 9776 	.db #0x00
   237E FF                 9777 	.db #0xFF
   237F 00                 9778 	.db #0x00
   2380 FF                 9779 	.db #0xFF
   2381 1F                 9780 	.db #0x1F
   2382 FF                 9781 	.db #0xFF
   2383 1F                 9782 	.db #0x1F
   2384 FF                 9783 	.db #0xFF
   2385 00                 9784 	.db #0x00
   2386 FF                 9785 	.db #0xFF
   2387 00                 9786 	.db #0x00
   2388 FF                 9787 	.db #0xFF
   2389 00                 9788 	.db #0x00
   238A FF                 9789 	.db #0xFF
   238B 00                 9790 	.db #0x00
   238C FF                 9791 	.db #0xFF
   238D 1C                 9792 	.db #0x1C
   238E FF                 9793 	.db #0xFF
   238F FC                 9794 	.db #0xFC
   2390 FF                 9795 	.db #0xFF
   2391 FC                 9796 	.db #0xFC
   2392 FF                 9797 	.db #0xFF
   2393 F8                 9798 	.db #0xF8
   2394 FF                 9799 	.db #0xFF
   2395 00                 9800 	.db #0x00
   2396 FF                 9801 	.db #0xFF
   2397 00                 9802 	.db #0x00
   2398 FF                 9803 	.db #0xFF
   2399 00                 9804 	.db #0x00
   239A FF                 9805 	.db #0xFF
   239B 00                 9806 	.db #0x00
   239C FF                 9807 	.db #0xFF
   239D 38                 9808 	.db #0x38
   239E FF                 9809 	.db #0xFF
   239F 30                 9810 	.db #0x30
   23A0 FF                 9811 	.db #0xFF
   23A1 70                 9812 	.db #0x70
   23A2 FF                 9813 	.db #0xFF
   23A3 60                 9814 	.db #0x60
   23A4 FF                 9815 	.db #0xFF
   23A5 C0                 9816 	.db #0xC0
   23A6 FF                 9817 	.db #0xFF
   23A7 80                 9818 	.db #0x80
   23A8 FF                 9819 	.db #0xFF
   23A9 00                 9820 	.db #0x00
   23AA FF                 9821 	.db #0xFF
   23AB 00                 9822 	.db #0x00
   23AC FF                 9823 	.db #0xFF
   23AD 00                 9824 	.db #0x00
   23AE FF                 9825 	.db #0xFF
   23AF 00                 9826 	.db #0x00
   23B0 FF                 9827 	.db #0xFF
   23B1 00                 9828 	.db #0x00
   23B2 FF                 9829 	.db #0xFF
   23B3 03                 9830 	.db #0x03
   23B4 FF                 9831 	.db #0xFF
   23B5 07                 9832 	.db #0x07
   23B6 FF                 9833 	.db #0xFF
   23B7 04                 9834 	.db #0x04
   23B8 FF                 9835 	.db #0xFF
   23B9 00                 9836 	.db #0x00
   23BA FF                 9837 	.db #0xFF
   23BB 00                 9838 	.db #0x00
   23BC FF                 9839 	.db #0xFF
   23BD 38                 9840 	.db #0x38
   23BE FF                 9841 	.db #0xFF
   23BF 70                 9842 	.db #0x70
   23C0 FF                 9843 	.db #0xFF
   23C1 E0                 9844 	.db #0xE0
   23C2 FF                 9845 	.db #0xFF
   23C3 C0                 9846 	.db #0xC0
   23C4 FF                 9847 	.db #0xFF
   23C5 80                 9848 	.db #0x80
   23C6 FF                 9849 	.db #0xFF
   23C7 00                 9850 	.db #0x00
   23C8 FF                 9851 	.db #0xFF
   23C9 00                 9852 	.db #0x00
   23CA FF                 9853 	.db #0xFF
   23CB 00                 9854 	.db #0x00
   23CC FF                 9855 	.db #0xFF
   23CD 00                 9856 	.db #0x00
   23CE FF                 9857 	.db #0xFF
   23CF 01                 9858 	.db #0x01
   23D0 FF                 9859 	.db #0xFF
   23D1 07                 9860 	.db #0x07
   23D2 FF                 9861 	.db #0xFF
   23D3 0F                 9862 	.db #0x0F
   23D4 FF                 9863 	.db #0xFF
   23D5 0C                 9864 	.db #0x0C
   23D6 FF                 9865 	.db #0xFF
   23D7 00                 9866 	.db #0x00
   23D8 FF                 9867 	.db #0xFF
   23D9 00                 9868 	.db #0x00
   23DA FF                 9869 	.db #0xFF
   23DB 00                 9870 	.db #0x00
   23DC FF                 9871 	.db #0xFF
   23DD 78                 9872 	.db #0x78
   23DE FF                 9873 	.db #0xFF
   23DF F0                 9874 	.db #0xF0
   23E0 FF                 9875 	.db #0xFF
   23E1 E0                 9876 	.db #0xE0
   23E2 FF                 9877 	.db #0xFF
   23E3 80                 9878 	.db #0x80
   23E4 FF                 9879 	.db #0xFF
   23E5 00                 9880 	.db #0x00
   23E6 FF                 9881 	.db #0xFF
   23E7 00                 9882 	.db #0x00
   23E8 FF                 9883 	.db #0xFF
   23E9 00                 9884 	.db #0x00
   23EA FF                 9885 	.db #0xFF
   23EB 00                 9886 	.db #0x00
   23EC FF                 9887 	.db #0xFF
   23ED 01                 9888 	.db #0x01
   23EE FF                 9889 	.db #0xFF
   23EF 00                 9890 	.db #0x00
   23F0 FF                 9891 	.db #0xFF
   23F1 00                 9892 	.db #0x00
   23F2 FF                 9893 	.db #0xFF
   23F3 00                 9894 	.db #0x00
   23F4 FF                 9895 	.db #0xFF
   23F5 00                 9896 	.db #0x00
   23F6 FF                 9897 	.db #0xFF
   23F7 00                 9898 	.db #0x00
   23F8 FF                 9899 	.db #0xFF
   23F9 00                 9900 	.db #0x00
   23FA FF                 9901 	.db #0xFF
   23FB 00                 9902 	.db #0x00
   23FC FF                 9903 	.db #0xFF
   23FD 8C                 9904 	.db #0x8C
   23FE FF                 9905 	.db #0xFF
   23FF 0C                 9906 	.db #0x0C
   2400 FF                 9907 	.db #0xFF
   2401 1C                 9908 	.db #0x1C
   2402 FF                 9909 	.db #0xFF
   2403 38                 9910 	.db #0x38
   2404 FF                 9911 	.db #0xFF
   2405 70                 9912 	.db #0x70
   2406 FF                 9913 	.db #0xFF
   2407 60                 9914 	.db #0x60
   2408 FF                 9915 	.db #0xFF
   2409 00                 9916 	.db #0x00
   240A FF                 9917 	.db #0xFF
   240B 0F                 9918 	.db #0x0F
   240C F0                 9919 	.db #0xF0
   240D 03                 9920 	.db #0x03
   240E FF                 9921 	.db #0xFF
   240F 03                 9922 	.db #0x03
   2410 FF                 9923 	.db #0xFF
   2411 03                 9924 	.db #0x03
   2412 FF                 9925 	.db #0xFF
   2413 03                 9926 	.db #0x03
   2414 FF                 9927 	.db #0xFF
   2415 00                 9928 	.db #0x00
   2416 FF                 9929 	.db #0xFF
   2417 00                 9930 	.db #0x00
   2418 FF                 9931 	.db #0xFF
   2419 00                 9932 	.db #0x00
   241A FF                 9933 	.db #0xFF
   241B FF                 9934 	.db #0xFF
   241C 00                 9935 	.db #0x00
   241D 1E                 9936 	.db #0x1E
   241E FF                 9937 	.db #0xFF
   241F 78                 9938 	.db #0x78
   2420 FF                 9939 	.db #0xFF
   2421 F0                 9940 	.db #0xF0
   2422 FF                 9941 	.db #0xFF
   2423 C0                 9942 	.db #0xC0
   2424 FF                 9943 	.db #0xFF
   2425 00                 9944 	.db #0x00
   2426 FF                 9945 	.db #0xFF
   2427 00                 9946 	.db #0x00
   2428 FF                 9947 	.db #0xFF
   2429 00                 9948 	.db #0x00
   242A FF                 9949 	.db #0xFF
   242B 9F                 9950 	.db #0x9F
   242C 60                 9951 	.db #0x60
   242D 01                 9952 	.db #0x01
   242E FF                 9953 	.db #0xFF
   242F 03                 9954 	.db #0x03
   2430 FF                 9955 	.db #0xFF
   2431 07                 9956 	.db #0x07
   2432 FF                 9957 	.db #0xFF
   2433 1E                 9958 	.db #0x1E
   2434 FF                 9959 	.db #0xFF
   2435 1B                 9960 	.db #0x1B
   2436 FC                 9961 	.db #0xFC
   2437 03                 9962 	.db #0x03
   2438 FC                 9963 	.db #0xFC
   2439 0F                 9964 	.db #0x0F
   243A F0                 9965 	.db #0xF0
   243B 3F                 9966 	.db #0x3F
   243C C0                 9967 	.db #0xC0
   243D DC                 9968 	.db #0xDC
   243E FF                 9969 	.db #0xFF
   243F 8E                 9970 	.db #0x8E
   2440 FF                 9971 	.db #0xFF
   2441 07                 9972 	.db #0x07
   2442 FF                 9973 	.db #0xFF
   2443 7B                 9974 	.db #0x7B
   2444 87                 9975 	.db #0x87
   2445 7D                 9976 	.db #0x7D
   2446 83                 9977 	.db #0x83
   2447 FF                 9978 	.db #0xFF
   2448 00                 9979 	.db #0x00
   2449 FF                 9980 	.db #0xFF
   244A 00                 9981 	.db #0x00
   244B FF                 9982 	.db #0xFF
   244C 00                 9983 	.db #0x00
   244D 00                 9984 	.db #0x00
   244E FF                 9985 	.db #0xFF
   244F 00                 9986 	.db #0x00
   2450 FF                 9987 	.db #0xFF
   2451 00                 9988 	.db #0x00
   2452 FF                 9989 	.db #0xFF
   2453 E0                 9990 	.db #0xE0
   2454 9F                 9991 	.db #0x9F
   2455 6F                 9992 	.db #0x6F
   2456 90                 9993 	.db #0x90
   2457 FF                 9994 	.db #0xFF
   2458 00                 9995 	.db #0x00
   2459 FF                 9996 	.db #0xFF
   245A 00                 9997 	.db #0x00
   245B FF                 9998 	.db #0xFF
   245C 00                 9999 	.db #0x00
   245D 00                10000 	.db #0x00
   245E FF                10001 	.db #0xFF
   245F 00                10002 	.db #0x00
   2460 FF                10003 	.db #0xFF
   2461 00                10004 	.db #0x00
   2462 FF                10005 	.db #0xFF
   2463 0E                10006 	.db #0x0E
   2464 F1                10007 	.db #0xF1
   2465 1F                10008 	.db #0x1F
   2466 E0                10009 	.db #0xE0
   2467 0F                10010 	.db #0x0F
   2468 F0                10011 	.db #0xF0
   2469 FF                10012 	.db #0xFF
   246A 00                10013 	.db #0x00
   246B FF                10014 	.db #0xFF
   246C 00                10015 	.db #0x00
   246D 00                10016 	.db #0x00
   246E FF                10017 	.db #0xFF
   246F 00                10018 	.db #0x00
   2470 FF                10019 	.db #0xFF
   2471 00                10020 	.db #0x00
   2472 FF                10021 	.db #0xFF
   2473 1E                10022 	.db #0x1E
   2474 E1                10023 	.db #0xE1
   2475 FF                10024 	.db #0xFF
   2476 00                10025 	.db #0x00
   2477 FF                10026 	.db #0xFF
   2478 00                10027 	.db #0x00
   2479 FF                10028 	.db #0xFF
   247A 00                10029 	.db #0x00
   247B FF                10030 	.db #0xFF
   247C 00                10031 	.db #0x00
   247D 00                10032 	.db #0x00
   247E FF                10033 	.db #0xFF
   247F 00                10034 	.db #0x00
   2480 FF                10035 	.db #0xFF
   2481 00                10036 	.db #0x00
   2482 FF                10037 	.db #0xFF
   2483 00                10038 	.db #0x00
   2484 FF                10039 	.db #0xFF
   2485 FC                10040 	.db #0xFC
   2486 03                10041 	.db #0x03
   2487 FF                10042 	.db #0xFF
   2488 00                10043 	.db #0x00
   2489 FF                10044 	.db #0xFF
   248A 00                10045 	.db #0x00
   248B FF                10046 	.db #0xFF
   248C 00                10047 	.db #0x00
   248D 00                10048 	.db #0x00
   248E FF                10049 	.db #0xFF
   248F 00                10050 	.db #0x00
   2490 FF                10051 	.db #0xFF
   2491 00                10052 	.db #0x00
   2492 FF                10053 	.db #0xFF
   2493 00                10054 	.db #0x00
   2494 FF                10055 	.db #0xFF
   2495 07                10056 	.db #0x07
   2496 F8                10057 	.db #0xF8
   2497 FF                10058 	.db #0xFF
   2498 00                10059 	.db #0x00
   2499 FF                10060 	.db #0xFF
   249A 00                10061 	.db #0x00
   249B FF                10062 	.db #0xFF
   249C 00                10063 	.db #0x00
   249D 00                10064 	.db #0x00
   249E FF                10065 	.db #0xFF
   249F 00                10066 	.db #0x00
   24A0 FF                10067 	.db #0xFF
   24A1 00                10068 	.db #0x00
   24A2 FF                10069 	.db #0xFF
   24A3 00                10070 	.db #0x00
   24A4 FF                10071 	.db #0xFF
   24A5 FF                10072 	.db #0xFF
   24A6 00                10073 	.db #0x00
   24A7 FF                10074 	.db #0xFF
   24A8 00                10075 	.db #0x00
   24A9 FF                10076 	.db #0xFF
   24AA 00                10077 	.db #0x00
   24AB FF                10078 	.db #0xFF
   24AC 00                10079 	.db #0x00
   24AD 00                10080 	.db #0x00
   24AE FF                10081 	.db #0xFF
   24AF 01                10082 	.db #0x01
   24B0 FE                10083 	.db #0xFE
   24B1 0F                10084 	.db #0x0F
   24B2 F0                10085 	.db #0xF0
   24B3 7F                10086 	.db #0x7F
   24B4 80                10087 	.db #0x80
   24B5 FF                10088 	.db #0xFF
   24B6 00                10089 	.db #0x00
   24B7 FF                10090 	.db #0xFF
   24B8 00                10091 	.db #0x00
   24B9 FF                10092 	.db #0xFF
   24BA 00                10093 	.db #0x00
   24BB FF                10094 	.db #0xFF
   24BC 00                10095 	.db #0x00
   24BD 00                10096 	.db #0x00
   24BE FF                10097 	.db #0xFF
   24BF 3B                10098 	.db #0x3B
   24C0 C4                10099 	.db #0xC4
   24C1 3F                10100 	.db #0x3F
   24C2 C0                10101 	.db #0xC0
   24C3 FF                10102 	.db #0xFF
   24C4 00                10103 	.db #0x00
   24C5 FF                10104 	.db #0xFF
   24C6 00                10105 	.db #0x00
   24C7 FF                10106 	.db #0xFF
   24C8 00                10107 	.db #0x00
   24C9 FF                10108 	.db #0xFF
   24CA 00                10109 	.db #0x00
   24CB FF                10110 	.db #0xFF
   24CC 00                10111 	.db #0x00
   24CD 00                10112 	.db #0x00
   24CE FF                10113 	.db #0xFF
   24CF FF                10114 	.db #0xFF
   24D0 00                10115 	.db #0x00
   24D1 FF                10116 	.db #0xFF
   24D2 00                10117 	.db #0x00
   24D3 FF                10118 	.db #0xFF
   24D4 00                10119 	.db #0x00
   24D5 FF                10120 	.db #0xFF
   24D6 00                10121 	.db #0x00
   24D7 FF                10122 	.db #0xFF
   24D8 00                10123 	.db #0x00
   24D9 FF                10124 	.db #0xFF
   24DA 00                10125 	.db #0x00
   24DB FF                10126 	.db #0xFF
   24DC 00                10127 	.db #0x00
   24DD 00                10128 	.db #0x00
   24DE FF                10129 	.db #0xFF
   24DF 3F                10130 	.db #0x3F
   24E0 C0                10131 	.db #0xC0
   24E1 FF                10132 	.db #0xFF
   24E2 00                10133 	.db #0x00
   24E3 FF                10134 	.db #0xFF
   24E4 00                10135 	.db #0x00
   24E5 FF                10136 	.db #0xFF
   24E6 00                10137 	.db #0x00
   24E7 FF                10138 	.db #0xFF
   24E8 00                10139 	.db #0x00
   24E9 FF                10140 	.db #0xFF
   24EA 00                10141 	.db #0x00
   24EB FF                10142 	.db #0xFF
   24EC 00                10143 	.db #0x00
   24ED 00                10144 	.db #0x00
   24EE FF                10145 	.db #0xFF
   24EF FC                10146 	.db #0xFC
   24F0 03                10147 	.db #0x03
   24F1 FF                10148 	.db #0xFF
   24F2 00                10149 	.db #0x00
   24F3 FF                10150 	.db #0xFF
   24F4 00                10151 	.db #0x00
   24F5 FF                10152 	.db #0xFF
   24F6 00                10153 	.db #0x00
   24F7 FF                10154 	.db #0xFF
   24F8 00                10155 	.db #0x00
   24F9 FF                10156 	.db #0xFF
   24FA 00                10157 	.db #0x00
   24FB FF                10158 	.db #0xFF
   24FC 00                10159 	.db #0x00
   24FD 00                10160 	.db #0x00
   24FE FF                10161 	.db #0xFF
   24FF FF                10162 	.db #0xFF
   2500 00                10163 	.db #0x00
   2501 FF                10164 	.db #0xFF
   2502 00                10165 	.db #0x00
   2503 FF                10166 	.db #0xFF
   2504 00                10167 	.db #0x00
   2505 FF                10168 	.db #0xFF
   2506 00                10169 	.db #0x00
   2507 FE                10170 	.db #0xFE
   2508 01                10171 	.db #0x01
   2509 FF                10172 	.db #0xFF
   250A 0F                10173 	.db #0x0F
   250B EF                10174 	.db #0xEF
   250C 1F                10175 	.db #0x1F
   250D 00                10176 	.db #0x00
   250E FF                10177 	.db #0xFF
   250F 87                10178 	.db #0x87
   2510 78                10179 	.db #0x78
   2511 FF                10180 	.db #0xFF
   2512 00                10181 	.db #0x00
   2513 FF                10182 	.db #0xFF
   2514 00                10183 	.db #0x00
   2515 FF                10184 	.db #0xFF
   2516 00                10185 	.db #0x00
   2517 03                10186 	.db #0x03
   2518 FC                10187 	.db #0xFC
   2519 FF                10188 	.db #0xFF
   251A FC                10189 	.db #0xFC
   251B FF                10190 	.db #0xFF
   251C FC                10191 	.db #0xFC
   251D 03                10192 	.db #0x03
   251E FC                10193 	.db #0xFC
   251F CF                10194 	.db #0xCF
   2520 30                10195 	.db #0x30
   2521 FF                10196 	.db #0xFF
   2522 00                10197 	.db #0x00
   2523 FF                10198 	.db #0xFF
   2524 00                10199 	.db #0x00
   2525 FE                10200 	.db #0xFE
   2526 01                10201 	.db #0x01
   2527 FD                10202 	.db #0xFD
   2528 03                10203 	.db #0x03
   2529 FB                10204 	.db #0xFB
   252A 07                10205 	.db #0x07
   252B FF                10206 	.db #0xFF
   252C 07                10207 	.db #0x07
   252D C0                10208 	.db #0xC0
   252E 3F                10209 	.db #0x3F
   252F FF                10210 	.db #0xFF
   2530 00                10211 	.db #0x00
   2531 FF                10212 	.db #0xFF
   2532 00                10213 	.db #0x00
   2533 FF                10214 	.db #0xFF
   2534 00                10215 	.db #0x00
   2535 7F                10216 	.db #0x7F
   2536 80                10217 	.db #0x80
   2537 BB                10218 	.db #0xBB
   2538 FC                10219 	.db #0xFC
   2539 FF                10220 	.db #0xFF
   253A FC                10221 	.db #0xFC
   253B 1F                10222 	.db #0x1F
   253C FC                10223 	.db #0xFC
   253D 7F                10224 	.db #0x7F
   253E 80                10225 	.db #0x80
   253F FF                10226 	.db #0xFF
   2540 00                10227 	.db #0x00
   2541 FF                10228 	.db #0xFF
   2542 00                10229 	.db #0x00
   2543 FF                10230 	.db #0xFF
   2544 00                10231 	.db #0x00
   2545 FF                10232 	.db #0xFF
   2546 00                10233 	.db #0x00
   2547 F9                10234 	.db #0xF9
   2548 1E                10235 	.db #0x1E
   2549 EE                10236 	.db #0xEE
   254A 1F                10237 	.db #0x1F
   254B F7                10238 	.db #0xF7
   254C 0F                10239 	.db #0x0F
   254D FF                10240 	.db #0xFF
   254E 00                10241 	.db #0x00
   254F FF                10242 	.db #0xFF
   2550 00                10243 	.db #0x00
   2551 FF                10244 	.db #0xFF
   2552 00                10245 	.db #0x00
   2553 FA                10246 	.db #0xFA
   2554 07                10247 	.db #0x07
   2555 E3                10248 	.db #0xE3
   2556 1F                10249 	.db #0x1F
   2557 ED                10250 	.db #0xED
   2558 1F                10251 	.db #0x1F
   2559 F5                10252 	.db #0xF5
   255A 0E                10253 	.db #0x0E
   255B F9                10254 	.db #0xF9
   255C 06                10255 	.db #0x06
   255D FF                10256 	.db #0xFF
   255E 00                10257 	.db #0x00
   255F FF                10258 	.db #0xFF
   2560 00                10259 	.db #0x00
   2561 FF                10260 	.db #0xFF
   2562 00                10261 	.db #0x00
   2563 FF                10262 	.db #0xFF
   2564 00                10263 	.db #0x00
   2565 7F                10264 	.db #0x7F
   2566 80                10265 	.db #0x80
   2567 7F                10266 	.db #0x7F
   2568 80                10267 	.db #0x80
   2569 FF                10268 	.db #0xFF
   256A 00                10269 	.db #0x00
   256B FF                10270 	.db #0xFF
   256C 00                10271 	.db #0x00
   256D FF                10272 	.db #0xFF
   256E 00                10273 	.db #0x00
   256F FF                10274 	.db #0xFF
   2570 00                10275 	.db #0x00
   2571 FF                10276 	.db #0xFF
   2572 00                10277 	.db #0x00
   2573 FF                10278 	.db #0xFF
   2574 00                10279 	.db #0x00
   2575 BF                10280 	.db #0xBF
   2576 70                10281 	.db #0x70
   2577 BF                10282 	.db #0xBF
   2578 70                10283 	.db #0x70
   2579 BF                10284 	.db #0xBF
   257A 70                10285 	.db #0x70
   257B 30                10286 	.db #0x30
   257C FF                10287 	.db #0xFF
   257D FF                10288 	.db #0xFF
   257E 00                10289 	.db #0x00
   257F FF                10290 	.db #0xFF
   2580 00                10291 	.db #0x00
   2581 FF                10292 	.db #0xFF
   2582 00                10293 	.db #0x00
   2583 FF                10294 	.db #0xFF
   2584 00                10295 	.db #0x00
   2585 FF                10296 	.db #0xFF
   2586 00                10297 	.db #0x00
   2587 FF                10298 	.db #0xFF
   2588 00                10299 	.db #0x00
   2589 FF                10300 	.db #0xFF
   258A 00                10301 	.db #0x00
   258B FF                10302 	.db #0xFF
   258C 00                10303 	.db #0x00
   258D FF                10304 	.db #0xFF
   258E 00                10305 	.db #0x00
   258F FF                10306 	.db #0xFF
   2590 00                10307 	.db #0x00
   2591 FF                10308 	.db #0xFF
   2592 00                10309 	.db #0x00
   2593 FF                10310 	.db #0xFF
   2594 00                10311 	.db #0x00
   2595 FE                10312 	.db #0xFE
   2596 01                10313 	.db #0x01
   2597 FB                10314 	.db #0xFB
   2598 07                10315 	.db #0x07
   2599 EF                10316 	.db #0xEF
   259A 1F                10317 	.db #0x1F
   259B BF                10318 	.db #0xBF
   259C 7F                10319 	.db #0x7F
   259D FF                10320 	.db #0xFF
   259E 00                10321 	.db #0x00
   259F FF                10322 	.db #0xFF
   25A0 00                10323 	.db #0x00
   25A1 F3                10324 	.db #0xF3
   25A2 0F                10325 	.db #0x0F
   25A3 9F                10326 	.db #0x9F
   25A4 7F                10327 	.db #0x7F
   25A5 FF                10328 	.db #0xFF
   25A6 FF                10329 	.db #0xFF
   25A7 FF                10330 	.db #0xFF
   25A8 FF                10331 	.db #0xFF
   25A9 FF                10332 	.db #0xFF
   25AA FF                10333 	.db #0xFF
   25AB FF                10334 	.db #0xFF
   25AC FF                10335 	.db #0xFF
   25AD FE                10336 	.db #0xFE
   25AE 01                10337 	.db #0x01
   25AF 8F                10338 	.db #0x8F
   25B0 7F                10339 	.db #0x7F
   25B1 FF                10340 	.db #0xFF
   25B2 FF                10341 	.db #0xFF
   25B3 FF                10342 	.db #0xFF
   25B4 FF                10343 	.db #0xFF
   25B5 FF                10344 	.db #0xFF
   25B6 FF                10345 	.db #0xFF
   25B7 FF                10346 	.db #0xFF
   25B8 FF                10347 	.db #0xFF
   25B9 FF                10348 	.db #0xFF
   25BA FF                10349 	.db #0xFF
   25BB FB                10350 	.db #0xFB
   25BC FC                10351 	.db #0xFC
   25BD 00                10352 	.db #0x00
   25BE FF                10353 	.db #0xFF
   25BF FF                10354 	.db #0xFF
   25C0 FF                10355 	.db #0xFF
   25C1 FF                10356 	.db #0xFF
   25C2 FF                10357 	.db #0xFF
   25C3 FF                10358 	.db #0xFF
   25C4 FF                10359 	.db #0xFF
   25C5 FF                10360 	.db #0xFF
   25C6 FF                10361 	.db #0xFF
   25C7 FF                10362 	.db #0xFF
   25C8 FF                10363 	.db #0xFF
   25C9 CF                10364 	.db #0xCF
   25CA FF                10365 	.db #0xFF
   25CB 3F                10366 	.db #0x3F
   25CC FF                10367 	.db #0xFF
   25CD 01                10368 	.db #0x01
   25CE FE                10369 	.db #0xFE
   25CF FF                10370 	.db #0xFF
   25D0 FF                10371 	.db #0xFF
   25D1 FF                10372 	.db #0xFF
   25D2 FF                10373 	.db #0xFF
   25D3 FF                10374 	.db #0xFF
   25D4 FF                10375 	.db #0xFF
   25D5 FF                10376 	.db #0xFF
   25D6 FF                10377 	.db #0xFF
   25D7 FF                10378 	.db #0xFF
   25D8 FF                10379 	.db #0xFF
   25D9 FF                10380 	.db #0xFF
   25DA FF                10381 	.db #0xFF
   25DB 7F                10382 	.db #0x7F
   25DC FF                10383 	.db #0xFF
   25DD FF                10384 	.db #0xFF
   25DE 00                10385 	.db #0x00
   25DF E3                10386 	.db #0xE3
   25E0 FC                10387 	.db #0xFC
   25E1 FF                10388 	.db #0xFF
   25E2 FF                10389 	.db #0xFF
   25E3 FF                10390 	.db #0xFF
   25E4 FF                10391 	.db #0xFF
   25E5 FF                10392 	.db #0xFF
   25E6 FF                10393 	.db #0xFF
   25E7 FF                10394 	.db #0xFF
   25E8 FF                10395 	.db #0xFF
   25E9 FF                10396 	.db #0xFF
   25EA FF                10397 	.db #0xFF
   25EB FF                10398 	.db #0xFF
   25EC FF                10399 	.db #0xFF
   25ED FF                10400 	.db #0xFF
   25EE 00                10401 	.db #0x00
   25EF FF                10402 	.db #0xFF
   25F0 00                10403 	.db #0x00
   25F1 3F                10404 	.db #0x3F
   25F2 C0                10405 	.db #0xC0
   25F3 E7                10406 	.db #0xE7
   25F4 F8                10407 	.db #0xF8
   25F5 FC                10408 	.db #0xFC
   25F6 FF                10409 	.db #0xFF
   25F7 FF                10410 	.db #0xFF
   25F8 FF                10411 	.db #0xFF
   25F9 FF                10412 	.db #0xFF
   25FA FF                10413 	.db #0xFF
   25FB FF                10414 	.db #0xFF
   25FC FF                10415 	.db #0xFF
   25FD FF                10416 	.db #0xFF
   25FE 00                10417 	.db #0x00
   25FF FF                10418 	.db #0xFF
   2600 00                10419 	.db #0x00
   2601 FF                10420 	.db #0xFF
   2602 00                10421 	.db #0x00
   2603 FF                10422 	.db #0xFF
   2604 00                10423 	.db #0x00
   2605 FF                10424 	.db #0xFF
   2606 00                10425 	.db #0x00
   2607 BF                10426 	.db #0xBF
   2608 C0                10427 	.db #0xC0
   2609 FF                10428 	.db #0xFF
   260A E0                10429 	.db #0xE0
   260B F7                10430 	.db #0xF7
   260C F8                10431 	.db #0xF8
   260D FF                10432 	.db #0xFF
   260E 00                10433 	.db #0x00
   260F FF                10434 	.db #0xFF
   2610 00                10435 	.db #0x00
   2611 FF                10436 	.db #0xFF
   2612 00                10437 	.db #0x00
   2613 FF                10438 	.db #0xFF
   2614 00                10439 	.db #0x00
   2615 FE                10440 	.db #0xFE
   2616 01                10441 	.db #0x01
   2617 FD                10442 	.db #0xFD
   2618 03                10443 	.db #0x03
   2619 FB                10444 	.db #0xFB
   261A 07                10445 	.db #0x07
   261B FE                10446 	.db #0xFE
   261C 0F                10447 	.db #0x0F
   261D DB                10448 	.db #0xDB
   261E 3C                10449 	.db #0x3C
   261F FF                10450 	.db #0xFF
   2620 38                10451 	.db #0x38
   2621 FF                10452 	.db #0xFF
   2622 70                10453 	.db #0x70
   2623 6F                10454 	.db #0x6F
   2624 F0                10455 	.db #0xF0
   2625 FF                10456 	.db #0xFF
   2626 E0                10457 	.db #0xE0
   2627 F7                10458 	.db #0xF7
   2628 F8                10459 	.db #0xF8
   2629 FF                10460 	.db #0xFF
   262A BC                10461 	.db #0xBC
   262B FF                10462 	.db #0xFF
   262C 1E                10463 	.db #0x1E
   262D F6                10464 	.db #0xF6
   262E 0F                10465 	.db #0x0F
   262F ED                10466 	.db #0xED
   2630 1E                10467 	.db #0x1E
   2631 DB                10468 	.db #0xDB
   2632 3F                10469 	.db #0x3F
   2633 CD                10470 	.db #0xCD
   2634 33                10471 	.db #0x33
   2635 FE                10472 	.db #0xFE
   2636 01                10473 	.db #0x01
   2637 FF                10474 	.db #0xFF
   2638 00                10475 	.db #0x00
   2639 FF                10476 	.db #0xFF
   263A 01                10477 	.db #0x01
   263B FF                10478 	.db #0xFF
   263C 03                10479 	.db #0x03
   263D FF                10480 	.db #0xFF
   263E 1C                10481 	.db #0x1C
   263F FB                10482 	.db #0xFB
   2640 1C                10483 	.db #0x1C
   2641 5F                10484 	.db #0x5F
   2642 B8                10485 	.db #0xB8
   2643 F7                10486 	.db #0xF7
   2644 F8                10487 	.db #0xF8
   2645 FF                10488 	.db #0xFF
   2646 F0                10489 	.db #0xF0
   2647 EF                10490 	.db #0xEF
   2648 F0                10491 	.db #0xF0
   2649 DF                10492 	.db #0xDF
   264A E0                10493 	.db #0xE0
   264B BF                10494 	.db #0xBF
   264C C0                10495 	.db #0xC0
   264D FA                10496 	.db #0xFA
   264E 07                10497 	.db #0x07
   264F F7                10498 	.db #0xF7
   2650 78                10499 	.db #0x78
   2651 FB                10500 	.db #0xFB
   2652 7C                10501 	.db #0x7C
   2653 DF                10502 	.db #0xDF
   2654 3C                10503 	.db #0x3C
   2655 F3                10504 	.db #0xF3
   2656 0C                10505 	.db #0x0C
   2657 FF                10506 	.db #0xFF
   2658 00                10507 	.db #0x00
   2659 FE                10508 	.db #0xFE
   265A 01                10509 	.db #0x01
   265B FB                10510 	.db #0xFB
   265C 07                10511 	.db #0x07
   265D F9                10512 	.db #0xF9
   265E 06                10513 	.db #0x06
   265F FE                10514 	.db #0xFE
   2660 07                10515 	.db #0x07
   2661 F7                10516 	.db #0xF7
   2662 0E                10517 	.db #0x0E
   2663 ED                10518 	.db #0xED
   2664 1E                10519 	.db #0x1E
   2665 DB                10520 	.db #0xDB
   2666 3C                10521 	.db #0x3C
   2667 BF                10522 	.db #0xBF
   2668 78                10523 	.db #0x78
   2669 FF                10524 	.db #0xFF
   266A F0                10525 	.db #0xF0
   266B DF                10526 	.db #0xDF
   266C E0                10527 	.db #0xE0
   266D DF                10528 	.db #0xDF
   266E 3F                10529 	.db #0x3F
   266F DF                10530 	.db #0xDF
   2670 3F                10531 	.db #0x3F
   2671 E3                10532 	.db #0xE3
   2672 1C                10533 	.db #0x1C
   2673 FF                10534 	.db #0xFF
   2674 01                10535 	.db #0x01
   2675 FF                10536 	.db #0xFF
   2676 03                10537 	.db #0x03
   2677 F7                10538 	.db #0xF7
   2678 0F                10539 	.db #0x0F
   2679 EF                10540 	.db #0xEF
   267A 1E                10541 	.db #0x1E
   267B DB                10542 	.db #0xDB
   267C 3C                10543 	.db #0x3C
   267D FF                10544 	.db #0xFF
   267E FF                10545 	.db #0xFF
   267F F8                10546 	.db #0xF8
   2680 FF                10547 	.db #0xFF
   2681 FF                10548 	.db #0xFF
   2682 F0                10549 	.db #0xF0
   2683 FF                10550 	.db #0xFF
   2684 F0                10551 	.db #0xF0
   2685 FF                10552 	.db #0xFF
   2686 B0                10553 	.db #0xB0
   2687 FF                10554 	.db #0xFF
   2688 30                10555 	.db #0x30
   2689 FF                10556 	.db #0xFF
   268A 30                10557 	.db #0x30
   268B FF                10558 	.db #0xFF
   268C 30                10559 	.db #0x30
   268D FF                10560 	.db #0xFF
   268E 00                10561 	.db #0x00
   268F FD                10562 	.db #0xFD
   2690 03                10563 	.db #0x03
   2691 FB                10564 	.db #0xFB
   2692 07                10565 	.db #0x07
   2693 F7                10566 	.db #0xF7
   2694 0F                10567 	.db #0x0F
   2695 FF                10568 	.db #0xFF
   2696 1F                10569 	.db #0x1F
   2697 DF                10570 	.db #0xDF
   2698 3F                10571 	.db #0x3F
   2699 BF                10572 	.db #0xBF
   269A 7F                10573 	.db #0x7F
   269B 7F                10574 	.db #0x7F
   269C FF                10575 	.db #0xFF
   269D 7F                10576 	.db #0x7F
   269E FF                10577 	.db #0xFF
   269F FF                10578 	.db #0xFF
   26A0 FF                10579 	.db #0xFF
   26A1 FF                10580 	.db #0xFF
   26A2 FF                10581 	.db #0xFF
   26A3 FF                10582 	.db #0xFF
   26A4 FF                10583 	.db #0xFF
   26A5 FF                10584 	.db #0xFF
   26A6 FF                10585 	.db #0xFF
   26A7 FF                10586 	.db #0xFF
   26A8 FF                10587 	.db #0xFF
   26A9 FF                10588 	.db #0xFF
   26AA FF                10589 	.db #0xFF
   26AB FF                10590 	.db #0xFF
   26AC FF                10591 	.db #0xFF
   26AD FF                10592 	.db #0xFF
   26AE FF                10593 	.db #0xFF
   26AF FF                10594 	.db #0xFF
   26B0 FF                10595 	.db #0xFF
   26B1 FF                10596 	.db #0xFF
   26B2 FF                10597 	.db #0xFF
   26B3 FF                10598 	.db #0xFF
   26B4 FF                10599 	.db #0xFF
   26B5 FF                10600 	.db #0xFF
   26B6 FF                10601 	.db #0xFF
   26B7 FF                10602 	.db #0xFF
   26B8 FF                10603 	.db #0xFF
   26B9 FE                10604 	.db #0xFE
   26BA FF                10605 	.db #0xFF
   26BB FE                10606 	.db #0xFE
   26BC FF                10607 	.db #0xFF
   26BD CC                10608 	.db #0xCC
   26BE F3                10609 	.db #0xF3
   26BF F7                10610 	.db #0xF7
   26C0 EF                10611 	.db #0xEF
   26C1 FF                10612 	.db #0xFF
   26C2 EF                10613 	.db #0xEF
   26C3 DF                10614 	.db #0xDF
   26C4 EF                10615 	.db #0xEF
   26C5 CF                10616 	.db #0xCF
   26C6 FF                10617 	.db #0xFF
   26C7 9F                10618 	.db #0x9F
   26C8 FF                10619 	.db #0xFF
   26C9 1C                10620 	.db #0x1C
   26CA FF                10621 	.db #0xFF
   26CB 1F                10622 	.db #0x1F
   26CC FF                10623 	.db #0xFF
   26CD BC                10624 	.db #0xBC
   26CE 7F                10625 	.db #0x7F
   26CF A8                10626 	.db #0xA8
   26D0 DF                10627 	.db #0xDF
   26D1 E3                10628 	.db #0xE3
   26D2 FC                10629 	.db #0xFC
   26D3 BB                10630 	.db #0xBB
   26D4 FC                10631 	.db #0xFC
   26D5 7E                10632 	.db #0x7E
   26D6 FF                10633 	.db #0xFF
   26D7 3F                10634 	.db #0x3F
   26D8 FF                10635 	.db #0xFF
   26D9 3F                10636 	.db #0x3F
   26DA FF                10637 	.db #0xFF
   26DB F3                10638 	.db #0xF3
   26DC FC                10639 	.db #0xFC
   26DD FF                10640 	.db #0xFF
   26DE FF                10641 	.db #0xFF
   26DF BF                10642 	.db #0xBF
   26E0 FF                10643 	.db #0xFF
   26E1 07                10644 	.db #0x07
   26E2 FF                10645 	.db #0xFF
   26E3 C3                10646 	.db #0xC3
   26E4 3F                10647 	.db #0x3F
   26E5 0F                10648 	.db #0x0F
   26E6 FF                10649 	.db #0xFF
   26E7 FF                10650 	.db #0xFF
   26E8 FF                10651 	.db #0xFF
   26E9 E0                10652 	.db #0xE0
   26EA FF                10653 	.db #0xFF
   26EB FF                10654 	.db #0xFF
   26EC 00                10655 	.db #0x00
   26ED FF                10656 	.db #0xFF
   26EE FF                10657 	.db #0xFF
   26EF FF                10658 	.db #0xFF
   26F0 FF                10659 	.db #0xFF
   26F1 FF                10660 	.db #0xFF
   26F2 FF                10661 	.db #0xFF
   26F3 FF                10662 	.db #0xFF
   26F4 FF                10663 	.db #0xFF
   26F5 FF                10664 	.db #0xFF
   26F6 FF                10665 	.db #0xFF
   26F7 FF                10666 	.db #0xFF
   26F8 FF                10667 	.db #0xFF
   26F9 1F                10668 	.db #0x1F
   26FA FF                10669 	.db #0xFF
   26FB 87                10670 	.db #0x87
   26FC 7F                10671 	.db #0x7F
   26FD FF                10672 	.db #0xFF
   26FE FF                10673 	.db #0xFF
   26FF FF                10674 	.db #0xFF
   2700 FF                10675 	.db #0xFF
   2701 FF                10676 	.db #0xFF
   2702 FF                10677 	.db #0xFF
   2703 FF                10678 	.db #0xFF
   2704 FF                10679 	.db #0xFF
   2705 FF                10680 	.db #0xFF
   2706 FF                10681 	.db #0xFF
   2707 FF                10682 	.db #0xFF
   2708 FF                10683 	.db #0xFF
   2709 FF                10684 	.db #0xFF
   270A FF                10685 	.db #0xFF
   270B FF                10686 	.db #0xFF
   270C FF                10687 	.db #0xFF
   270D FB                10688 	.db #0xFB
   270E FC                10689 	.db #0xFC
   270F FF                10690 	.db #0xFF
   2710 FE                10691 	.db #0xFE
   2711 FF                10692 	.db #0xFF
   2712 FF                10693 	.db #0xFF
   2713 FF                10694 	.db #0xFF
   2714 FF                10695 	.db #0xFF
   2715 FF                10696 	.db #0xFF
   2716 FF                10697 	.db #0xFF
   2717 FF                10698 	.db #0xFF
   2718 FF                10699 	.db #0xFF
   2719 FF                10700 	.db #0xFF
   271A FF                10701 	.db #0xFF
   271B FF                10702 	.db #0xFF
   271C FF                10703 	.db #0xFF
   271D DD                10704 	.db #0xDD
   271E 3E                10705 	.db #0x3E
   271F FF                10706 	.db #0xFF
   2720 38                10707 	.db #0x38
   2721 CF                10708 	.db #0xCF
   2722 30                10709 	.db #0x30
   2723 7F                10710 	.db #0x7F
   2724 80                10711 	.db #0x80
   2725 BF                10712 	.db #0xBF
   2726 C0                10713 	.db #0xC0
   2727 FF                10714 	.db #0xFF
   2728 C0                10715 	.db #0xC0
   2729 DF                10716 	.db #0xDF
   272A E0                10717 	.db #0xE0
   272B FF                10718 	.db #0xFF
   272C E0                10719 	.db #0xE0
   272D FF                10720 	.db #0xFF
   272E 0F                10721 	.db #0x0F
   272F FF                10722 	.db #0xFF
   2730 07                10723 	.db #0x07
   2731 FD                10724 	.db #0xFD
   2732 02                10725 	.db #0x02
   2733 FF                10726 	.db #0xFF
   2734 00                10727 	.db #0x00
   2735 FF                10728 	.db #0xFF
   2736 00                10729 	.db #0x00
   2737 FF                10730 	.db #0xFF
   2738 00                10731 	.db #0x00
   2739 FF                10732 	.db #0xFF
   273A 00                10733 	.db #0x00
   273B FF                10734 	.db #0xFF
   273C 00                10735 	.db #0x00
   273D F7                10736 	.db #0xF7
   273E 0F                10737 	.db #0x0F
   273F EF                10738 	.db #0xEF
   2740 1E                10739 	.db #0x1E
   2741 FB                10740 	.db #0xFB
   2742 1C                10741 	.db #0x1C
   2743 FF                10742 	.db #0xFF
   2744 00                10743 	.db #0x00
   2745 FF                10744 	.db #0xFF
   2746 00                10745 	.db #0x00
   2747 FF                10746 	.db #0xFF
   2748 00                10747 	.db #0x00
   2749 FF                10748 	.db #0xFF
   274A 00                10749 	.db #0x00
   274B FF                10750 	.db #0xFF
   274C 00                10751 	.db #0x00
   274D 7F                10752 	.db #0x7F
   274E 80                10753 	.db #0x80
   274F FF                10754 	.db #0xFF
   2750 00                10755 	.db #0x00
   2751 FF                10756 	.db #0xFF
   2752 00                10757 	.db #0x00
   2753 FF                10758 	.db #0xFF
   2754 00                10759 	.db #0x00
   2755 FF                10760 	.db #0xFF
   2756 00                10761 	.db #0x00
   2757 FF                10762 	.db #0xFF
   2758 00                10763 	.db #0x00
   2759 FF                10764 	.db #0xFF
   275A 00                10765 	.db #0x00
   275B FF                10766 	.db #0xFF
   275C 00                10767 	.db #0x00
   275D EF                10768 	.db #0xEF
   275E 1F                10769 	.db #0x1F
   275F DE                10770 	.db #0xDE
   2760 3F                10771 	.db #0x3F
   2761 FB                10772 	.db #0xFB
   2762 1C                10773 	.db #0x1C
   2763 FF                10774 	.db #0xFF
   2764 00                10775 	.db #0x00
   2765 FF                10776 	.db #0xFF
   2766 00                10777 	.db #0x00
   2767 FF                10778 	.db #0xFF
   2768 00                10779 	.db #0x00
   2769 FF                10780 	.db #0xFF
   276A 00                10781 	.db #0x00
   276B FF                10782 	.db #0xFF
   276C 00                10783 	.db #0x00
   276D BF                10784 	.db #0xBF
   276E C0                10785 	.db #0xC0
   276F FF                10786 	.db #0xFF
   2770 00                10787 	.db #0x00
   2771 FF                10788 	.db #0xFF
   2772 00                10789 	.db #0x00
   2773 FF                10790 	.db #0xFF
   2774 00                10791 	.db #0x00
   2775 FF                10792 	.db #0xFF
   2776 00                10793 	.db #0x00
   2777 FF                10794 	.db #0xFF
   2778 00                10795 	.db #0x00
   2779 FF                10796 	.db #0xFF
   277A 00                10797 	.db #0x00
   277B FF                10798 	.db #0xFF
   277C 00                10799 	.db #0x00
   277D DF                10800 	.db #0xDF
   277E 31                10801 	.db #0x31
   277F FF                10802 	.db #0xFF
   2780 01                10803 	.db #0x01
   2781 FF                10804 	.db #0xFF
   2782 00                10805 	.db #0x00
   2783 FF                10806 	.db #0xFF
   2784 00                10807 	.db #0x00
   2785 FF                10808 	.db #0xFF
   2786 00                10809 	.db #0x00
   2787 FF                10810 	.db #0xFF
   2788 00                10811 	.db #0x00
   2789 FF                10812 	.db #0xFF
   278A 00                10813 	.db #0x00
   278B FF                10814 	.db #0xFF
   278C 00                10815 	.db #0x00
   278D 3F                10816 	.db #0x3F
   278E F0                10817 	.db #0xF0
   278F FF                10818 	.db #0xFF
   2790 F0                10819 	.db #0xF0
   2791 7F                10820 	.db #0x7F
   2792 F0                10821 	.db #0xF0
   2793 FF                10822 	.db #0xFF
   2794 00                10823 	.db #0x00
   2795 FF                10824 	.db #0xFF
   2796 00                10825 	.db #0x00
   2797 FF                10826 	.db #0xFF
   2798 00                10827 	.db #0x00
   2799 FF                10828 	.db #0xFF
   279A 00                10829 	.db #0x00
   279B FF                10830 	.db #0xFF
   279C 00                10831 	.db #0x00
   279D FF                10832 	.db #0xFF
   279E 00                10833 	.db #0x00
   279F FE                10834 	.db #0xFE
   27A0 01                10835 	.db #0x01
   27A1 FF                10836 	.db #0xFF
   27A2 01                10837 	.db #0x01
   27A3 FD                10838 	.db #0xFD
   27A4 03                10839 	.db #0x03
   27A5 FD                10840 	.db #0xFD
   27A6 03                10841 	.db #0x03
   27A7 FF                10842 	.db #0xFF
   27A8 03                10843 	.db #0x03
   27A9 FF                10844 	.db #0xFF
   27AA 03                10845 	.db #0x03
   27AB FF                10846 	.db #0xFF
   27AC 03                10847 	.db #0x03
   27AD FF                10848 	.db #0xFF
   27AE FF                10849 	.db #0xFF
   27AF FF                10850 	.db #0xFF
   27B0 FF                10851 	.db #0xFF
   27B1 F3                10852 	.db #0xF3
   27B2 FF                10853 	.db #0xFF
   27B3 C8                10854 	.db #0xC8
   27B4 F7                10855 	.db #0xF7
   27B5 E1                10856 	.db #0xE1
   27B6 FF                10857 	.db #0xFF
   27B7 F3                10858 	.db #0xF3
   27B8 FF                10859 	.db #0xFF
   27B9 FF                10860 	.db #0xFF
   27BA FF                10861 	.db #0xFF
   27BB FF                10862 	.db #0xFF
   27BC FF                10863 	.db #0xFF
   27BD FF                10864 	.db #0xFF
   27BE FF                10865 	.db #0xFF
   27BF FF                10866 	.db #0xFF
   27C0 FF                10867 	.db #0xFF
   27C1 FF                10868 	.db #0xFF
   27C2 FF                10869 	.db #0xFF
   27C3 FF                10870 	.db #0xFF
   27C4 FF                10871 	.db #0xFF
   27C5 FF                10872 	.db #0xFF
   27C6 FF                10873 	.db #0xFF
   27C7 FF                10874 	.db #0xFF
   27C8 FF                10875 	.db #0xFF
   27C9 FF                10876 	.db #0xFF
   27CA FF                10877 	.db #0xFF
   27CB FE                10878 	.db #0xFE
   27CC FF                10879 	.db #0xFF
   27CD BF                10880 	.db #0xBF
   27CE FF                10881 	.db #0xFF
   27CF 3D                10882 	.db #0x3D
   27D0 FF                10883 	.db #0xFF
   27D1 F2                10884 	.db #0xF2
   27D2 FD                10885 	.db #0xFD
   27D3 CF                10886 	.db #0xCF
   27D4 F0                10887 	.db #0xF0
   27D5 AB                10888 	.db #0xAB
   27D6 D0                10889 	.db #0xD0
   27D7 77                10890 	.db #0x77
   27D8 88                10891 	.db #0x88
   27D9 87                10892 	.db #0x87
   27DA 08                10893 	.db #0x08
   27DB 09                10894 	.db #0x09
   27DC 06                10895 	.db #0x06
   27DD 03                10896 	.db #0x03
   27DE FC                10897 	.db #0xFC
   27DF 7E                10898 	.db #0x7E
   27E0 80                10899 	.db #0x80
   27E1 70                10900 	.db #0x70
   27E2 80                10901 	.db #0x80
   27E3 E0                10902 	.db #0xE0
   27E4 00                10903 	.db #0x00
   27E5 C0                10904 	.db #0xC0
   27E6 00                10905 	.db #0x00
   27E7 C0                10906 	.db #0xC0
   27E8 00                10907 	.db #0x00
   27E9 80                10908 	.db #0x80
   27EA 00                10909 	.db #0x00
   27EB E0                10910 	.db #0xE0
   27EC 00                10911 	.db #0x00
   27ED 80                10912 	.db #0x80
   27EE 00                10913 	.db #0x00
   27EF 00                10914 	.db #0x00
   27F0 00                10915 	.db #0x00
   27F1 00                10916 	.db #0x00
   27F2 00                10917 	.db #0x00
   27F3 00                10918 	.db #0x00
   27F4 00                10919 	.db #0x00
   27F5 00                10920 	.db #0x00
   27F6 00                10921 	.db #0x00
   27F7 00                10922 	.db #0x00
   27F8 00                10923 	.db #0x00
   27F9 00                10924 	.db #0x00
   27FA 00                10925 	.db #0x00
   27FB 00                10926 	.db #0x00
   27FC 00                10927 	.db #0x00
   27FD F9                10928 	.db #0xF9
   27FE 07                10929 	.db #0x07
   27FF BE                10930 	.db #0xBE
   2800 01                10931 	.db #0x01
   2801 3F                10932 	.db #0x3F
   2802 00                10933 	.db #0x00
   2803 1F                10934 	.db #0x1F
   2804 00                10935 	.db #0x00
   2805 0F                10936 	.db #0x0F
   2806 00                10937 	.db #0x00
   2807 07                10938 	.db #0x07
   2808 00                10939 	.db #0x00
   2809 03                10940 	.db #0x03
   280A 00                10941 	.db #0x00
   280B 00                10942 	.db #0x00
   280C 00                10943 	.db #0x00
   280D FF                10944 	.db #0xFF
   280E FF                10945 	.db #0xFF
   280F FF                10946 	.db #0xFF
   2810 FF                10947 	.db #0xFF
   2811 BF                10948 	.db #0xBF
   2812 7F                10949 	.db #0x7F
   2813 DF                10950 	.db #0xDF
   2814 3F                10951 	.db #0x3F
   2815 EF                10952 	.db #0xEF
   2816 1F                10953 	.db #0x1F
   2817 FF                10954 	.db #0xFF
   2818 0F                10955 	.db #0x0F
   2819 F7                10956 	.db #0xF7
   281A 0F                10957 	.db #0x0F
   281B FF                10958 	.db #0xFF
   281C 07                10959 	.db #0x07
   281D FF                10960 	.db #0xFF
   281E FF                10961 	.db #0xFF
   281F FF                10962 	.db #0xFF
   2820 FF                10963 	.db #0xFF
   2821 FF                10964 	.db #0xFF
   2822 FF                10965 	.db #0xFF
   2823 FF                10966 	.db #0xFF
   2824 FF                10967 	.db #0xFF
   2825 FF                10968 	.db #0xFF
   2826 FF                10969 	.db #0xFF
   2827 EF                10970 	.db #0xEF
   2828 FF                10971 	.db #0xFF
   2829 FF                10972 	.db #0xFF
   282A FF                10973 	.db #0xFF
   282B F9                10974 	.db #0xF9
   282C FF                10975 	.db #0xFF
   282D EF                10976 	.db #0xEF
   282E F0                10977 	.db #0xF0
   282F EF                10978 	.db #0xEF
   2830 F0                10979 	.db #0xF0
   2831 FF                10980 	.db #0xFF
   2832 F0                10981 	.db #0xF0
   2833 FF                10982 	.db #0xFF
   2834 F0                10983 	.db #0xF0
   2835 FF                10984 	.db #0xFF
   2836 F0                10985 	.db #0xF0
   2837 FF                10986 	.db #0xFF
   2838 F0                10987 	.db #0xF0
   2839 F7                10988 	.db #0xF7
   283A F8                10989 	.db #0xF8
   283B F7                10990 	.db #0xF7
   283C F8                10991 	.db #0xF8
   283D FF                10992 	.db #0xFF
   283E 03                10993 	.db #0x03
   283F FF                10994 	.db #0xFF
   2840 03                10995 	.db #0x03
   2841 FF                10996 	.db #0xFF
   2842 03                10997 	.db #0x03
   2843 FD                10998 	.db #0xFD
   2844 03                10999 	.db #0x03
   2845 FF                11000 	.db #0xFF
   2846 01                11001 	.db #0x01
   2847 FC                11002 	.db #0xFC
   2848 01                11003 	.db #0x01
   2849 FF                11004 	.db #0xFF
   284A 00                11005 	.db #0x00
   284B FE                11006 	.db #0xFE
   284C 00                11007 	.db #0x00
   284D FF                11008 	.db #0xFF
   284E FF                11009 	.db #0xFF
   284F FF                11010 	.db #0xFF
   2850 FF                11011 	.db #0xFF
   2851 FF                11012 	.db #0xFF
   2852 FF                11013 	.db #0xFF
   2853 FF                11014 	.db #0xFF
   2854 FF                11015 	.db #0xFF
   2855 FF                11016 	.db #0xFF
   2856 FF                11017 	.db #0xFF
   2857 FF                11018 	.db #0xFF
   2858 FF                11019 	.db #0xFF
   2859 FF                11020 	.db #0xFF
   285A FF                11021 	.db #0xFF
   285B 7F                11022 	.db #0x7F
   285C FF                11023 	.db #0xFF
   285D F9                11024 	.db #0xF9
   285E FE                11025 	.db #0xFE
   285F F3                11026 	.db #0xF3
   2860 FC                11027 	.db #0xFC
   2861 EB                11028 	.db #0xEB
   2862 F4                11029 	.db #0xF4
   2863 E3                11030 	.db #0xE3
   2864 FC                11031 	.db #0xFC
   2865 F3                11032 	.db #0xF3
   2866 FC                11033 	.db #0xFC
   2867 F3                11034 	.db #0xF3
   2868 FC                11035 	.db #0xFC
   2869 F3                11036 	.db #0xF3
   286A FC                11037 	.db #0xFC
   286B FC                11038 	.db #0xFC
   286C FF                11039 	.db #0xFF
   286D FA                11040 	.db #0xFA
   286E 04                11041 	.db #0x04
   286F FC                11042 	.db #0xFC
   2870 00                11043 	.db #0x00
   2871 FE                11044 	.db #0xFE
   2872 00                11045 	.db #0x00
   2873 E6                11046 	.db #0xE6
   2874 08                11047 	.db #0x08
   2875 FE                11048 	.db #0xFE
   2876 00                11049 	.db #0x00
   2877 FF                11050 	.db #0xFF
   2878 00                11051 	.db #0x00
   2879 FE                11052 	.db #0xFE
   287A 01                11053 	.db #0x01
   287B 83                11054 	.db #0x83
   287C 7F                11055 	.db #0x7F
   287D 00                11056 	.db #0x00
   287E 00                11057 	.db #0x00
   287F 03                11058 	.db #0x03
   2880 00                11059 	.db #0x00
   2881 1F                11060 	.db #0x1F
   2882 00                11061 	.db #0x00
   2883 00                11062 	.db #0x00
   2884 00                11063 	.db #0x00
   2885 08                11064 	.db #0x08
   2886 00                11065 	.db #0x00
   2887 BF                11066 	.db #0xBF
   2888 40                11067 	.db #0x40
   2889 07                11068 	.db #0x07
   288A F8                11069 	.db #0xF8
   288B F8                11070 	.db #0xF8
   288C FF                11071 	.db #0xFF
   288D 30                11072 	.db #0x30
   288E 00                11073 	.db #0x00
   288F F0                11074 	.db #0xF0
   2890 00                11075 	.db #0x00
   2891 87                11076 	.db #0x87
   2892 00                11077 	.db #0x00
   2893 07                11078 	.db #0x07
   2894 00                11079 	.db #0x00
   2895 1E                11080 	.db #0x1E
   2896 01                11081 	.db #0x01
   2897 FC                11082 	.db #0xFC
   2898 03                11083 	.db #0x03
   2899 FC                11084 	.db #0xFC
   289A 03                11085 	.db #0x03
   289B 7C                11086 	.db #0x7C
   289C 83                11087 	.db #0x83
   289D 07                11088 	.db #0x07
   289E 00                11089 	.db #0x00
   289F 7C                11090 	.db #0x7C
   28A0 03                11091 	.db #0x03
   28A1 C7                11092 	.db #0xC7
   28A2 3F                11093 	.db #0x3F
   28A3 3F                11094 	.db #0x3F
   28A4 FF                11095 	.db #0xFF
   28A5 3F                11096 	.db #0x3F
   28A6 FF                11097 	.db #0xFF
   28A7 1D                11098 	.db #0x1D
   28A8 FE                11099 	.db #0xFE
   28A9 3E                11100 	.db #0x3E
   28AA FD                11101 	.db #0xFD
   28AB 31                11102 	.db #0x31
   28AC FF                11103 	.db #0xFF
   28AD FB                11104 	.db #0xFB
   28AE 07                11105 	.db #0x07
   28AF 0D                11106 	.db #0x0D
   28B0 F3                11107 	.db #0xF3
   28B1 F3                11108 	.db #0xF3
   28B2 FD                11109 	.db #0xFD
   28B3 C3                11110 	.db #0xC3
   28B4 FC                11111 	.db #0xFC
   28B5 03                11112 	.db #0x03
   28B6 FC                11113 	.db #0xFC
   28B7 E3                11114 	.db #0xE3
   28B8 1C                11115 	.db #0x1C
   28B9 8F                11116 	.db #0x8F
   28BA F0                11117 	.db #0xF0
   28BB 3F                11118 	.db #0x3F
   28BC C0                11119 	.db #0xC0
   28BD FD                11120 	.db #0xFD
   28BE FF                11121 	.db #0xFF
   28BF F6                11122 	.db #0xF6
   28C0 FF                11123 	.db #0xFF
   28C1 FE                11124 	.db #0xFE
   28C2 FF                11125 	.db #0xFF
   28C3 FF                11126 	.db #0xFF
   28C4 FF                11127 	.db #0xFF
   28C5 7F                11128 	.db #0x7F
   28C6 FF                11129 	.db #0xFF
   28C7 EE                11130 	.db #0xEE
   28C8 7F                11131 	.db #0x7F
   28C9 AE                11132 	.db #0xAE
   28CA 7F                11133 	.db #0x7F
   28CB D4                11134 	.db #0xD4
   28CC 3F                11135 	.db #0x3F
   28CD F7                11136 	.db #0xF7
   28CE F8                11137 	.db #0xF8
   28CF EF                11138 	.db #0xEF
   28D0 F0                11139 	.db #0xF0
   28D1 EF                11140 	.db #0xEF
   28D2 F0                11141 	.db #0xF0
   28D3 CF                11142 	.db #0xCF
   28D4 F0                11143 	.db #0xF0
   28D5 F7                11144 	.db #0xF7
   28D6 C0                11145 	.db #0xC0
   28D7 A0                11146 	.db #0xA0
   28D8 C0                11147 	.db #0xC0
   28D9 60                11148 	.db #0x60
   28DA 80                11149 	.db #0x80
   28DB 40                11150 	.db #0x40
   28DC 80                11151 	.db #0x80
   28DD FF                11152 	.db #0xFF
   28DE 00                11153 	.db #0x00
   28DF FF                11154 	.db #0xFF
   28E0 00                11155 	.db #0x00
   28E1 FF                11156 	.db #0xFF
   28E2 00                11157 	.db #0x00
   28E3 FF                11158 	.db #0xFF
   28E4 00                11159 	.db #0x00
   28E5 FF                11160 	.db #0xFF
   28E6 00                11161 	.db #0x00
   28E7 1F                11162 	.db #0x1F
   28E8 00                11163 	.db #0x00
   28E9 00                11164 	.db #0x00
   28EA 00                11165 	.db #0x00
   28EB 00                11166 	.db #0x00
   28EC 00                11167 	.db #0x00
   28ED FF                11168 	.db #0xFF
   28EE 00                11169 	.db #0x00
   28EF FF                11170 	.db #0xFF
   28F0 00                11171 	.db #0x00
   28F1 FF                11172 	.db #0xFF
   28F2 00                11173 	.db #0x00
   28F3 FF                11174 	.db #0xFF
   28F4 00                11175 	.db #0x00
   28F5 FF                11176 	.db #0xFF
   28F6 00                11177 	.db #0x00
   28F7 03                11178 	.db #0x03
   28F8 00                11179 	.db #0x00
   28F9 00                11180 	.db #0x00
   28FA 00                11181 	.db #0x00
   28FB 00                11182 	.db #0x00
   28FC 00                11183 	.db #0x00
   28FD FF                11184 	.db #0xFF
   28FE 00                11185 	.db #0x00
   28FF FF                11186 	.db #0xFF
   2900 00                11187 	.db #0x00
   2901 FF                11188 	.db #0xFF
   2902 00                11189 	.db #0x00
   2903 FF                11190 	.db #0xFF
   2904 00                11191 	.db #0x00
   2905 FF                11192 	.db #0xFF
   2906 00                11193 	.db #0x00
   2907 FF                11194 	.db #0xFF
   2908 00                11195 	.db #0x00
   2909 00                11196 	.db #0x00
   290A 00                11197 	.db #0x00
   290B 00                11198 	.db #0x00
   290C 00                11199 	.db #0x00
   290D FF                11200 	.db #0xFF
   290E 00                11201 	.db #0x00
   290F FF                11202 	.db #0xFF
   2910 00                11203 	.db #0x00
   2911 FF                11204 	.db #0xFF
   2912 00                11205 	.db #0x00
   2913 FF                11206 	.db #0xFF
   2914 00                11207 	.db #0x00
   2915 FF                11208 	.db #0xFF
   2916 00                11209 	.db #0x00
   2917 F8                11210 	.db #0xF8
   2918 00                11211 	.db #0x00
   2919 00                11212 	.db #0x00
   291A 00                11213 	.db #0x00
   291B 00                11214 	.db #0x00
   291C 00                11215 	.db #0x00
   291D FF                11216 	.db #0xFF
   291E 00                11217 	.db #0x00
   291F FF                11218 	.db #0xFF
   2920 00                11219 	.db #0x00
   2921 FF                11220 	.db #0xFF
   2922 00                11221 	.db #0x00
   2923 FF                11222 	.db #0xFF
   2924 00                11223 	.db #0x00
   2925 FF                11224 	.db #0xFF
   2926 00                11225 	.db #0x00
   2927 00                11226 	.db #0x00
   2928 00                11227 	.db #0x00
   2929 00                11228 	.db #0x00
   292A 00                11229 	.db #0x00
   292B 00                11230 	.db #0x00
   292C 00                11231 	.db #0x00
   292D FF                11232 	.db #0xFF
   292E 00                11233 	.db #0x00
   292F FF                11234 	.db #0xFF
   2930 00                11235 	.db #0x00
   2931 FF                11236 	.db #0xFF
   2932 00                11237 	.db #0x00
   2933 FF                11238 	.db #0xFF
   2934 00                11239 	.db #0x00
   2935 FF                11240 	.db #0xFF
   2936 00                11241 	.db #0x00
   2937 98                11242 	.db #0x98
   2938 00                11243 	.db #0x00
   2939 00                11244 	.db #0x00
   293A 00                11245 	.db #0x00
   293B 00                11246 	.db #0x00
   293C 00                11247 	.db #0x00
   293D FF                11248 	.db #0xFF
   293E 00                11249 	.db #0x00
   293F FF                11250 	.db #0xFF
   2940 00                11251 	.db #0x00
   2941 00                11252 	.db #0x00
   2942 00                11253 	.db #0x00
   2943 00                11254 	.db #0x00
   2944 00                11255 	.db #0x00
   2945 00                11256 	.db #0x00
   2946 00                11257 	.db #0x00
   2947 00                11258 	.db #0x00
   2948 00                11259 	.db #0x00
   2949 00                11260 	.db #0x00
   294A 00                11261 	.db #0x00
   294B 00                11262 	.db #0x00
   294C 00                11263 	.db #0x00
   294D FF                11264 	.db #0xFF
   294E 00                11265 	.db #0x00
   294F E0                11266 	.db #0xE0
   2950 00                11267 	.db #0x00
   2951 00                11268 	.db #0x00
   2952 00                11269 	.db #0x00
   2953 00                11270 	.db #0x00
   2954 00                11271 	.db #0x00
   2955 00                11272 	.db #0x00
   2956 00                11273 	.db #0x00
   2957 00                11274 	.db #0x00
   2958 00                11275 	.db #0x00
   2959 00                11276 	.db #0x00
   295A 00                11277 	.db #0x00
   295B 00                11278 	.db #0x00
   295C 00                11279 	.db #0x00
   295D 7F                11280 	.db #0x7F
   295E 7F                11281 	.db #0x7F
   295F 7F                11282 	.db #0x7F
   2960 3F                11283 	.db #0x3F
   2961 3F                11284 	.db #0x3F
   2962 1F                11285 	.db #0x1F
   2963 1F                11286 	.db #0x1F
   2964 0F                11287 	.db #0x0F
   2965 03                11288 	.db #0x03
   2966 07                11289 	.db #0x07
   2967 01                11290 	.db #0x01
   2968 03                11291 	.db #0x03
   2969 01                11292 	.db #0x01
   296A 00                11293 	.db #0x00
   296B 00                11294 	.db #0x00
   296C 00                11295 	.db #0x00
   296D F7                11296 	.db #0xF7
   296E FF                11297 	.db #0xFF
   296F FF                11298 	.db #0xFF
   2970 FF                11299 	.db #0xFF
   2971 FF                11300 	.db #0xFF
   2972 FF                11301 	.db #0xFF
   2973 FF                11302 	.db #0xFF
   2974 FF                11303 	.db #0xFF
   2975 FF                11304 	.db #0xFF
   2976 FF                11305 	.db #0xFF
   2977 FF                11306 	.db #0xFF
   2978 FF                11307 	.db #0xFF
   2979 FF                11308 	.db #0xFF
   297A FF                11309 	.db #0xFF
   297B 3F                11310 	.db #0x3F
   297C 7F                11311 	.db #0x7F
   297D FE                11312 	.db #0xFE
   297E FF                11313 	.db #0xFF
   297F FD                11314 	.db #0xFD
   2980 FE                11315 	.db #0xFE
   2981 FF                11316 	.db #0xFF
   2982 FE                11317 	.db #0xFE
   2983 FE                11318 	.db #0xFE
   2984 FF                11319 	.db #0xFF
   2985 FF                11320 	.db #0xFF
   2986 FF                11321 	.db #0xFF
   2987 FF                11322 	.db #0xFF
   2988 FF                11323 	.db #0xFF
   2989 FF                11324 	.db #0xFF
   298A FF                11325 	.db #0xFF
   298B FF                11326 	.db #0xFF
   298C FF                11327 	.db #0xFF
   298D BF                11328 	.db #0xBF
   298E 7F                11329 	.db #0x7F
   298F 7F                11330 	.db #0x7F
   2990 FF                11331 	.db #0xFF
   2991 7E                11332 	.db #0x7E
   2992 FF                11333 	.db #0xFF
   2993 A3                11334 	.db #0xA3
   2994 7C                11335 	.db #0x7C
   2995 D1                11336 	.db #0xD1
   2996 3F                11337 	.db #0x3F
   2997 44                11338 	.db #0x44
   2998 BB                11339 	.db #0xBB
   2999 FE                11340 	.db #0xFE
   299A 81                11341 	.db #0x81
   299B BF                11342 	.db #0xBF
   299C C0                11343 	.db #0xC0
   299D FF                11344 	.db #0xFF
   299E FF                11345 	.db #0xFF
   299F FF                11346 	.db #0xFF
   29A0 FF                11347 	.db #0xFF
   29A1 C2                11348 	.db #0xC2
   29A2 3F                11349 	.db #0x3F
   29A3 06                11350 	.db #0x06
   29A4 F9                11351 	.db #0xF9
   29A5 15                11352 	.db #0x15
   29A6 F8                11353 	.db #0xF8
   29A7 9F                11354 	.db #0x9F
   29A8 60                11355 	.db #0x60
   29A9 79                11356 	.db #0x79
   29AA 86                11357 	.db #0x86
   29AB 03                11358 	.db #0x03
   29AC FC                11359 	.db #0xFC
   29AD BF                11360 	.db #0xBF
   29AE C0                11361 	.db #0xC0
   29AF 50                11362 	.db #0x50
   29B0 E0                11363 	.db #0xE0
   29B1 10                11364 	.db #0x10
   29B2 E0                11365 	.db #0xE0
   29B3 78                11366 	.db #0x78
   29B4 80                11367 	.db #0x80
   29B5 F8                11368 	.db #0xF8
   29B6 00                11369 	.db #0x00
   29B7 D8                11370 	.db #0xD8
   29B8 00                11371 	.db #0x00
   29B9 9C                11372 	.db #0x9C
   29BA 00                11373 	.db #0x00
   29BB 3E                11374 	.db #0x3E
   29BC 00                11375 	.db #0x00
   29BD 0C                11376 	.db #0x0C
   29BE F3                11377 	.db #0xF3
   29BF FF                11378 	.db #0xFF
   29C0 00                11379 	.db #0x00
   29C1 0C                11380 	.db #0x0C
   29C2 03                11381 	.db #0x03
   29C3 01                11382 	.db #0x01
   29C4 00                11383 	.db #0x00
   29C5 30                11384 	.db #0x30
   29C6 00                11385 	.db #0x00
   29C7 1C                11386 	.db #0x1C
   29C8 00                11387 	.db #0x00
   29C9 0E                11388 	.db #0x0E
   29CA 00                11389 	.db #0x00
   29CB 0F                11390 	.db #0x0F
   29CC 00                11391 	.db #0x00
   29CD 6D                11392 	.db #0x6D
   29CE 90                11393 	.db #0x90
   29CF 8C                11394 	.db #0x8C
   29D0 70                11395 	.db #0x70
   29D1 38                11396 	.db #0x38
   29D2 C0                11397 	.db #0xC0
   29D3 C1                11398 	.db #0xC1
   29D4 00                11399 	.db #0x00
   29D5 01                11400 	.db #0x01
   29D6 00                11401 	.db #0x00
   29D7 00                11402 	.db #0x00
   29D8 00                11403 	.db #0x00
   29D9 00                11404 	.db #0x00
   29DA 00                11405 	.db #0x00
   29DB 00                11406 	.db #0x00
   29DC 00                11407 	.db #0x00
   29DD E7                11408 	.db #0xE7
   29DE 1F                11409 	.db #0x1F
   29DF EE                11410 	.db #0xEE
   29E0 1F                11411 	.db #0x1F
   29E1 FC                11412 	.db #0xFC
   29E2 0F                11413 	.db #0x0F
   29E3 F7                11414 	.db #0xF7
   29E4 0F                11415 	.db #0x0F
   29E5 F4                11416 	.db #0xF4
   29E6 0F                11417 	.db #0x0F
   29E7 FC                11418 	.db #0xFC
   29E8 07                11419 	.db #0x07
   29E9 7A                11420 	.db #0x7A
   29EA 07                11421 	.db #0x07
   29EB 79                11422 	.db #0x79
   29EC 06                11423 	.db #0x06
   29ED B0                11424 	.db #0xB0
   29EE C0                11425 	.db #0xC0
   29EF 70                11426 	.db #0x70
   29F0 80                11427 	.db #0x80
   29F1 20                11428 	.db #0x20
   29F2 C0                11429 	.db #0xC0
   29F3 80                11430 	.db #0x80
   29F4 C0                11431 	.db #0xC0
   29F5 40                11432 	.db #0x40
   29F6 80                11433 	.db #0x80
   29F7 C0                11434 	.db #0xC0
   29F8 00                11435 	.db #0x00
   29F9 80                11436 	.db #0x80
   29FA 00                11437 	.db #0x00
   29FB 00                11438 	.db #0x00
   29FC 00                11439 	.db #0x00
   29FD 00                11440 	.db #0x00
   29FE 00                11441 	.db #0x00
   29FF 00                11442 	.db #0x00
   2A00 00                11443 	.db #0x00
   2A01 00                11444 	.db #0x00
   2A02 00                11445 	.db #0x00
   2A03 00                11446 	.db #0x00
   2A04 00                11447 	.db #0x00
   2A05 00                11448 	.db #0x00
   2A06 00                11449 	.db #0x00
   2A07 00                11450 	.db #0x00
   2A08 00                11451 	.db #0x00
   2A09 00                11452 	.db #0x00
   2A0A 00                11453 	.db #0x00
   2A0B 00                11454 	.db #0x00
   2A0C 00                11455 	.db #0x00
   2A0D 0F                11456 	.db #0x0F
   2A0E 1F                11457 	.db #0x1F
   2A0F 0B                11458 	.db #0x0B
   2A10 07                11459 	.db #0x07
   2A11 01                11460 	.db #0x01
   2A12 00                11461 	.db #0x00
   2A13 00                11462 	.db #0x00
   2A14 00                11463 	.db #0x00
   2A15 00                11464 	.db #0x00
   2A16 00                11465 	.db #0x00
   2A17 00                11466 	.db #0x00
   2A18 00                11467 	.db #0x00
   2A19 00                11468 	.db #0x00
   2A1A 00                11469 	.db #0x00
   2A1B 00                11470 	.db #0x00
   2A1C 00                11471 	.db #0x00
   2A1D FF                11472 	.db #0xFF
   2A1E FF                11473 	.db #0xFF
   2A1F FF                11474 	.db #0xFF
   2A20 FF                11475 	.db #0xFF
   2A21 FF                11476 	.db #0xFF
   2A22 FF                11477 	.db #0xFF
   2A23 2F                11478 	.db #0x2F
   2A24 1F                11479 	.db #0x1F
   2A25 00                11480 	.db #0x00
   2A26 03                11481 	.db #0x03
   2A27 01                11482 	.db #0x01
   2A28 00                11483 	.db #0x00
   2A29 01                11484 	.db #0x01
   2A2A 00                11485 	.db #0x00
   2A2B 01                11486 	.db #0x01
   2A2C 00                11487 	.db #0x00
   2A2D DF                11488 	.db #0xDF
   2A2E E0                11489 	.db #0xE0
   2A2F FF                11490 	.db #0xFF
   2A30 E0                11491 	.db #0xE0
   2A31 EF                11492 	.db #0xEF
   2A32 F0                11493 	.db #0xF0
   2A33 F7                11494 	.db #0xF7
   2A34 F8                11495 	.db #0xF8
   2A35 E7                11496 	.db #0xE7
   2A36 F8                11497 	.db #0xF8
   2A37 3B                11498 	.db #0x3B
   2A38 FC                11499 	.db #0xFC
   2A39 05                11500 	.db #0x05
   2A3A FE                11501 	.db #0xFE
   2A3B F6                11502 	.db #0xF6
   2A3C 0F                11503 	.db #0x0F
   2A3D FE                11504 	.db #0xFE
   2A3E 00                11505 	.db #0x00
   2A3F C0                11506 	.db #0xC0
   2A40 00                11507 	.db #0x00
   2A41 E0                11508 	.db #0xE0
   2A42 00                11509 	.db #0x00
   2A43 E0                11510 	.db #0xE0
   2A44 00                11511 	.db #0x00
   2A45 F0                11512 	.db #0xF0
   2A46 00                11513 	.db #0x00
   2A47 F8                11514 	.db #0xF8
   2A48 00                11515 	.db #0x00
   2A49 F8                11516 	.db #0xF8
   2A4A 00                11517 	.db #0x00
   2A4B FC                11518 	.db #0xFC
   2A4C 00                11519 	.db #0x00
   2A4D 3E                11520 	.db #0x3E
   2A4E 00                11521 	.db #0x00
   2A4F 1E                11522 	.db #0x1E
   2A50 00                11523 	.db #0x00
   2A51 1C                11524 	.db #0x1C
   2A52 00                11525 	.db #0x00
   2A53 0F                11526 	.db #0x0F
   2A54 00                11527 	.db #0x00
   2A55 09                11528 	.db #0x09
   2A56 07                11529 	.db #0x07
   2A57 17                11530 	.db #0x17
   2A58 03                11531 	.db #0x03
   2A59 02                11532 	.db #0x02
   2A5A 01                11533 	.db #0x01
   2A5B 03                11534 	.db #0x03
   2A5C 00                11535 	.db #0x00
   2A5D 01                11536 	.db #0x01
   2A5E 00                11537 	.db #0x00
   2A5F 03                11538 	.db #0x03
   2A60 00                11539 	.db #0x00
   2A61 04                11540 	.db #0x04
   2A62 03                11541 	.db #0x03
   2A63 FB                11542 	.db #0xFB
   2A64 07                11543 	.db #0x07
   2A65 07                11544 	.db #0x07
   2A66 FF                11545 	.db #0xFF
   2A67 FE                11546 	.db #0xFE
   2A68 FF                11547 	.db #0xFF
   2A69 7E                11548 	.db #0x7E
   2A6A FF                11549 	.db #0xFF
   2A6B 1F                11550 	.db #0x1F
   2A6C FF                11551 	.db #0xFF
   2A6D 80                11552 	.db #0x80
   2A6E 00                11553 	.db #0x00
   2A6F E0                11554 	.db #0xE0
   2A70 00                11555 	.db #0x00
   2A71 40                11556 	.db #0x40
   2A72 80                11557 	.db #0x80
   2A73 46                11558 	.db #0x46
   2A74 80                11559 	.db #0x80
   2A75 47                11560 	.db #0x47
   2A76 80                11561 	.db #0x80
   2A77 7F                11562 	.db #0x7F
   2A78 80                11563 	.db #0x80
   2A79 00                11564 	.db #0x00
   2A7A FF                11565 	.db #0xFF
   2A7B E7                11566 	.db #0xE7
   2A7C FF                11567 	.db #0xFF
   2A7D 3A                11568 	.db #0x3A
   2A7E 07                11569 	.db #0x07
   2A7F 38                11570 	.db #0x38
   2A80 07                11571 	.db #0x07
   2A81 78                11572 	.db #0x78
   2A82 07                11573 	.db #0x07
   2A83 F8                11574 	.db #0xF8
   2A84 07                11575 	.db #0x07
   2A85 FD                11576 	.db #0xFD
   2A86 03                11577 	.db #0x03
   2A87 FC                11578 	.db #0xFC
   2A88 03                11579 	.db #0x03
   2A89 F0                11580 	.db #0xF0
   2A8A 0F                11581 	.db #0x0F
   2A8B 63                11582 	.db #0x63
   2A8C 9F                11583 	.db #0x9F
   2A8D 00                11584 	.db #0x00
   2A8E 00                11585 	.db #0x00
   2A8F 80                11586 	.db #0x80
   2A90 00                11587 	.db #0x00
   2A91 00                11588 	.db #0x00
   2A92 80                11589 	.db #0x80
   2A93 80                11590 	.db #0x80
   2A94 00                11591 	.db #0x00
   2A95 80                11592 	.db #0x80
   2A96 00                11593 	.db #0x00
   2A97 40                11594 	.db #0x40
   2A98 80                11595 	.db #0x80
   2A99 40                11596 	.db #0x40
   2A9A 80                11597 	.db #0x80
   2A9B 40                11598 	.db #0x40
   2A9C 80                11599 	.db #0x80
   2A9D 63                11600 	.db #0x63
   2A9E 1F                11601 	.db #0x1F
   2A9F 3E                11602 	.db #0x3E
   2AA0 01                11603 	.db #0x01
   2AA1 00                11604 	.db #0x00
   2AA2 00                11605 	.db #0x00
   2AA3 00                11606 	.db #0x00
   2AA4 00                11607 	.db #0x00
   2AA5 00                11608 	.db #0x00
   2AA6 00                11609 	.db #0x00
   2AA7 00                11610 	.db #0x00
   2AA8 00                11611 	.db #0x00
   2AA9 00                11612 	.db #0x00
   2AAA 00                11613 	.db #0x00
   2AAB 0D                11614 	.db #0x0D
   2AAC 03                11615 	.db #0x03
   2AAD 7F                11616 	.db #0x7F
   2AAE 80                11617 	.db #0x80
   2AAF 9F                11618 	.db #0x9F
   2AB0 E0                11619 	.db #0xE0
   2AB1 8F                11620 	.db #0x8F
   2AB2 70                11621 	.db #0x70
   2AB3 43                11622 	.db #0x43
   2AB4 3C                11623 	.db #0x3C
   2AB5 08                11624 	.db #0x08
   2AB6 3F                11625 	.db #0x3F
   2AB7 2F                11626 	.db #0x2F
   2AB8 1F                11627 	.db #0x1F
   2AB9 5F                11628 	.db #0x5F
   2ABA 3F                11629 	.db #0x3F
   2ABB FF                11630 	.db #0xFF
   2ABC FF                11631 	.db #0xFF
   2ABD 8E                11632 	.db #0x8E
   2ABE 01                11633 	.db #0x01
   2ABF FC                11634 	.db #0xFC
   2AC0 03                11635 	.db #0x03
   2AC1 F0                11636 	.db #0xF0
   2AC2 0F                11637 	.db #0x0F
   2AC3 E7                11638 	.db #0xE7
   2AC4 1F                11639 	.db #0x1F
   2AC5 DF                11640 	.db #0xDF
   2AC6 0F                11641 	.db #0x0F
   2AC7 36                11642 	.db #0x36
   2AC8 CF                11643 	.db #0xCF
   2AC9 E4                11644 	.db #0xE4
   2ACA FF                11645 	.db #0xFF
   2ACB FE                11646 	.db #0xFE
   2ACC FF                11647 	.db #0xFF
   2ACD 1B                11648 	.db #0x1B
   2ACE FF                11649 	.db #0xFF
   2ACF FC                11650 	.db #0xFC
   2AD0 FF                11651 	.db #0xFF
   2AD1 F4                11652 	.db #0xF4
   2AD2 F8                11653 	.db #0xF8
   2AD3 D7                11654 	.db #0xD7
   2AD4 E0                11655 	.db #0xE0
   2AD5 B9                11656 	.db #0xB9
   2AD6 C7                11657 	.db #0xC7
   2AD7 43                11658 	.db #0x43
   2AD8 BF                11659 	.db #0xBF
   2AD9 4B                11660 	.db #0x4B
   2ADA BF                11661 	.db #0xBF
   2ADB 7F                11662 	.db #0x7F
   2ADC FF                11663 	.db #0xFF
   2ADD E6                11664 	.db #0xE6
   2ADE FF                11665 	.db #0xFF
   2ADF F3                11666 	.db #0xF3
   2AE0 0C                11667 	.db #0x0C
   2AE1 77                11668 	.db #0x77
   2AE2 08                11669 	.db #0x08
   2AE3 04                11670 	.db #0x04
   2AE4 FB                11671 	.db #0xFB
   2AE5 80                11672 	.db #0x80
   2AE6 FF                11673 	.db #0xFF
   2AE7 F6                11674 	.db #0xF6
   2AE8 F9                11675 	.db #0xF9
   2AE9 F8                11676 	.db #0xF8
   2AEA FF                11677 	.db #0xFF
   2AEB FF                11678 	.db #0xFF
   2AEC FF                11679 	.db #0xFF
   2AED 03                11680 	.db #0x03
   2AEE FF                11681 	.db #0xFF
   2AEF 0F                11682 	.db #0x0F
   2AF0 FF                11683 	.db #0xFF
   2AF1 9F                11684 	.db #0x9F
   2AF2 7F                11685 	.db #0x7F
   2AF3 1F                11686 	.db #0x1F
   2AF4 FF                11687 	.db #0xFF
   2AF5 5F                11688 	.db #0x5F
   2AF6 BF                11689 	.db #0xBF
   2AF7 BF                11690 	.db #0xBF
   2AF8 7F                11691 	.db #0x7F
   2AF9 7F                11692 	.db #0x7F
   2AFA FF                11693 	.db #0xFF
   2AFB FE                11694 	.db #0xFE
   2AFC FF                11695 	.db #0xFF
   2AFD 80                11696 	.db #0x80
   2AFE C0                11697 	.db #0xC0
   2AFF AF                11698 	.db #0xAF
   2B00 C0                11699 	.db #0xC0
   2B01 A0                11700 	.db #0xA0
   2B02 C0                11701 	.db #0xC0
   2B03 A0                11702 	.db #0xA0
   2B04 C0                11703 	.db #0xC0
   2B05 20                11704 	.db #0x20
   2B06 C0                11705 	.db #0xC0
   2B07 20                11706 	.db #0x20
   2B08 C0                11707 	.db #0xC0
   2B09 20                11708 	.db #0x20
   2B0A C0                11709 	.db #0xC0
   2B0B 20                11710 	.db #0x20
   2B0C C0                11711 	.db #0xC0
   2B0D 00                11712 	.db #0x00
   2B0E 00                11713 	.db #0x00
   2B0F E0                11714 	.db #0xE0
   2B10 00                11715 	.db #0x00
   2B11 84                11716 	.db #0x84
   2B12 78                11717 	.db #0x78
   2B13 41                11718 	.db #0x41
   2B14 3E                11719 	.db #0x3E
   2B15 40                11720 	.db #0x40
   2B16 3F                11721 	.db #0x3F
   2B17 40                11722 	.db #0x40
   2B18 3F                11723 	.db #0x3F
   2B19 00                11724 	.db #0x00
   2B1A 7F                11725 	.db #0x7F
   2B1B 60                11726 	.db #0x60
   2B1C 1F                11727 	.db #0x1F
   2B1D 00                11728 	.db #0x00
   2B1E 00                11729 	.db #0x00
   2B1F 00                11730 	.db #0x00
   2B20 00                11731 	.db #0x00
   2B21 00                11732 	.db #0x00
   2B22 00                11733 	.db #0x00
   2B23 00                11734 	.db #0x00
   2B24 00                11735 	.db #0x00
   2B25 20                11736 	.db #0x20
   2B26 C0                11737 	.db #0xC0
   2B27 04                11738 	.db #0x04
   2B28 F8                11739 	.db #0xF8
   2B29 00                11740 	.db #0x00
   2B2A FF                11741 	.db #0xFF
   2B2B 01                11742 	.db #0x01
   2B2C FF                11743 	.db #0xFF
   2B2D 00                11744 	.db #0x00
   2B2E 00                11745 	.db #0x00
   2B2F 00                11746 	.db #0x00
   2B30 00                11747 	.db #0x00
   2B31 00                11748 	.db #0x00
   2B32 00                11749 	.db #0x00
   2B33 00                11750 	.db #0x00
   2B34 00                11751 	.db #0x00
   2B35 00                11752 	.db #0x00
   2B36 00                11753 	.db #0x00
   2B37 00                11754 	.db #0x00
   2B38 00                11755 	.db #0x00
   2B39 FC                11756 	.db #0xFC
   2B3A 00                11757 	.db #0x00
   2B3B FF                11758 	.db #0xFF
   2B3C FF                11759 	.db #0xFF
   2B3D 00                11760 	.db #0x00
   2B3E 00                11761 	.db #0x00
   2B3F 00                11762 	.db #0x00
   2B40 00                11763 	.db #0x00
   2B41 00                11764 	.db #0x00
   2B42 00                11765 	.db #0x00
   2B43 00                11766 	.db #0x00
   2B44 00                11767 	.db #0x00
   2B45 00                11768 	.db #0x00
   2B46 00                11769 	.db #0x00
   2B47 00                11770 	.db #0x00
   2B48 00                11771 	.db #0x00
   2B49 00                11772 	.db #0x00
   2B4A 00                11773 	.db #0x00
   2B4B 00                11774 	.db #0x00
   2B4C F0                11775 	.db #0xF0
   2B4D 00                11776 	.db #0x00
   2B4E 00                11777 	.db #0x00
   2B4F 00                11778 	.db #0x00
   2B50 00                11779 	.db #0x00
   2B51 00                11780 	.db #0x00
   2B52 00                11781 	.db #0x00
   2B53 00                11782 	.db #0x00
   2B54 00                11783 	.db #0x00
   2B55 01                11784 	.db #0x01
   2B56 00                11785 	.db #0x00
   2B57 04                11786 	.db #0x04
   2B58 03                11787 	.db #0x03
   2B59 08                11788 	.db #0x08
   2B5A 07                11789 	.db #0x07
   2B5B 10                11790 	.db #0x10
   2B5C 0F                11791 	.db #0x0F
   2B5D 00                11792 	.db #0x00
   2B5E 00                11793 	.db #0x00
   2B5F 03                11794 	.db #0x03
   2B60 00                11795 	.db #0x00
   2B61 31                11796 	.db #0x31
   2B62 0F                11797 	.db #0x0F
   2B63 C0                11798 	.db #0xC0
   2B64 3F                11799 	.db #0x3F
   2B65 00                11800 	.db #0x00
   2B66 FF                11801 	.db #0xFF
   2B67 00                11802 	.db #0x00
   2B68 FF                11803 	.db #0xFF
   2B69 00                11804 	.db #0x00
   2B6A FF                11805 	.db #0xFF
   2B6B 04                11806 	.db #0x04
   2B6C FF                11807 	.db #0xFF
   2B6D 4C                11808 	.db #0x4C
   2B6E 3F                11809 	.db #0x3F
   2B6F 7C                11810 	.db #0x7C
   2B70 FF                11811 	.db #0xFF
   2B71 FC                11812 	.db #0xFC
   2B72 FF                11813 	.db #0xFF
   2B73 FF                11814 	.db #0xFF
   2B74 FF                11815 	.db #0xFF
   2B75 9B                11816 	.db #0x9B
   2B76 FF                11817 	.db #0xFF
   2B77 33                11818 	.db #0x33
   2B78 FF                11819 	.db #0xFF
   2B79 23                11820 	.db #0x23
   2B7A FF                11821 	.db #0xFF
   2B7B 02                11822 	.db #0x02
   2B7C FF                11823 	.db #0xFF
   2B7D 7F                11824 	.db #0x7F
   2B7E FF                11825 	.db #0xFF
   2B7F E3                11826 	.db #0xE3
   2B80 FF                11827 	.db #0xFF
   2B81 CB                11828 	.db #0xCB
   2B82 F7                11829 	.db #0xF7
   2B83 F9                11830 	.db #0xF9
   2B84 C7                11831 	.db #0xC7
   2B85 B8                11832 	.db #0xB8
   2B86 C7                11833 	.db #0xC7
   2B87 3E                11834 	.db #0x3E
   2B88 C1                11835 	.db #0xC1
   2B89 3E                11836 	.db #0x3E
   2B8A C1                11837 	.db #0xC1
   2B8B FF                11838 	.db #0xFF
   2B8C 00                11839 	.db #0x00
   2B8D FF                11840 	.db #0xFF
   2B8E FF                11841 	.db #0xFF
   2B8F FF                11842 	.db #0xFF
   2B90 FF                11843 	.db #0xFF
   2B91 FF                11844 	.db #0xFF
   2B92 FF                11845 	.db #0xFF
   2B93 FF                11846 	.db #0xFF
   2B94 FF                11847 	.db #0xFF
   2B95 FF                11848 	.db #0xFF
   2B96 FF                11849 	.db #0xFF
   2B97 7F                11850 	.db #0x7F
   2B98 FF                11851 	.db #0xFF
   2B99 3F                11852 	.db #0x3F
   2B9A FF                11853 	.db #0xFF
   2B9B F8                11854 	.db #0xF8
   2B9C 07                11855 	.db #0x07
   2B9D 3F                11856 	.db #0x3F
   2B9E FF                11857 	.db #0xFF
   2B9F 8F                11858 	.db #0x8F
   2BA0 FF                11859 	.db #0xFF
   2BA1 FF                11860 	.db #0xFF
   2BA2 FF                11861 	.db #0xFF
   2BA3 FF                11862 	.db #0xFF
   2BA4 FF                11863 	.db #0xFF
   2BA5 FF                11864 	.db #0xFF
   2BA6 FF                11865 	.db #0xFF
   2BA7 FF                11866 	.db #0xFF
   2BA8 FF                11867 	.db #0xFF
   2BA9 FF                11868 	.db #0xFF
   2BAA FF                11869 	.db #0xFF
   2BAB 07                11870 	.db #0x07
   2BAC FF                11871 	.db #0xFF
   2BAD FE                11872 	.db #0xFE
   2BAE FF                11873 	.db #0xFF
   2BAF FC                11874 	.db #0xFC
   2BB0 FF                11875 	.db #0xFF
   2BB1 FC                11876 	.db #0xFC
   2BB2 FF                11877 	.db #0xFF
   2BB3 FD                11878 	.db #0xFD
   2BB4 FE                11879 	.db #0xFE
   2BB5 F9                11880 	.db #0xF9
   2BB6 FE                11881 	.db #0xFE
   2BB7 F7                11882 	.db #0xF7
   2BB8 F8                11883 	.db #0xF8
   2BB9 E6                11884 	.db #0xE6
   2BBA F8                11885 	.db #0xF8
   2BBB CE                11886 	.db #0xCE
   2BBC F0                11887 	.db #0xF0
   2BBD 40                11888 	.db #0x40
   2BBE 80                11889 	.db #0x80
   2BBF 80                11890 	.db #0x80
   2BC0 00                11891 	.db #0x00
   2BC1 81                11892 	.db #0x81
   2BC2 00                11893 	.db #0x00
   2BC3 02                11894 	.db #0x02
   2BC4 01                11895 	.db #0x01
   2BC5 01                11896 	.db #0x01
   2BC6 02                11897 	.db #0x02
   2BC7 06                11898 	.db #0x06
   2BC8 01                11899 	.db #0x01
   2BC9 09                11900 	.db #0x09
   2BCA 06                11901 	.db #0x06
   2BCB 03                11902 	.db #0x03
   2BCC 0C                11903 	.db #0x0C
   2BCD C0                11904 	.db #0xC0
   2BCE 3F                11905 	.db #0x3F
   2BCF 40                11906 	.db #0x40
   2BD0 BF                11907 	.db #0xBF
   2BD1 C0                11908 	.db #0xC0
   2BD2 3F                11909 	.db #0x3F
   2BD3 80                11910 	.db #0x80
   2BD4 7F                11911 	.db #0x7F
   2BD5 20                11912 	.db #0x20
   2BD6 DF                11913 	.db #0xDF
   2BD7 A0                11914 	.db #0xA0
   2BD8 5F                11915 	.db #0x5F
   2BD9 F8                11916 	.db #0xF8
   2BDA 07                11917 	.db #0x07
   2BDB FE                11918 	.db #0xFE
   2BDC 01                11919 	.db #0x01
   2BDD 07                11920 	.db #0x07
   2BDE FF                11921 	.db #0xFF
   2BDF 0F                11922 	.db #0x0F
   2BE0 FF                11923 	.db #0xFF
   2BE1 1F                11924 	.db #0x1F
   2BE2 FF                11925 	.db #0xFF
   2BE3 2F                11926 	.db #0x2F
   2BE4 FF                11927 	.db #0xFF
   2BE5 1F                11928 	.db #0x1F
   2BE6 FF                11929 	.db #0xFF
   2BE7 1F                11930 	.db #0x1F
   2BE8 FF                11931 	.db #0xFF
   2BE9 36                11932 	.db #0x36
   2BEA FF                11933 	.db #0xFF
   2BEB 0A                11934 	.db #0x0A
   2BEC FF                11935 	.db #0xFF
   2BED FF                11936 	.db #0xFF
   2BEE FF                11937 	.db #0xFF
   2BEF FF                11938 	.db #0xFF
   2BF0 FF                11939 	.db #0xFF
   2BF1 FE                11940 	.db #0xFE
   2BF2 FF                11941 	.db #0xFF
   2BF3 74                11942 	.db #0x74
   2BF4 FF                11943 	.db #0xFF
   2BF5 F8                11944 	.db #0xF8
   2BF6 FF                11945 	.db #0xFF
   2BF7 F0                11946 	.db #0xF0
   2BF8 FF                11947 	.db #0xFF
   2BF9 10                11948 	.db #0x10
   2BFA FF                11949 	.db #0xFF
   2BFB 00                11950 	.db #0x00
   2BFC FF                11951 	.db #0xFF
   2BFD F0                11952 	.db #0xF0
   2BFE FF                11953 	.db #0xFF
   2BFF 80                11954 	.db #0x80
   2C00 FF                11955 	.db #0xFF
   2C01 00                11956 	.db #0x00
   2C02 FF                11957 	.db #0xFF
   2C03 00                11958 	.db #0x00
   2C04 FF                11959 	.db #0xFF
   2C05 00                11960 	.db #0x00
   2C06 FF                11961 	.db #0xFF
   2C07 00                11962 	.db #0x00
   2C08 FF                11963 	.db #0xFF
   2C09 00                11964 	.db #0x00
   2C0A FF                11965 	.db #0xFF
   2C0B 00                11966 	.db #0x00
   2C0C FF                11967 	.db #0xFF
   2C0D 80                11968 	.db #0x80
   2C0E 00                11969 	.db #0x00
   2C0F 30                11970 	.db #0x30
   2C10 C0                11971 	.db #0xC0
   2C11 08                11972 	.db #0x08
   2C12 F0                11973 	.db #0xF0
   2C13 00                11974 	.db #0x00
   2C14 FE                11975 	.db #0xFE
   2C15 00                11976 	.db #0x00
   2C16 FF                11977 	.db #0xFF
   2C17 00                11978 	.db #0x00
   2C18 FF                11979 	.db #0xFF
   2C19 00                11980 	.db #0x00
   2C1A FF                11981 	.db #0xFF
   2C1B 00                11982 	.db #0x00
   2C1C FF                11983 	.db #0xFF
   2C1D 00                11984 	.db #0x00
   2C1E 00                11985 	.db #0x00
   2C1F 00                11986 	.db #0x00
   2C20 00                11987 	.db #0x00
   2C21 00                11988 	.db #0x00
   2C22 00                11989 	.db #0x00
   2C23 00                11990 	.db #0x00
   2C24 00                11991 	.db #0x00
   2C25 80                11992 	.db #0x80
   2C26 00                11993 	.db #0x00
   2C27 00                11994 	.db #0x00
   2C28 E0                11995 	.db #0xE0
   2C29 00                11996 	.db #0x00
   2C2A F0                11997 	.db #0xF0
   2C2B 04                11998 	.db #0x04
   2C2C F8                11999 	.db #0xF8
   2C2D 00                12000 	.db #0x00
   2C2E 00                12001 	.db #0x00
   2C2F 00                12002 	.db #0x00
   2C30 00                12003 	.db #0x00
   2C31 00                12004 	.db #0x00
   2C32 00                12005 	.db #0x00
   2C33 01                12006 	.db #0x01
   2C34 00                12007 	.db #0x00
   2C35 00                12008 	.db #0x00
   2C36 01                12009 	.db #0x01
   2C37 03                12010 	.db #0x03
   2C38 00                12011 	.db #0x00
   2C39 05                12012 	.db #0x05
   2C3A 02                12013 	.db #0x02
   2C3B 06                12014 	.db #0x06
   2C3C 01                12015 	.db #0x01
   2C3D 20                12016 	.db #0x20
   2C3E 1F                12017 	.db #0x1F
   2C3F 40                12018 	.db #0x40
   2C40 3F                12019 	.db #0x3F
   2C41 80                12020 	.db #0x80
   2C42 7F                12021 	.db #0x7F
   2C43 00                12022 	.db #0x00
   2C44 FF                12023 	.db #0xFF
   2C45 00                12024 	.db #0x00
   2C46 FF                12025 	.db #0xFF
   2C47 00                12026 	.db #0x00
   2C48 FF                12027 	.db #0xFF
   2C49 00                12028 	.db #0x00
   2C4A FF                12029 	.db #0xFF
   2C4B 00                12030 	.db #0x00
   2C4C FF                12031 	.db #0xFF
   2C4D 0F                12032 	.db #0x0F
   2C4E FF                12033 	.db #0xFF
   2C4F 0F                12034 	.db #0x0F
   2C50 FF                12035 	.db #0xFF
   2C51 0C                12036 	.db #0x0C
   2C52 FF                12037 	.db #0xFF
   2C53 04                12038 	.db #0x04
   2C54 FF                12039 	.db #0xFF
   2C55 06                12040 	.db #0x06
   2C56 FF                12041 	.db #0xFF
   2C57 04                12042 	.db #0x04
   2C58 FF                12043 	.db #0xFF
   2C59 0C                12044 	.db #0x0C
   2C5A FF                12045 	.db #0xFF
   2C5B 0C                12046 	.db #0x0C
   2C5C FF                12047 	.db #0xFF
   2C5D 86                12048 	.db #0x86
   2C5E FF                12049 	.db #0xFF
   2C5F 07                12050 	.db #0x07
   2C60 FE                12051 	.db #0xFE
   2C61 05                12052 	.db #0x05
   2C62 FE                12053 	.db #0xFE
   2C63 05                12054 	.db #0x05
   2C64 FE                12055 	.db #0xFE
   2C65 14                12056 	.db #0x14
   2C66 FF                12057 	.db #0xFF
   2C67 2A                12058 	.db #0x2A
   2C68 FD                12059 	.db #0xFD
   2C69 09                12060 	.db #0x09
   2C6A FE                12061 	.db #0xFE
   2C6B 6A                12062 	.db #0x6A
   2C6C FC                12063 	.db #0xFC
   2C6D 7F                12064 	.db #0x7F
   2C6E 80                12065 	.db #0x80
   2C6F 7F                12066 	.db #0x7F
   2C70 80                12067 	.db #0x80
   2C71 F8                12068 	.db #0xF8
   2C72 00                12069 	.db #0x00
   2C73 F0                12070 	.db #0xF0
   2C74 00                12071 	.db #0x00
   2C75 20                12072 	.db #0x20
   2C76 C0                12073 	.db #0xC0
   2C77 C0                12074 	.db #0xC0
   2C78 00                12075 	.db #0x00
   2C79 00                12076 	.db #0x00
   2C7A 00                12077 	.db #0x00
   2C7B 00                12078 	.db #0x00
   2C7C 00                12079 	.db #0x00
   2C7D 00                12080 	.db #0x00
   2C7E 00                12081 	.db #0x00
   2C7F 80                12082 	.db #0x80
   2C80 00                12083 	.db #0x00
   2C81 00                12084 	.db #0x00
   2C82 00                12085 	.db #0x00
   2C83 00                12086 	.db #0x00
   2C84 00                12087 	.db #0x00
   2C85 00                12088 	.db #0x00
   2C86 00                12089 	.db #0x00
   2C87 00                12090 	.db #0x00
   2C88 00                12091 	.db #0x00
   2C89 00                12092 	.db #0x00
   2C8A 00                12093 	.db #0x00
   2C8B 00                12094 	.db #0x00
   2C8C 00                12095 	.db #0x00
   2C8D 03                12096 	.db #0x03
   2C8E 00                12097 	.db #0x00
   2C8F 00                12098 	.db #0x00
   2C90 00                12099 	.db #0x00
   2C91 00                12100 	.db #0x00
   2C92 00                12101 	.db #0x00
   2C93 00                12102 	.db #0x00
   2C94 00                12103 	.db #0x00
   2C95 00                12104 	.db #0x00
   2C96 00                12105 	.db #0x00
   2C97 01                12106 	.db #0x01
   2C98 00                12107 	.db #0x00
   2C99 00                12108 	.db #0x00
   2C9A 00                12109 	.db #0x00
   2C9B 00                12110 	.db #0x00
   2C9C 00                12111 	.db #0x00
   2C9D CF                12112 	.db #0xCF
   2C9E 3F                12113 	.db #0x3F
   2C9F 08                12114 	.db #0x08
   2CA0 07                12115 	.db #0x07
   2CA1 07                12116 	.db #0x07
   2CA2 00                12117 	.db #0x00
   2CA3 02                12118 	.db #0x02
   2CA4 00                12119 	.db #0x00
   2CA5 01                12120 	.db #0x01
   2CA6 00                12121 	.db #0x00
   2CA7 E0                12122 	.db #0xE0
   2CA8 00                12123 	.db #0x00
   2CA9 70                12124 	.db #0x70
   2CAA 00                12125 	.db #0x00
   2CAB 18                12126 	.db #0x18
   2CAC 00                12127 	.db #0x00
   2CAD 18                12128 	.db #0x18
   2CAE E0                12129 	.db #0xE0
   2CAF 20                12130 	.db #0x20
   2CB0 C0                12131 	.db #0xC0
   2CB1 80                12132 	.db #0x80
   2CB2 00                12133 	.db #0x00
   2CB3 00                12134 	.db #0x00
   2CB4 00                12135 	.db #0x00
   2CB5 01                12136 	.db #0x01
   2CB6 00                12137 	.db #0x00
   2CB7 82                12138 	.db #0x82
   2CB8 01                12139 	.db #0x01
   2CB9 77                12140 	.db #0x77
   2CBA 00                12141 	.db #0x00
   2CBB 7F                12142 	.db #0x7F
   2CBC 00                12143 	.db #0x00
   2CBD 17                12144 	.db #0x17
   2CBE 08                12145 	.db #0x08
   2CBF 2F                12146 	.db #0x2F
   2CC0 10                12147 	.db #0x10
   2CC1 5F                12148 	.db #0x5F
   2CC2 20                12149 	.db #0x20
   2CC3 BF                12150 	.db #0xBF
   2CC4 40                12151 	.db #0x40
   2CC5 7F                12152 	.db #0x7F
   2CC6 80                12153 	.db #0x80
   2CC7 FF                12154 	.db #0xFF
   2CC8 00                12155 	.db #0x00
   2CC9 FF                12156 	.db #0xFF
   2CCA 00                12157 	.db #0x00
   2CCB FF                12158 	.db #0xFF
   2CCC 00                12159 	.db #0x00
   2CCD FE                12160 	.db #0xFE
   2CCE 01                12161 	.db #0x01
   2CCF 7E                12162 	.db #0x7E
   2CD0 81                12163 	.db #0x81
   2CD1 7C                12164 	.db #0x7C
   2CD2 83                12165 	.db #0x83
   2CD3 7C                12166 	.db #0x7C
   2CD4 83                12167 	.db #0x83
   2CD5 7C                12168 	.db #0x7C
   2CD6 83                12169 	.db #0x83
   2CD7 FC                12170 	.db #0xFC
   2CD8 03                12171 	.db #0x03
   2CD9 F8                12172 	.db #0xF8
   2CDA 07                12173 	.db #0x07
   2CDB F4                12174 	.db #0xF4
   2CDC 0B                12175 	.db #0x0B
   2CDD 00                12176 	.db #0x00
   2CDE FF                12177 	.db #0xFF
   2CDF 00                12178 	.db #0x00
   2CE0 FF                12179 	.db #0xFF
   2CE1 11                12180 	.db #0x11
   2CE2 FF                12181 	.db #0xFF
   2CE3 13                12182 	.db #0x13
   2CE4 FF                12183 	.db #0xFF
   2CE5 33                12184 	.db #0x33
   2CE6 FF                12185 	.db #0xFF
   2CE7 3D                12186 	.db #0x3D
   2CE8 FF                12187 	.db #0xFF
   2CE9 7C                12188 	.db #0x7C
   2CEA FF                12189 	.db #0xFF
   2CEB 78                12190 	.db #0x78
   2CEC FF                12191 	.db #0xFF
   2CED 00                12192 	.db #0x00
   2CEE FF                12193 	.db #0xFF
   2CEF 00                12194 	.db #0x00
   2CF0 FF                12195 	.db #0xFF
   2CF1 00                12196 	.db #0x00
   2CF2 FF                12197 	.db #0xFF
   2CF3 80                12198 	.db #0x80
   2CF4 FF                12199 	.db #0xFF
   2CF5 C0                12200 	.db #0xC0
   2CF6 FF                12201 	.db #0xFF
   2CF7 C0                12202 	.db #0xC0
   2CF8 FF                12203 	.db #0xFF
   2CF9 CC                12204 	.db #0xCC
   2CFA FF                12205 	.db #0xFF
   2CFB 77                12206 	.db #0x77
   2CFC FF                12207 	.db #0xFF
   2CFD 02                12208 	.db #0x02
   2CFE FC                12209 	.db #0xFC
   2CFF 00                12210 	.db #0x00
   2D00 FF                12211 	.db #0xFF
   2D01 00                12212 	.db #0x00
   2D02 FF                12213 	.db #0xFF
   2D03 00                12214 	.db #0x00
   2D04 FF                12215 	.db #0xFF
   2D05 00                12216 	.db #0x00
   2D06 FF                12217 	.db #0xFF
   2D07 00                12218 	.db #0x00
   2D08 FF                12219 	.db #0xFF
   2D09 00                12220 	.db #0x00
   2D0A FF                12221 	.db #0xFF
   2D0B 00                12222 	.db #0x00
   2D0C FF                12223 	.db #0xFF
   2D0D 00                12224 	.db #0x00
   2D0E 00                12225 	.db #0x00
   2D0F 00                12226 	.db #0x00
   2D10 00                12227 	.db #0x00
   2D11 40                12228 	.db #0x40
   2D12 80                12229 	.db #0x80
   2D13 30                12230 	.db #0x30
   2D14 C0                12231 	.db #0xC0
   2D15 08                12232 	.db #0x08
   2D16 F0                12233 	.db #0xF0
   2D17 04                12234 	.db #0x04
   2D18 F8                12235 	.db #0xF8
   2D19 02                12236 	.db #0x02
   2D1A FC                12237 	.db #0xFC
   2D1B 01                12238 	.db #0x01
   2D1C FE                12239 	.db #0xFE
   2D1D 00                12240 	.db #0x00
   2D1E 00                12241 	.db #0x00
   2D1F 00                12242 	.db #0x00
   2D20 00                12243 	.db #0x00
   2D21 00                12244 	.db #0x00
   2D22 00                12245 	.db #0x00
   2D23 00                12246 	.db #0x00
   2D24 00                12247 	.db #0x00
   2D25 00                12248 	.db #0x00
   2D26 00                12249 	.db #0x00
   2D27 00                12250 	.db #0x00
   2D28 00                12251 	.db #0x00
   2D29 00                12252 	.db #0x00
   2D2A 00                12253 	.db #0x00
   2D2B 03                12254 	.db #0x03
   2D2C 00                12255 	.db #0x00
   2D2D 00                12256 	.db #0x00
   2D2E 00                12257 	.db #0x00
   2D2F 00                12258 	.db #0x00
   2D30 00                12259 	.db #0x00
   2D31 00                12260 	.db #0x00
   2D32 00                12261 	.db #0x00
   2D33 00                12262 	.db #0x00
   2D34 00                12263 	.db #0x00
   2D35 00                12264 	.db #0x00
   2D36 00                12265 	.db #0x00
   2D37 00                12266 	.db #0x00
   2D38 00                12267 	.db #0x00
   2D39 00                12268 	.db #0x00
   2D3A 00                12269 	.db #0x00
   2D3B FF                12270 	.db #0xFF
   2D3C 00                12271 	.db #0x00
   2D3D 00                12272 	.db #0x00
   2D3E 00                12273 	.db #0x00
   2D3F 00                12274 	.db #0x00
   2D40 00                12275 	.db #0x00
   2D41 00                12276 	.db #0x00
   2D42 00                12277 	.db #0x00
   2D43 00                12278 	.db #0x00
   2D44 00                12279 	.db #0x00
   2D45 00                12280 	.db #0x00
   2D46 00                12281 	.db #0x00
   2D47 00                12282 	.db #0x00
   2D48 00                12283 	.db #0x00
   2D49 00                12284 	.db #0x00
   2D4A 00                12285 	.db #0x00
   2D4B 79                12286 	.db #0x79
   2D4C 86                12287 	.db #0x86
   2D4D 0E                12288 	.db #0x0E
   2D4E 01                12289 	.db #0x01
   2D4F 0F                12290 	.db #0x0F
   2D50 00                12291 	.db #0x00
   2D51 1F                12292 	.db #0x1F
   2D52 00                12293 	.db #0x00
   2D53 2F                12294 	.db #0x2F
   2D54 10                12295 	.db #0x10
   2D55 3F                12296 	.db #0x3F
   2D56 00                12297 	.db #0x00
   2D57 7F                12298 	.db #0x7F
   2D58 00                12299 	.db #0x00
   2D59 FF                12300 	.db #0xFF
   2D5A 00                12301 	.db #0x00
   2D5B FF                12302 	.db #0xFF
   2D5C 00                12303 	.db #0x00
   2D5D 00                12304 	.db #0x00
   2D5E FF                12305 	.db #0xFF
   2D5F 00                12306 	.db #0x00
   2D60 FF                12307 	.db #0xFF
   2D61 C0                12308 	.db #0xC0
   2D62 3F                12309 	.db #0x3F
   2D63 C0                12310 	.db #0xC0
   2D64 3F                12311 	.db #0x3F
   2D65 C0                12312 	.db #0xC0
   2D66 3F                12313 	.db #0x3F
   2D67 F2                12314 	.db #0xF2
   2D68 0D                12315 	.db #0x0D
   2D69 F9                12316 	.db #0xF9
   2D6A 06                12317 	.db #0x06
   2D6B FE                12318 	.db #0xFE
   2D6C 01                12319 	.db #0x01
   2D6D 08                12320 	.db #0x08
   2D6E FF                12321 	.db #0xFF
   2D6F 00                12322 	.db #0x00
   2D70 FF                12323 	.db #0xFF
   2D71 01                12324 	.db #0x01
   2D72 FF                12325 	.db #0xFF
   2D73 03                12326 	.db #0x03
   2D74 FF                12327 	.db #0xFF
   2D75 03                12328 	.db #0x03
   2D76 FF                12329 	.db #0xFF
   2D77 06                12330 	.db #0x06
   2D78 FF                12331 	.db #0xFF
   2D79 04                12332 	.db #0x04
   2D7A FF                12333 	.db #0xFF
   2D7B 83                12334 	.db #0x83
   2D7C 7F                12335 	.db #0x7F
   2D7D 84                12336 	.db #0x84
   2D7E F8                12337 	.db #0xF8
   2D7F 14                12338 	.db #0x14
   2D80 F8                12339 	.db #0xF8
   2D81 FC                12340 	.db #0xFC
   2D82 F0                12341 	.db #0xF0
   2D83 EC                12342 	.db #0xEC
   2D84 F0                12343 	.db #0xF0
   2D85 58                12344 	.db #0x58
   2D86 E0                12345 	.db #0xE0
   2D87 38                12346 	.db #0x38
   2D88 C0                12347 	.db #0xC0
   2D89 B0                12348 	.db #0xB0
   2D8A C0                12349 	.db #0xC0
   2D8B 70                12350 	.db #0x70
   2D8C 80                12351 	.db #0x80
   2D8D 00                12352 	.db #0x00
   2D8E 00                12353 	.db #0x00
   2D8F 00                12354 	.db #0x00
   2D90 00                12355 	.db #0x00
   2D91 00                12356 	.db #0x00
   2D92 00                12357 	.db #0x00
   2D93 00                12358 	.db #0x00
   2D94 00                12359 	.db #0x00
   2D95 70                12360 	.db #0x70
   2D96 00                12361 	.db #0x00
   2D97 38                12362 	.db #0x38
   2D98 00                12363 	.db #0x00
   2D99 12                12364 	.db #0x12
   2D9A 0C                12365 	.db #0x0C
   2D9B 07                12366 	.db #0x07
   2D9C 03                12367 	.db #0x03
   2D9D 00                12368 	.db #0x00
   2D9E 00                12369 	.db #0x00
   2D9F 00                12370 	.db #0x00
   2DA0 00                12371 	.db #0x00
   2DA1 06                12372 	.db #0x06
   2DA2 00                12373 	.db #0x00
   2DA3 07                12374 	.db #0x07
   2DA4 00                12375 	.db #0x00
   2DA5 07                12376 	.db #0x07
   2DA6 00                12377 	.db #0x00
   2DA7 0F                12378 	.db #0x0F
   2DA8 00                12379 	.db #0x00
   2DA9 7F                12380 	.db #0x7F
   2DAA 00                12381 	.db #0x00
   2DAB 7F                12382 	.db #0x7F
   2DAC 80                12383 	.db #0x80
   2DAD 18                12384 	.db #0x18
   2DAE 00                12385 	.db #0x00
   2DAF 3F                12386 	.db #0x3F
   2DB0 08                12387 	.db #0x08
   2DB1 73                12388 	.db #0x73
   2DB2 0C                12389 	.db #0x0C
   2DB3 75                12390 	.db #0x75
   2DB4 0E                12391 	.db #0x0E
   2DB5 FE                12392 	.db #0xFE
   2DB6 0F                12393 	.db #0x0F
   2DB7 EF                12394 	.db #0xEF
   2DB8 1F                12395 	.db #0x1F
   2DB9 1F                12396 	.db #0x1F
   2DBA FF                12397 	.db #0xFF
   2DBB 7F                12398 	.db #0x7F
   2DBC FF                12399 	.db #0xFF
   2DBD 6C                12400 	.db #0x6C
   2DBE 13                12401 	.db #0x13
   2DBF E0                12402 	.db #0xE0
   2DC0 1F                12403 	.db #0x1F
   2DC1 EF                12404 	.db #0xEF
   2DC2 10                12405 	.db #0x10
   2DC3 F3                12406 	.db #0xF3
   2DC4 0C                12407 	.db #0x0C
   2DC5 ED                12408 	.db #0xED
   2DC6 1E                12409 	.db #0x1E
   2DC7 FC                12410 	.db #0xFC
   2DC8 FF                12411 	.db #0xFF
   2DC9 FC                12412 	.db #0xFC
   2DCA FF                12413 	.db #0xFF
   2DCB FC                12414 	.db #0xFC
   2DCC FF                12415 	.db #0xFF
   2DCD 7F                12416 	.db #0x7F
   2DCE 80                12417 	.db #0x80
   2DCF FF                12418 	.db #0xFF
   2DD0 00                12419 	.db #0x00
   2DD1 FF                12420 	.db #0xFF
   2DD2 00                12421 	.db #0x00
   2DD3 FF                12422 	.db #0xFF
   2DD4 00                12423 	.db #0x00
   2DD5 FF                12424 	.db #0xFF
   2DD6 00                12425 	.db #0x00
   2DD7 3F                12426 	.db #0x3F
   2DD8 C0                12427 	.db #0xC0
   2DD9 3E                12428 	.db #0x3E
   2DDA C1                12429 	.db #0xC1
   2DDB 7D                12430 	.db #0x7D
   2DDC 83                12431 	.db #0x83
   2DDD F4                12432 	.db #0xF4
   2DDE 0B                12433 	.db #0x0B
   2DDF FB                12434 	.db #0xFB
   2DE0 07                12435 	.db #0x07
   2DE1 E4                12436 	.db #0xE4
   2DE2 1F                12437 	.db #0x1F
   2DE3 DF                12438 	.db #0xDF
   2DE4 3F                12439 	.db #0x3F
   2DE5 BF                12440 	.db #0xBF
   2DE6 7F                12441 	.db #0x7F
   2DE7 7F                12442 	.db #0x7F
   2DE8 FF                12443 	.db #0xFF
   2DE9 3F                12444 	.db #0x3F
   2DEA FF                12445 	.db #0xFF
   2DEB 18                12446 	.db #0x18
   2DEC FF                12447 	.db #0xFF
   2DED 7F                12448 	.db #0x7F
   2DEE FF                12449 	.db #0xFF
   2DEF 3F                12450 	.db #0x3F
   2DF0 FF                12451 	.db #0xFF
   2DF1 FF                12452 	.db #0xFF
   2DF2 FF                12453 	.db #0xFF
   2DF3 F9                12454 	.db #0xF9
   2DF4 FF                12455 	.db #0xFF
   2DF5 FF                12456 	.db #0xFF
   2DF6 FF                12457 	.db #0xFF
   2DF7 FF                12458 	.db #0xFF
   2DF8 FF                12459 	.db #0xFF
   2DF9 FF                12460 	.db #0xFF
   2DFA FF                12461 	.db #0xFF
   2DFB FF                12462 	.db #0xFF
   2DFC FF                12463 	.db #0xFF
   2DFD FF                12464 	.db #0xFF
   2DFE FF                12465 	.db #0xFF
   2DFF FF                12466 	.db #0xFF
   2E00 FF                12467 	.db #0xFF
   2E01 0F                12468 	.db #0x0F
   2E02 FF                12469 	.db #0xFF
   2E03 FF                12470 	.db #0xFF
   2E04 FF                12471 	.db #0xFF
   2E05 FF                12472 	.db #0xFF
   2E06 FF                12473 	.db #0xFF
   2E07 FF                12474 	.db #0xFF
   2E08 FF                12475 	.db #0xFF
   2E09 FF                12476 	.db #0xFF
   2E0A FF                12477 	.db #0xFF
   2E0B FF                12478 	.db #0xFF
   2E0C FF                12479 	.db #0xFF
   2E0D 00                12480 	.db #0x00
   2E0E FF                12481 	.db #0xFF
   2E0F 00                12482 	.db #0x00
   2E10 FF                12483 	.db #0xFF
   2E11 00                12484 	.db #0x00
   2E12 FF                12485 	.db #0xFF
   2E13 00                12486 	.db #0x00
   2E14 FF                12487 	.db #0xFF
   2E15 00                12488 	.db #0x00
   2E16 FF                12489 	.db #0xFF
   2E17 00                12490 	.db #0x00
   2E18 FF                12491 	.db #0xFF
   2E19 00                12492 	.db #0x00
   2E1A FF                12493 	.db #0xFF
   2E1B 80                12494 	.db #0x80
   2E1C FF                12495 	.db #0xFF
   2E1D 00                12496 	.db #0x00
   2E1E FF                12497 	.db #0xFF
   2E1F 00                12498 	.db #0x00
   2E20 FF                12499 	.db #0xFF
   2E21 00                12500 	.db #0x00
   2E22 FF                12501 	.db #0xFF
   2E23 00                12502 	.db #0x00
   2E24 FF                12503 	.db #0xFF
   2E25 00                12504 	.db #0x00
   2E26 FF                12505 	.db #0xFF
   2E27 01                12506 	.db #0x01
   2E28 FE                12507 	.db #0xFE
   2E29 06                12508 	.db #0x06
   2E2A F9                12509 	.db #0xF9
   2E2B 00                12510 	.db #0x00
   2E2C FF                12511 	.db #0xFF
   2E2D 08                12512 	.db #0x08
   2E2E F7                12513 	.db #0xF7
   2E2F 38                12514 	.db #0x38
   2E30 C7                12515 	.db #0xC7
   2E31 00                12516 	.db #0x00
   2E32 FF                12517 	.db #0xFF
   2E33 0F                12518 	.db #0x0F
   2E34 F0                12519 	.db #0xF0
   2E35 60                12520 	.db #0x60
   2E36 9F                12521 	.db #0x9F
   2E37 00                12522 	.db #0x00
   2E38 FF                12523 	.db #0xFF
   2E39 00                12524 	.db #0x00
   2E3A FF                12525 	.db #0xFF
   2E3B 00                12526 	.db #0x00
   2E3C FF                12527 	.db #0xFF
   2E3D 00                12528 	.db #0x00
   2E3E FF                12529 	.db #0xFF
   2E3F 93                12530 	.db #0x93
   2E40 6C                12531 	.db #0x6C
   2E41 7F                12532 	.db #0x7F
   2E42 80                12533 	.db #0x80
   2E43 FF                12534 	.db #0xFF
   2E44 00                12535 	.db #0x00
   2E45 07                12536 	.db #0x07
   2E46 F8                12537 	.db #0xF8
   2E47 0F                12538 	.db #0x0F
   2E48 F0                12539 	.db #0xF0
   2E49 37                12540 	.db #0x37
   2E4A C8                12541 	.db #0xC8
   2E4B 0F                12542 	.db #0x0F
   2E4C F0                12543 	.db #0xF0
   2E4D 7C                12544 	.db #0x7C
   2E4E 03                12545 	.db #0x03
   2E4F 00                12546 	.db #0x00
   2E50 FF                12547 	.db #0xFF
   2E51 00                12548 	.db #0x00
   2E52 FF                12549 	.db #0xFF
   2E53 0E                12550 	.db #0x0E
   2E54 FF                12551 	.db #0xFF
   2E55 19                12552 	.db #0x19
   2E56 FF                12553 	.db #0xFF
   2E57 07                12554 	.db #0x07
   2E58 FF                12555 	.db #0xFF
   2E59 06                12556 	.db #0x06
   2E5A FF                12557 	.db #0xFF
   2E5B 42                12558 	.db #0x42
   2E5C FF                12559 	.db #0xFF
   2E5D 00                12560 	.db #0x00
   2E5E FF                12561 	.db #0xFF
   2E5F 00                12562 	.db #0x00
   2E60 FF                12563 	.db #0xFF
   2E61 00                12564 	.db #0x00
   2E62 FF                12565 	.db #0xFF
   2E63 00                12566 	.db #0x00
   2E64 FF                12567 	.db #0xFF
   2E65 28                12568 	.db #0x28
   2E66 FF                12569 	.db #0xFF
   2E67 E6                12570 	.db #0xE6
   2E68 FF                12571 	.db #0xFF
   2E69 07                12572 	.db #0x07
   2E6A FF                12573 	.db #0xFF
   2E6B 08                12574 	.db #0x08
   2E6C FF                12575 	.db #0xFF
   2E6D 00                12576 	.db #0x00
   2E6E FF                12577 	.db #0xFF
   2E6F 00                12578 	.db #0x00
   2E70 FF                12579 	.db #0xFF
   2E71 21                12580 	.db #0x21
   2E72 FE                12581 	.db #0xFE
   2E73 01                12582 	.db #0x01
   2E74 FE                12583 	.db #0xFE
   2E75 02                12584 	.db #0x02
   2E76 FC                12585 	.db #0xFC
   2E77 44                12586 	.db #0x44
   2E78 F8                12587 	.db #0xF8
   2E79 0A                12588 	.db #0x0A
   2E7A F0                12589 	.db #0xF0
   2E7B 0C                12590 	.db #0x0C
   2E7C F0                12591 	.db #0xF0
   2E7D 43                12592 	.db #0x43
   2E7E 80                12593 	.db #0x80
   2E7F 80                12594 	.db #0x80
   2E80 00                12595 	.db #0x00
   2E81 00                12596 	.db #0x00
   2E82 00                12597 	.db #0x00
   2E83 00                12598 	.db #0x00
   2E84 00                12599 	.db #0x00
   2E85 00                12600 	.db #0x00
   2E86 00                12601 	.db #0x00
   2E87 00                12602 	.db #0x00
   2E88 00                12603 	.db #0x00
   2E89 00                12604 	.db #0x00
   2E8A 00                12605 	.db #0x00
   2E8B 00                12606 	.db #0x00
   2E8C 00                12607 	.db #0x00
   2E8D 3F                12608 	.db #0x3F
   2E8E C0                12609 	.db #0xC0
   2E8F 67                12610 	.db #0x67
   2E90 18                12611 	.db #0x18
   2E91 1A                12612 	.db #0x1A
   2E92 05                12613 	.db #0x05
   2E93 04                12614 	.db #0x04
   2E94 03                12615 	.db #0x03
   2E95 01                12616 	.db #0x01
   2E96 06                12617 	.db #0x06
   2E97 0D                12618 	.db #0x0D
   2E98 06                12619 	.db #0x06
   2E99 1B                12620 	.db #0x1B
   2E9A 0C                12621 	.db #0x0C
   2E9B 1B                12622 	.db #0x1B
   2E9C 1C                12623 	.db #0x1C
   2E9D 86                12624 	.db #0x86
   2E9E 7F                12625 	.db #0x7F
   2E9F 3D                12626 	.db #0x3D
   2EA0 DE                12627 	.db #0xDE
   2EA1 5B                12628 	.db #0x5B
   2EA2 BC                12629 	.db #0xBC
   2EA3 BF                12630 	.db #0xBF
   2EA4 78                12631 	.db #0x78
   2EA5 B7                12632 	.db #0xB7
   2EA6 78                12633 	.db #0x78
   2EA7 BF                12634 	.db #0xBF
   2EA8 70                12635 	.db #0x70
   2EA9 BB                12636 	.db #0xBB
   2EAA 70                12637 	.db #0x70
   2EAB B3                12638 	.db #0xB3
   2EAC 78                12639 	.db #0x78
   2EAD F0                12640 	.db #0xF0
   2EAE 00                12641 	.db #0x00
   2EAF F8                12642 	.db #0xF8
   2EB0 00                12643 	.db #0x00
   2EB1 FC                12644 	.db #0xFC
   2EB2 00                12645 	.db #0x00
   2EB3 FE                12646 	.db #0xFE
   2EB4 00                12647 	.db #0x00
   2EB5 EF                12648 	.db #0xEF
   2EB6 00                12649 	.db #0x00
   2EB7 F3                12650 	.db #0xF3
   2EB8 00                12651 	.db #0x00
   2EB9 CF                12652 	.db #0xCF
   2EBA 00                12653 	.db #0x00
   2EBB EF                12654 	.db #0xEF
   2EBC 00                12655 	.db #0x00
   2EBD 00                12656 	.db #0x00
   2EBE 00                12657 	.db #0x00
   2EBF 00                12658 	.db #0x00
   2EC0 00                12659 	.db #0x00
   2EC1 78                12660 	.db #0x78
   2EC2 00                12661 	.db #0x00
   2EC3 7E                12662 	.db #0x7E
   2EC4 00                12663 	.db #0x00
   2EC5 F6                12664 	.db #0xF6
   2EC6 0F                12665 	.db #0x0F
   2EC7 FF                12666 	.db #0xFF
   2EC8 07                12667 	.db #0x07
   2EC9 EF                12668 	.db #0xEF
   2ECA 1F                12669 	.db #0x1F
   2ECB CF                12670 	.db #0xCF
   2ECC 3F                12671 	.db #0x3F
   2ECD 00                12672 	.db #0x00
   2ECE 01                12673 	.db #0x01
   2ECF 00                12674 	.db #0x00
   2ED0 00                12675 	.db #0x00
   2ED1 00                12676 	.db #0x00
   2ED2 00                12677 	.db #0x00
   2ED3 0A                12678 	.db #0x0A
   2ED4 00                12679 	.db #0x00
   2ED5 CF                12680 	.db #0xCF
   2ED6 00                12681 	.db #0x00
   2ED7 9C                12682 	.db #0x9C
   2ED8 E0                12683 	.db #0xE0
   2ED9 F7                12684 	.db #0xF7
   2EDA F8                12685 	.db #0xF8
   2EDB FE                12686 	.db #0xFE
   2EDC FF                12687 	.db #0xFF
   2EDD FE                12688 	.db #0xFE
   2EDE C1                12689 	.db #0xC1
   2EDF DC                12690 	.db #0xDC
   2EE0 63                12691 	.db #0x63
   2EE1 40                12692 	.db #0x40
   2EE2 3F                12693 	.db #0x3F
   2EE3 50                12694 	.db #0x50
   2EE4 0F                12695 	.db #0x0F
   2EE5 0E                12696 	.db #0x0E
   2EE6 01                12697 	.db #0x01
   2EE7 1F                12698 	.db #0x1F
   2EE8 03                12699 	.db #0x03
   2EE9 FB                12700 	.db #0xFB
   2EEA 07                12701 	.db #0x07
   2EEB FB                12702 	.db #0xFB
   2EEC 07                12703 	.db #0x07
   2EED 7F                12704 	.db #0x7F
   2EEE FF                12705 	.db #0xFF
   2EEF 7F                12706 	.db #0x7F
   2EF0 FF                12707 	.db #0xFF
   2EF1 3F                12708 	.db #0x3F
   2EF2 FF                12709 	.db #0xFF
   2EF3 3F                12710 	.db #0x3F
   2EF4 FF                12711 	.db #0xFF
   2EF5 7F                12712 	.db #0x7F
   2EF6 FF                12713 	.db #0xFF
   2EF7 FE                12714 	.db #0xFE
   2EF8 FF                12715 	.db #0xFF
   2EF9 FF                12716 	.db #0xFF
   2EFA FF                12717 	.db #0xFF
   2EFB FF                12718 	.db #0xFF
   2EFC FF                12719 	.db #0xFF
   2EFD FD                12720 	.db #0xFD
   2EFE FE                12721 	.db #0xFE
   2EFF DD                12722 	.db #0xDD
   2F00 3E                12723 	.db #0x3E
   2F01 7F                12724 	.db #0x7F
   2F02 9E                12725 	.db #0x9E
   2F03 F9                12726 	.db #0xF9
   2F04 1E                12727 	.db #0x1E
   2F05 3B                12728 	.db #0x3B
   2F06 DC                12729 	.db #0xDC
   2F07 BB                12730 	.db #0xBB
   2F08 5C                12731 	.db #0x5C
   2F09 FE                12732 	.db #0xFE
   2F0A 1D                12733 	.db #0x1D
   2F0B DB                12734 	.db #0xDB
   2F0C 3C                12735 	.db #0x3C
   2F0D F8                12736 	.db #0xF8
   2F0E 07                12737 	.db #0x07
   2F0F F4                12738 	.db #0xF4
   2F10 0F                12739 	.db #0x0F
   2F11 E8                12740 	.db #0xE8
   2F12 1F                12741 	.db #0x1F
   2F13 D4                12742 	.db #0xD4
   2F14 3F                12743 	.db #0x3F
   2F15 D8                12744 	.db #0xD8
   2F16 3F                12745 	.db #0x3F
   2F17 EC                12746 	.db #0xEC
   2F18 1F                12747 	.db #0x1F
   2F19 F7                12748 	.db #0xF7
   2F1A 0F                12749 	.db #0x0F
   2F1B 7F                12750 	.db #0x7F
   2F1C 83                12751 	.db #0x83
   2F1D 0A                12752 	.db #0x0A
   2F1E FD                12753 	.db #0xFD
   2F1F 0C                12754 	.db #0x0C
   2F20 FF                12755 	.db #0xFF
   2F21 0C                12756 	.db #0x0C
   2F22 FF                12757 	.db #0xFF
   2F23 1C                12758 	.db #0x1C
   2F24 FF                12759 	.db #0xFF
   2F25 3C                12760 	.db #0x3C
   2F26 FF                12761 	.db #0xFF
   2F27 7F                12762 	.db #0x7F
   2F28 FC                12763 	.db #0xFC
   2F29 FD                12764 	.db #0xFD
   2F2A FE                12765 	.db #0xFE
   2F2B FD                12766 	.db #0xFD
   2F2C FE                12767 	.db #0xFE
   2F2D 0B                12768 	.db #0x0B
   2F2E FF                12769 	.db #0xFF
   2F2F 03                12770 	.db #0x03
   2F30 FF                12771 	.db #0xFF
   2F31 05                12772 	.db #0x05
   2F32 FF                12773 	.db #0xFF
   2F33 02                12774 	.db #0x02
   2F34 FF                12775 	.db #0xFF
   2F35 00                12776 	.db #0x00
   2F36 FF                12777 	.db #0xFF
   2F37 00                12778 	.db #0x00
   2F38 FF                12779 	.db #0xFF
   2F39 80                12780 	.db #0x80
   2F3A 7F                12781 	.db #0x7F
   2F3B E0                12782 	.db #0xE0
   2F3C 1F                12783 	.db #0x1F
   2F3D FF                12784 	.db #0xFF
   2F3E FF                12785 	.db #0xFF
   2F3F FF                12786 	.db #0xFF
   2F40 FF                12787 	.db #0xFF
   2F41 FF                12788 	.db #0xFF
   2F42 FF                12789 	.db #0xFF
   2F43 FF                12790 	.db #0xFF
   2F44 FF                12791 	.db #0xFF
   2F45 FF                12792 	.db #0xFF
   2F46 FF                12793 	.db #0xFF
   2F47 7F                12794 	.db #0x7F
   2F48 FF                12795 	.db #0xFF
   2F49 7F                12796 	.db #0x7F
   2F4A FF                12797 	.db #0xFF
   2F4B 3F                12798 	.db #0x3F
   2F4C FF                12799 	.db #0xFF
   2F4D 80                12800 	.db #0x80
   2F4E FF                12801 	.db #0xFF
   2F4F 80                12802 	.db #0x80
   2F50 FF                12803 	.db #0xFF
   2F51 C0                12804 	.db #0xC0
   2F52 FF                12805 	.db #0xFF
   2F53 E0                12806 	.db #0xE0
   2F54 FF                12807 	.db #0xFF
   2F55 E0                12808 	.db #0xE0
   2F56 FF                12809 	.db #0xFF
   2F57 F0                12810 	.db #0xF0
   2F58 FF                12811 	.db #0xFF
   2F59 F8                12812 	.db #0xF8
   2F5A FF                12813 	.db #0xFF
   2F5B F8                12814 	.db #0xF8
   2F5C FF                12815 	.db #0xFF
   2F5D 30                12816 	.db #0x30
   2F5E CF                12817 	.db #0xCF
   2F5F 40                12818 	.db #0x40
   2F60 BF                12819 	.db #0xBF
   2F61 00                12820 	.db #0x00
   2F62 FF                12821 	.db #0xFF
   2F63 01                12822 	.db #0x01
   2F64 FE                12823 	.db #0xFE
   2F65 00                12824 	.db #0x00
   2F66 FF                12825 	.db #0xFF
   2F67 00                12826 	.db #0x00
   2F68 FF                12827 	.db #0xFF
   2F69 00                12828 	.db #0x00
   2F6A FF                12829 	.db #0xFF
   2F6B 44                12830 	.db #0x44
   2F6C BB                12831 	.db #0xBB
   2F6D 00                12832 	.db #0x00
   2F6E FF                12833 	.db #0xFF
   2F6F 0C                12834 	.db #0x0C
   2F70 F3                12835 	.db #0xF3
   2F71 20                12836 	.db #0x20
   2F72 DF                12837 	.db #0xDF
   2F73 00                12838 	.db #0x00
   2F74 FF                12839 	.db #0xFF
   2F75 00                12840 	.db #0x00
   2F76 FF                12841 	.db #0xFF
   2F77 00                12842 	.db #0x00
   2F78 FF                12843 	.db #0xFF
   2F79 00                12844 	.db #0x00
   2F7A FF                12845 	.db #0xFF
   2F7B 00                12846 	.db #0x00
   2F7C FF                12847 	.db #0xFF
   2F7D FB                12848 	.db #0xFB
   2F7E 04                12849 	.db #0x04
   2F7F 00                12850 	.db #0x00
   2F80 FF                12851 	.db #0xFF
   2F81 00                12852 	.db #0x00
   2F82 FF                12853 	.db #0xFF
   2F83 00                12854 	.db #0x00
   2F84 FF                12855 	.db #0xFF
   2F85 C0                12856 	.db #0xC0
   2F86 3F                12857 	.db #0x3F
   2F87 04                12858 	.db #0x04
   2F88 FB                12859 	.db #0xFB
   2F89 00                12860 	.db #0x00
   2F8A FF                12861 	.db #0xFF
   2F8B 00                12862 	.db #0x00
   2F8C FF                12863 	.db #0xFF
   2F8D 01                12864 	.db #0x01
   2F8E FF                12865 	.db #0xFF
   2F8F 01                12866 	.db #0x01
   2F90 FF                12867 	.db #0xFF
   2F91 8F                12868 	.db #0x8F
   2F92 FF                12869 	.db #0xFF
   2F93 DA                12870 	.db #0xDA
   2F94 FF                12871 	.db #0xFF
   2F95 B0                12872 	.db #0xB0
   2F96 FF                12873 	.db #0xFF
   2F97 C0                12874 	.db #0xC0
   2F98 FF                12875 	.db #0xFF
   2F99 00                12876 	.db #0x00
   2F9A 00                12877 	.db #0x00
   2F9B 00                12878 	.db #0x00
   2F9C 00                12879 	.db #0x00
   2F9D 88                12880 	.db #0x88
   2F9E FF                12881 	.db #0xFF
   2F9F 88                12882 	.db #0x88
   2FA0 FF                12883 	.db #0xFF
   2FA1 83                12884 	.db #0x83
   2FA2 FF                12885 	.db #0xFF
   2FA3 67                12886 	.db #0x67
   2FA4 FF                12887 	.db #0xFF
   2FA5 3F                12888 	.db #0x3F
   2FA6 FF                12889 	.db #0xFF
   2FA7 99                12890 	.db #0x99
   2FA8 FF                12891 	.db #0xFF
   2FA9 00                12892 	.db #0x00
   2FAA 00                12893 	.db #0x00
   2FAB 00                12894 	.db #0x00
   2FAC 00                12895 	.db #0x00
   2FAD 54                12896 	.db #0x54
   2FAE E0                12897 	.db #0xE0
   2FAF 10                12898 	.db #0x10
   2FB0 E0                12899 	.db #0xE0
   2FB1 B8                12900 	.db #0xB8
   2FB2 C0                12901 	.db #0xC0
   2FB3 F0                12902 	.db #0xF0
   2FB4 80                12903 	.db #0x80
   2FB5 78                12904 	.db #0x78
   2FB6 80                12905 	.db #0x80
   2FB7 F0                12906 	.db #0xF0
   2FB8 00                12907 	.db #0x00
   2FB9 00                12908 	.db #0x00
   2FBA 00                12909 	.db #0x00
   2FBB 00                12910 	.db #0x00
   2FBC 00                12911 	.db #0x00
   2FBD 00                12912 	.db #0x00
   2FBE 00                12913 	.db #0x00
   2FBF 00                12914 	.db #0x00
   2FC0 00                12915 	.db #0x00
   2FC1 00                12916 	.db #0x00
   2FC2 00                12917 	.db #0x00
   2FC3 00                12918 	.db #0x00
   2FC4 00                12919 	.db #0x00
   2FC5 03                12920 	.db #0x03
   2FC6 00                12921 	.db #0x00
   2FC7 07                12922 	.db #0x07
   2FC8 00                12923 	.db #0x00
   2FC9 00                12924 	.db #0x00
   2FCA 00                12925 	.db #0x00
   2FCB 00                12926 	.db #0x00
   2FCC 00                12927 	.db #0x00
   2FCD 1B                12928 	.db #0x1B
   2FCE 3C                12929 	.db #0x3C
   2FCF 3B                12930 	.db #0x3B
   2FD0 3C                12931 	.db #0x3C
   2FD1 7D                12932 	.db #0x7D
   2FD2 3E                12933 	.db #0x3E
   2FD3 BE                12934 	.db #0xBE
   2FD4 7F                12935 	.db #0x7F
   2FD5 BF                12936 	.db #0xBF
   2FD6 7F                12937 	.db #0x7F
   2FD7 FF                12938 	.db #0xFF
   2FD8 3F                12939 	.db #0x3F
   2FD9 00                12940 	.db #0x00
   2FDA 00                12941 	.db #0x00
   2FDB 00                12942 	.db #0x00
   2FDC 00                12943 	.db #0x00
   2FDD 3F                12944 	.db #0x3F
   2FDE F8                12945 	.db #0xF8
   2FDF 9B                12946 	.db #0x9B
   2FE0 7C                12947 	.db #0x7C
   2FE1 0F                12948 	.db #0x0F
   2FE2 FE                12949 	.db #0xFE
   2FE3 0F                12950 	.db #0x0F
   2FE4 FF                12951 	.db #0xFF
   2FE5 03                12952 	.db #0x03
   2FE6 FF                12953 	.db #0xFF
   2FE7 80                12954 	.db #0x80
   2FE8 FF                12955 	.db #0xFF
   2FE9 00                12956 	.db #0x00
   2FEA 00                12957 	.db #0x00
   2FEB 00                12958 	.db #0x00
   2FEC 00                12959 	.db #0x00
   2FED FF                12960 	.db #0xFF
   2FEE 00                12961 	.db #0x00
   2FEF FF                12962 	.db #0xFF
   2FF0 00                12963 	.db #0x00
   2FF1 FC                12964 	.db #0xFC
   2FF2 03                12965 	.db #0x03
   2FF3 00                12966 	.db #0x00
   2FF4 FF                12967 	.db #0xFF
   2FF5 FB                12968 	.db #0xFB
   2FF6 FF                12969 	.db #0xFF
   2FF7 FF                12970 	.db #0xFF
   2FF8 FF                12971 	.db #0xFF
   2FF9 00                12972 	.db #0x00
   2FFA 00                12973 	.db #0x00
   2FFB 00                12974 	.db #0x00
   2FFC 00                12975 	.db #0x00
   2FFD DF                12976 	.db #0xDF
   2FFE 3F                12977 	.db #0x3F
   2FFF BF                12978 	.db #0xBF
   3000 7F                12979 	.db #0x7F
   3001 1F                12980 	.db #0x1F
   3002 FF                12981 	.db #0xFF
   3003 7F                12982 	.db #0x7F
   3004 FF                12983 	.db #0xFF
   3005 FF                12984 	.db #0xFF
   3006 FF                12985 	.db #0xFF
   3007 FF                12986 	.db #0xFF
   3008 FF                12987 	.db #0xFF
   3009 00                12988 	.db #0x00
   300A 00                12989 	.db #0x00
   300B 00                12990 	.db #0x00
   300C 00                12991 	.db #0x00
   300D FF                12992 	.db #0xFF
   300E FF                12993 	.db #0xFF
   300F FF                12994 	.db #0xFF
   3010 FF                12995 	.db #0xFF
   3011 FD                12996 	.db #0xFD
   3012 FF                12997 	.db #0xFF
   3013 FF                12998 	.db #0xFF
   3014 FF                12999 	.db #0xFF
   3015 FF                13000 	.db #0xFF
   3016 FF                13001 	.db #0xFF
   3017 FF                13002 	.db #0xFF
   3018 FF                13003 	.db #0xFF
   3019 00                13004 	.db #0x00
   301A 00                13005 	.db #0x00
   301B 00                13006 	.db #0x00
   301C 00                13007 	.db #0x00
   301D 8F                13008 	.db #0x8F
   301E FF                13009 	.db #0xFF
   301F FF                13010 	.db #0xFF
   3020 FF                13011 	.db #0xFF
   3021 FF                13012 	.db #0xFF
   3022 FF                13013 	.db #0xFF
   3023 FF                13014 	.db #0xFF
   3024 FF                13015 	.db #0xFF
   3025 FF                13016 	.db #0xFF
   3026 FF                13017 	.db #0xFF
   3027 7F                13018 	.db #0x7F
   3028 FF                13019 	.db #0xFF
   3029 00                13020 	.db #0x00
   302A 00                13021 	.db #0x00
   302B 00                13022 	.db #0x00
   302C 00                13023 	.db #0x00
   302D FE                13024 	.db #0xFE
   302E FF                13025 	.db #0xFF
   302F FE                13026 	.db #0xFE
   3030 FF                13027 	.db #0xFF
   3031 FE                13028 	.db #0xFE
   3032 FF                13029 	.db #0xFF
   3033 EC                13030 	.db #0xEC
   3034 F7                13031 	.db #0xF7
   3035 E5                13032 	.db #0xE5
   3036 FE                13033 	.db #0xFE
   3037 FE                13034 	.db #0xFE
   3038 FF                13035 	.db #0xFF
   3039 00                13036 	.db #0x00
   303A 00                13037 	.db #0x00
   303B 00                13038 	.db #0x00
   303C 00                13039 	.db #0x00
   303D D0                13040 	.db #0xD0
   303E 3C                13041 	.db #0x3C
   303F D1                13042 	.db #0xD1
   3040 3C                13043 	.db #0x3C
   3041 39                13044 	.db #0x39
   3042 FC                13045 	.db #0xFC
   3043 2D                13046 	.db #0x2D
   3044 F8                13047 	.db #0xF8
   3045 21                13048 	.db #0x21
   3046 F8                13049 	.db #0xF8
   3047 F9                13050 	.db #0xF9
   3048 F0                13051 	.db #0xF0
   3049 00                13052 	.db #0x00
   304A 00                13053 	.db #0x00
   304B 00                13054 	.db #0x00
   304C 00                13055 	.db #0x00
   304D 95                13056 	.db #0x95
   304E 0B                13057 	.db #0x0B
   304F 9D                13058 	.db #0x9D
   3050 03                13059 	.db #0x03
   3051 91                13060 	.db #0x91
   3052 0F                13061 	.db #0x0F
   3053 90                13062 	.db #0x90
   3054 0F                13063 	.db #0x0F
   3055 90                13064 	.db #0x90
   3056 0F                13065 	.db #0x0F
   3057 93                13066 	.db #0x93
   3058 0F                13067 	.db #0x0F
   3059 00                13068 	.db #0x00
   305A 00                13069 	.db #0x00
   305B 00                13070 	.db #0x00
   305C 00                13071 	.db #0x00
   305D FC                13072 	.db #0xFC
   305E FF                13073 	.db #0xFF
   305F FC                13074 	.db #0xFC
   3060 FF                13075 	.db #0xFF
   3061 05                13076 	.db #0x05
   3062 FE                13077 	.db #0xFE
   3063 05                13078 	.db #0x05
   3064 FE                13079 	.db #0xFE
   3065 01                13080 	.db #0x01
   3066 FE                13081 	.db #0xFE
   3067 FC                13082 	.db #0xFC
   3068 FF                13083 	.db #0xFF
   3069 00                13084 	.db #0x00
   306A 00                13085 	.db #0x00
   306B 00                13086 	.db #0x00
   306C 00                13087 	.db #0x00
   306D 70                13088 	.db #0x70
   306E 8F                13089 	.db #0x8F
   306F 3C                13090 	.db #0x3C
   3070 C3                13091 	.db #0xC3
   3071 1E                13092 	.db #0x1E
   3072 E1                13093 	.db #0xE1
   3073 87                13094 	.db #0x87
   3074 78                13095 	.db #0x78
   3075 A3                13096 	.db #0xA3
   3076 5C                13097 	.db #0x5C
   3077 99                13098 	.db #0x99
   3078 66                13099 	.db #0x66
   3079 00                13100 	.db #0x00
   307A 00                13101 	.db #0x00
   307B 00                13102 	.db #0x00
   307C 00                13103 	.db #0x00
   307D 1F                13104 	.db #0x1F
   307E FF                13105 	.db #0xFF
   307F 1F                13106 	.db #0x1F
   3080 FF                13107 	.db #0xFF
   3081 4F                13108 	.db #0x4F
   3082 BF                13109 	.db #0xBF
   3083 C7                13110 	.db #0xC7
   3084 3F                13111 	.db #0x3F
   3085 E7                13112 	.db #0xE7
   3086 1F                13113 	.db #0x1F
   3087 F3                13114 	.db #0xF3
   3088 0F                13115 	.db #0x0F
   3089 00                13116 	.db #0x00
   308A 00                13117 	.db #0x00
   308B 00                13118 	.db #0x00
   308C 00                13119 	.db #0x00
   308D FE                13120 	.db #0xFE
   308E FF                13121 	.db #0xFF
   308F FF                13122 	.db #0xFF
   3090 FF                13123 	.db #0xFF
   3091 FF                13124 	.db #0xFF
   3092 FF                13125 	.db #0xFF
   3093 FF                13126 	.db #0xFF
   3094 FF                13127 	.db #0xFF
   3095 FF                13128 	.db #0xFF
   3096 FF                13129 	.db #0xFF
   3097 FF                13130 	.db #0xFF
   3098 FF                13131 	.db #0xFF
   3099 00                13132 	.db #0x00
   309A 00                13133 	.db #0x00
   309B 00                13134 	.db #0x00
   309C 00                13135 	.db #0x00
   309D 00                13136 	.db #0x00
   309E FF                13137 	.db #0xFF
   309F 80                13138 	.db #0x80
   30A0 FF                13139 	.db #0xFF
   30A1 80                13140 	.db #0x80
   30A2 FF                13141 	.db #0xFF
   30A3 A0                13142 	.db #0xA0
   30A4 FF                13143 	.db #0xFF
   30A5 C0                13144 	.db #0xC0
   30A6 FF                13145 	.db #0xFF
   30A7 E0                13146 	.db #0xE0
   30A8 FF                13147 	.db #0xFF
   30A9 00                13148 	.db #0x00
   30AA 00                13149 	.db #0x00
   30AB 00                13150 	.db #0x00
   30AC 00                13151 	.db #0x00
   30AD 00                13152 	.db #0x00
   30AE FF                13153 	.db #0xFF
   30AF 00                13154 	.db #0x00
   30B0 FF                13155 	.db #0xFF
   30B1 00                13156 	.db #0x00
   30B2 FF                13157 	.db #0xFF
   30B3 00                13158 	.db #0x00
   30B4 FF                13159 	.db #0xFF
   30B5 01                13160 	.db #0x01
   30B6 FE                13161 	.db #0xFE
   30B7 03                13162 	.db #0x03
   30B8 FC                13163 	.db #0xFC
   30B9 00                13164 	.db #0x00
   30BA 00                13165 	.db #0x00
   30BB 00                13166 	.db #0x00
   30BC 00                13167 	.db #0x00
   30BD 00                13168 	.db #0x00
   30BE FF                13169 	.db #0xFF
   30BF 01                13170 	.db #0x01
   30C0 FE                13171 	.db #0xFE
   30C1 0E                13172 	.db #0x0E
   30C2 F0                13173 	.db #0xF0
   30C3 30                13174 	.db #0x30
   30C4 C0                13175 	.db #0xC0
   30C5 C0                13176 	.db #0xC0
   30C6 00                13177 	.db #0x00
   30C7 00                13178 	.db #0x00
   30C8 00                13179 	.db #0x00
   30C9 00                13180 	.db #0x00
   30CA 00                13181 	.db #0x00
   30CB 00                13182 	.db #0x00
   30CC 00                13183 	.db #0x00
   30CD                   13184 _splashscreen3_map:
   30CD 00                13185 	.db #0x00
   30CE 00                13186 	.db #0x00
   30CF 00                13187 	.db #0x00
   30D0 01                13188 	.db #0x01
   30D1 02                13189 	.db #0x02
   30D2 03                13190 	.db #0x03
   30D3 00                13191 	.db #0x00
   30D4 04                13192 	.db #0x04
   30D5 00                13193 	.db #0x00
   30D6 00                13194 	.db #0x00
   30D7 01                13195 	.db #0x01
   30D8 05                13196 	.db #0x05
   30D9 00                13197 	.db #0x00
   30DA 06                13198 	.db #0x06
   30DB 07                13199 	.db #0x07
   30DC 00                13200 	.db #0x00
   30DD 00                13201 	.db #0x00
   30DE 00                13202 	.db #0x00
   30DF 06                13203 	.db #0x06
   30E0 08                13204 	.db #0x08
   30E1 00                13205 	.db #0x00
   30E2 00                13206 	.db #0x00
   30E3 09                13207 	.db #0x09
   30E4 0A                13208 	.db #0x0A
   30E5 0B                13209 	.db #0x0B
   30E6 0C                13210 	.db #0x0C
   30E7 0D                13211 	.db #0x0D
   30E8 0E                13212 	.db #0x0E
   30E9 00                13213 	.db #0x00
   30EA 09                13214 	.db #0x09
   30EB 0A                13215 	.db #0x0A
   30EC 0F                13216 	.db #0x0F
   30ED 10                13217 	.db #0x10
   30EE 11                13218 	.db #0x11
   30EF 12                13219 	.db #0x12
   30F0 13                13220 	.db #0x13
   30F1 14                13221 	.db #0x14
   30F2 15                13222 	.db #0x15
   30F3 16                13223 	.db #0x16
   30F4 17                13224 	.db #0x17
   30F5 00                13225 	.db #0x00
   30F6 00                13226 	.db #0x00
   30F7 18                13227 	.db #0x18
   30F8 19                13228 	.db #0x19
   30F9 00                13229 	.db #0x00
   30FA 1A                13230 	.db #0x1A
   30FB 1B                13231 	.db #0x1B
   30FC 1C                13232 	.db #0x1C
   30FD 00                13233 	.db #0x00
   30FE 18                13234 	.db #0x18
   30FF 19                13235 	.db #0x19
   3100 1D                13236 	.db #0x1D
   3101 1E                13237 	.db #0x1E
   3102 1F                13238 	.db #0x1F
   3103 20                13239 	.db #0x20
   3104 21                13240 	.db #0x21
   3105 22                13241 	.db #0x22
   3106 23                13242 	.db #0x23
   3107 24                13243 	.db #0x24
   3108 25                13244 	.db #0x25
   3109 26                13245 	.db #0x26
   310A 27                13246 	.db #0x27
   310B 28                13247 	.db #0x28
   310C 29                13248 	.db #0x29
   310D 2A                13249 	.db #0x2A
   310E 2B                13250 	.db #0x2B
   310F 2C                13251 	.db #0x2C
   3110 2D                13252 	.db #0x2D
   3111 2D                13253 	.db #0x2D
   3112 2E                13254 	.db #0x2E
   3113 2D                13255 	.db #0x2D
   3114 2F                13256 	.db #0x2F
   3115 30                13257 	.db #0x30
   3116 31                13258 	.db #0x31
   3117 32                13259 	.db #0x32
   3118 33                13260 	.db #0x33
   3119 34                13261 	.db #0x34
   311A 35                13262 	.db #0x35
   311B 36                13263 	.db #0x36
   311C 37                13264 	.db #0x37
   311D 38                13265 	.db #0x38
   311E 38                13266 	.db #0x38
   311F 38                13267 	.db #0x38
   3120 38                13268 	.db #0x38
   3121 39                13269 	.db #0x39
   3122 3A                13270 	.db #0x3A
   3123 3B                13271 	.db #0x3B
   3124 3C                13272 	.db #0x3C
   3125 3D                13273 	.db #0x3D
   3126 3E                13274 	.db #0x3E
   3127 3F                13275 	.db #0x3F
   3128 40                13276 	.db #0x40
   3129 41                13277 	.db #0x41
   312A 42                13278 	.db #0x42
   312B 43                13279 	.db #0x43
   312C 44                13280 	.db #0x44
   312D 45                13281 	.db #0x45
   312E 46                13282 	.db #0x46
   312F 47                13283 	.db #0x47
   3130 48                13284 	.db #0x48
   3131 38                13285 	.db #0x38
   3132 38                13286 	.db #0x38
   3133 38                13287 	.db #0x38
   3134 49                13288 	.db #0x49
   3135 4A                13289 	.db #0x4A
   3136 4B                13290 	.db #0x4B
   3137 4C                13291 	.db #0x4C
   3138 4D                13292 	.db #0x4D
   3139 4E                13293 	.db #0x4E
   313A 4F                13294 	.db #0x4F
   313B 50                13295 	.db #0x50
   313C 51                13296 	.db #0x51
   313D 52                13297 	.db #0x52
   313E 53                13298 	.db #0x53
   313F 54                13299 	.db #0x54
   3140 55                13300 	.db #0x55
   3141 56                13301 	.db #0x56
   3142 57                13302 	.db #0x57
   3143 58                13303 	.db #0x58
   3144 59                13304 	.db #0x59
   3145 38                13305 	.db #0x38
   3146 38                13306 	.db #0x38
   3147 5A                13307 	.db #0x5A
   3148 50                13308 	.db #0x50
   3149 5B                13309 	.db #0x5B
   314A 5C                13310 	.db #0x5C
   314B 5D                13311 	.db #0x5D
   314C 5E                13312 	.db #0x5E
   314D 5F                13313 	.db #0x5F
   314E 60                13314 	.db #0x60
   314F 61                13315 	.db #0x61
   3150 62                13316 	.db #0x62
   3151 63                13317 	.db #0x63
   3152 38                13318 	.db #0x38
   3153 38                13319 	.db #0x38
   3154 38                13320 	.db #0x38
   3155 38                13321 	.db #0x38
   3156 38                13322 	.db #0x38
   3157 38                13323 	.db #0x38
   3158 38                13324 	.db #0x38
   3159 38                13325 	.db #0x38
   315A 38                13326 	.db #0x38
   315B 64                13327 	.db #0x64
   315C 65                13328 	.db #0x65
   315D 50                13329 	.db #0x50
   315E 66                13330 	.db #0x66
   315F 67                13331 	.db #0x67
   3160 68                13332 	.db #0x68
   3161 69                13333 	.db #0x69
   3162 6A                13334 	.db #0x6A
   3163 6B                13335 	.db #0x6B
   3164 6C                13336 	.db #0x6C
   3165 6D                13337 	.db #0x6D
   3166 6E                13338 	.db #0x6E
   3167 6F                13339 	.db #0x6F
   3168 70                13340 	.db #0x70
   3169 71                13341 	.db #0x71
   316A 72                13342 	.db #0x72
   316B 73                13343 	.db #0x73
   316C 72                13344 	.db #0x72
   316D 74                13345 	.db #0x74
   316E 74                13346 	.db #0x74
   316F 75                13347 	.db #0x75
   3170 76                13348 	.db #0x76
   3171 77                13349 	.db #0x77
   3172 78                13350 	.db #0x78
   3173 79                13351 	.db #0x79
   3174 7A                13352 	.db #0x7A
   3175 7B                13353 	.db #0x7B
   3176 7C                13354 	.db #0x7C
   3177 7D                13355 	.db #0x7D
   3178 7E                13356 	.db #0x7E
   3179 7F                13357 	.db #0x7F
   317A 80                13358 	.db #0x80
   317B 80                13359 	.db #0x80
   317C 80                13360 	.db #0x80
   317D 80                13361 	.db #0x80
   317E 80                13362 	.db #0x80
   317F 80                13363 	.db #0x80
   3180 80                13364 	.db #0x80
   3181 80                13365 	.db #0x80
   3182 80                13366 	.db #0x80
   3183 80                13367 	.db #0x80
   3184 80                13368 	.db #0x80
   3185 81                13369 	.db #0x81
   3186 82                13370 	.db #0x82
   3187 83                13371 	.db #0x83
   3188 84                13372 	.db #0x84
   3189 85                13373 	.db #0x85
   318A 86                13374 	.db #0x86
   318B 87                13375 	.db #0x87
   318C 88                13376 	.db #0x88
   318D 89                13377 	.db #0x89
   318E 80                13378 	.db #0x80
   318F 80                13379 	.db #0x80
   3190 80                13380 	.db #0x80
   3191 80                13381 	.db #0x80
   3192 80                13382 	.db #0x80
   3193 80                13383 	.db #0x80
   3194 80                13384 	.db #0x80
   3195 80                13385 	.db #0x80
   3196 80                13386 	.db #0x80
   3197 80                13387 	.db #0x80
   3198 80                13388 	.db #0x80
   3199 80                13389 	.db #0x80
   319A 80                13390 	.db #0x80
   319B 8A                13391 	.db #0x8A
   319C 8B                13392 	.db #0x8B
   319D 8C                13393 	.db #0x8C
   319E 8D                13394 	.db #0x8D
   319F 8E                13395 	.db #0x8E
   31A0 8F                13396 	.db #0x8F
   31A1 90                13397 	.db #0x90
   31A2 91                13398 	.db #0x91
   31A3 92                13399 	.db #0x92
   31A4 93                13400 	.db #0x93
   31A5 94                13401 	.db #0x94
   31A6 80                13402 	.db #0x80
   31A7 80                13403 	.db #0x80
   31A8 80                13404 	.db #0x80
   31A9 80                13405 	.db #0x80
   31AA 80                13406 	.db #0x80
   31AB 80                13407 	.db #0x80
   31AC 80                13408 	.db #0x80
   31AD 95                13409 	.db #0x95
   31AE 96                13410 	.db #0x96
   31AF 97                13411 	.db #0x97
   31B0 98                13412 	.db #0x98
   31B1 99                13413 	.db #0x99
   31B2 9A                13414 	.db #0x9A
   31B3 50                13415 	.db #0x50
   31B4 9B                13416 	.db #0x9B
   31B5 9C                13417 	.db #0x9C
   31B6 9D                13418 	.db #0x9D
   31B7 9E                13419 	.db #0x9E
   31B8 9F                13420 	.db #0x9F
   31B9 A0                13421 	.db #0xA0
   31BA A1                13422 	.db #0xA1
   31BB A2                13423 	.db #0xA2
   31BC 80                13424 	.db #0x80
   31BD 80                13425 	.db #0x80
   31BE 80                13426 	.db #0x80
   31BF 80                13427 	.db #0x80
   31C0 A3                13428 	.db #0xA3
   31C1 A4                13429 	.db #0xA4
   31C2 A5                13430 	.db #0xA5
   31C3 A6                13431 	.db #0xA6
   31C4 A7                13432 	.db #0xA7
   31C5 A8                13433 	.db #0xA8
   31C6 A9                13434 	.db #0xA9
   31C7 AA                13435 	.db #0xAA
   31C8 AB                13436 	.db #0xAB
   31C9 AC                13437 	.db #0xAC
   31CA AD                13438 	.db #0xAD
   31CB AE                13439 	.db #0xAE
   31CC AF                13440 	.db #0xAF
   31CD 00                13441 	.db #0x00
   31CE 00                13442 	.db #0x00
   31CF B0                13443 	.db #0xB0
   31D0 B1                13444 	.db #0xB1
   31D1 B2                13445 	.db #0xB2
   31D2 B3                13446 	.db #0xB3
   31D3 B4                13447 	.db #0xB4
   31D4 B5                13448 	.db #0xB5
   31D5 B6                13449 	.db #0xB6
   31D6 B7                13450 	.db #0xB7
   31D7 B8                13451 	.db #0xB8
   31D8 80                13452 	.db #0x80
   31D9 B9                13453 	.db #0xB9
   31DA BA                13454 	.db #0xBA
   31DB BB                13455 	.db #0xBB
   31DC BC                13456 	.db #0xBC
   31DD BD                13457 	.db #0xBD
   31DE BE                13458 	.db #0xBE
   31DF BF                13459 	.db #0xBF
   31E0 C0                13460 	.db #0xC0
   31E1 C1                13461 	.db #0xC1
   31E2 C2                13462 	.db #0xC2
   31E3 C3                13463 	.db #0xC3
   31E4 C4                13464 	.db #0xC4
   31E5 C5                13465 	.db #0xC5
   31E6 C6                13466 	.db #0xC6
   31E7 C7                13467 	.db #0xC7
   31E8 C8                13468 	.db #0xC8
   31E9 C9                13469 	.db #0xC9
   31EA CA                13470 	.db #0xCA
   31EB CB                13471 	.db #0xCB
   31EC CC                13472 	.db #0xCC
   31ED CD                13473 	.db #0xCD
   31EE CE                13474 	.db #0xCE
   31EF CF                13475 	.db #0xCF
   31F0 D0                13476 	.db #0xD0
   31F1 D1                13477 	.db #0xD1
   31F2 D2                13478 	.db #0xD2
   31F3 D3                13479 	.db #0xD3
   31F4 D4                13480 	.db #0xD4
   31F5 D5                13481 	.db #0xD5
   31F6 D6                13482 	.db #0xD6
   31F7 D7                13483 	.db #0xD7
   31F8 D8                13484 	.db #0xD8
   31F9 D9                13485 	.db #0xD9
   31FA DA                13486 	.db #0xDA
   31FB DB                13487 	.db #0xDB
   31FC DC                13488 	.db #0xDC
   31FD DD                13489 	.db #0xDD
   31FE DE                13490 	.db #0xDE
   31FF DF                13491 	.db #0xDF
   3200 E0                13492 	.db #0xE0
   3201 E1                13493 	.db #0xE1
   3202 E2                13494 	.db #0xE2
   3203 E3                13495 	.db #0xE3
   3204 E4                13496 	.db #0xE4
   3205 E5                13497 	.db #0xE5
   3206 E6                13498 	.db #0xE6
   3207 E7                13499 	.db #0xE7
   3208 E8                13500 	.db #0xE8
   3209 E9                13501 	.db #0xE9
   320A EA                13502 	.db #0xEA
   320B EB                13503 	.db #0xEB
   320C EC                13504 	.db #0xEC
   320D 80                13505 	.db #0x80
   320E 80                13506 	.db #0x80
   320F 80                13507 	.db #0x80
   3210 80                13508 	.db #0x80
   3211 80                13509 	.db #0x80
   3212 80                13510 	.db #0x80
   3213 80                13511 	.db #0x80
   3214 80                13512 	.db #0x80
   3215 80                13513 	.db #0x80
   3216 80                13514 	.db #0x80
   3217 80                13515 	.db #0x80
   3218 80                13516 	.db #0x80
   3219 80                13517 	.db #0x80
   321A 80                13518 	.db #0x80
   321B 80                13519 	.db #0x80
   321C 80                13520 	.db #0x80
   321D 80                13521 	.db #0x80
   321E 80                13522 	.db #0x80
   321F 80                13523 	.db #0x80
   3220 80                13524 	.db #0x80
   3221 80                13525 	.db #0x80
   3222 80                13526 	.db #0x80
   3223 80                13527 	.db #0x80
   3224 80                13528 	.db #0x80
   3225 80                13529 	.db #0x80
   3226 80                13530 	.db #0x80
   3227 80                13531 	.db #0x80
   3228 80                13532 	.db #0x80
   3229 80                13533 	.db #0x80
   322A 80                13534 	.db #0x80
   322B 80                13535 	.db #0x80
   322C 80                13536 	.db #0x80
   322D 80                13537 	.db #0x80
   322E 80                13538 	.db #0x80
   322F 80                13539 	.db #0x80
   3230 80                13540 	.db #0x80
   3231 80                13541 	.db #0x80
   3232 80                13542 	.db #0x80
   3233 80                13543 	.db #0x80
   3234 80                13544 	.db #0x80
   3235                   13545 _radianlogo_data:
   3235 00                13546 	.db #0x00
   3236 00                13547 	.db #0x00
   3237 00                13548 	.db #0x00
   3238 00                13549 	.db #0x00
   3239 00                13550 	.db #0x00
   323A 00                13551 	.db #0x00
   323B 00                13552 	.db #0x00
   323C 00                13553 	.db #0x00
   323D 00                13554 	.db #0x00
   323E 00                13555 	.db #0x00
   323F 00                13556 	.db #0x00
   3240 00                13557 	.db #0x00
   3241 00                13558 	.db #0x00
   3242 00                13559 	.db #0x00
   3243 00                13560 	.db #0x00
   3244 00                13561 	.db #0x00
   3245 00                13562 	.db #0x00
   3246 00                13563 	.db #0x00
   3247 00                13564 	.db #0x00
   3248 00                13565 	.db #0x00
   3249 00                13566 	.db #0x00
   324A 00                13567 	.db #0x00
   324B 00                13568 	.db #0x00
   324C 00                13569 	.db #0x00
   324D 00                13570 	.db #0x00
   324E 00                13571 	.db #0x00
   324F 00                13572 	.db #0x00
   3250 00                13573 	.db #0x00
   3251 FF                13574 	.db #0xFF
   3252 00                13575 	.db #0x00
   3253 FF                13576 	.db #0xFF
   3254 00                13577 	.db #0x00
   3255 FF                13578 	.db #0xFF
   3256 00                13579 	.db #0x00
   3257 FF                13580 	.db #0xFF
   3258 00                13581 	.db #0x00
   3259 FF                13582 	.db #0xFF
   325A 00                13583 	.db #0x00
   325B FF                13584 	.db #0xFF
   325C 00                13585 	.db #0x00
   325D FF                13586 	.db #0xFF
   325E 00                13587 	.db #0x00
   325F FF                13588 	.db #0xFF
   3260 00                13589 	.db #0x00
   3261 FF                13590 	.db #0xFF
   3262 00                13591 	.db #0x00
   3263 FF                13592 	.db #0xFF
   3264 00                13593 	.db #0x00
   3265 FF                13594 	.db #0xFF
   3266 00                13595 	.db #0x00
   3267 FF                13596 	.db #0xFF
   3268 00                13597 	.db #0x00
   3269 FF                13598 	.db #0xFF
   326A 02                13599 	.db #0x02
   326B FF                13600 	.db #0xFF
   326C 03                13601 	.db #0x03
   326D FF                13602 	.db #0xFF
   326E 03                13603 	.db #0x03
   326F FF                13604 	.db #0xFF
   3270 03                13605 	.db #0x03
   3271 FF                13606 	.db #0xFF
   3272 03                13607 	.db #0x03
   3273 FF                13608 	.db #0xFF
   3274 03                13609 	.db #0x03
   3275 FF                13610 	.db #0xFF
   3276 00                13611 	.db #0x00
   3277 FF                13612 	.db #0xFF
   3278 00                13613 	.db #0x00
   3279 FF                13614 	.db #0xFF
   327A 00                13615 	.db #0x00
   327B FF                13616 	.db #0xFF
   327C 00                13617 	.db #0x00
   327D FF                13618 	.db #0xFF
   327E 80                13619 	.db #0x80
   327F FF                13620 	.db #0xFF
   3280 C0                13621 	.db #0xC0
   3281 FF                13622 	.db #0xFF
   3282 E0                13623 	.db #0xE0
   3283 FF                13624 	.db #0xFF
   3284 F0                13625 	.db #0xF0
   3285 FF                13626 	.db #0xFF
   3286 00                13627 	.db #0x00
   3287 FF                13628 	.db #0xFF
   3288 00                13629 	.db #0x00
   3289 FF                13630 	.db #0xFF
   328A 00                13631 	.db #0x00
   328B FF                13632 	.db #0xFF
   328C 00                13633 	.db #0x00
   328D FF                13634 	.db #0xFF
   328E 00                13635 	.db #0x00
   328F FF                13636 	.db #0xFF
   3290 00                13637 	.db #0x00
   3291 FD                13638 	.db #0xFD
   3292 7E                13639 	.db #0x7E
   3293 FE                13640 	.db #0xFE
   3294 7F                13641 	.db #0x7F
   3295 FF                13642 	.db #0xFF
   3296 00                13643 	.db #0x00
   3297 FF                13644 	.db #0xFF
   3298 00                13645 	.db #0x00
   3299 FF                13646 	.db #0xFF
   329A 00                13647 	.db #0x00
   329B FF                13648 	.db #0xFF
   329C 00                13649 	.db #0x00
   329D FF                13650 	.db #0xFF
   329E 00                13651 	.db #0x00
   329F FF                13652 	.db #0xFF
   32A0 00                13653 	.db #0x00
   32A1 FF                13654 	.db #0xFF
   32A2 07                13655 	.db #0x07
   32A3 FF                13656 	.db #0xFF
   32A4 07                13657 	.db #0x07
   32A5 FF                13658 	.db #0xFF
   32A6 00                13659 	.db #0x00
   32A7 FF                13660 	.db #0xFF
   32A8 00                13661 	.db #0x00
   32A9 FF                13662 	.db #0xFF
   32AA 00                13663 	.db #0x00
   32AB FF                13664 	.db #0xFF
   32AC 00                13665 	.db #0x00
   32AD FF                13666 	.db #0xFF
   32AE 00                13667 	.db #0x00
   32AF FF                13668 	.db #0xFF
   32B0 00                13669 	.db #0x00
   32B1 FF                13670 	.db #0xFF
   32B2 00                13671 	.db #0x00
   32B3 7F                13672 	.db #0x7F
   32B4 80                13673 	.db #0x80
   32B5 FF                13674 	.db #0xFF
   32B6 00                13675 	.db #0x00
   32B7 FF                13676 	.db #0xFF
   32B8 00                13677 	.db #0x00
   32B9 FF                13678 	.db #0xFF
   32BA 00                13679 	.db #0x00
   32BB FF                13680 	.db #0xFF
   32BC 00                13681 	.db #0x00
   32BD FF                13682 	.db #0xFF
   32BE 00                13683 	.db #0x00
   32BF FF                13684 	.db #0xFF
   32C0 00                13685 	.db #0x00
   32C1 FB                13686 	.db #0xFB
   32C2 07                13687 	.db #0x07
   32C3 FB                13688 	.db #0xFB
   32C4 07                13689 	.db #0x07
   32C5 FF                13690 	.db #0xFF
   32C6 00                13691 	.db #0x00
   32C7 FF                13692 	.db #0xFF
   32C8 00                13693 	.db #0x00
   32C9 FF                13694 	.db #0xFF
   32CA 00                13695 	.db #0x00
   32CB FF                13696 	.db #0xFF
   32CC 00                13697 	.db #0x00
   32CD FF                13698 	.db #0xFF
   32CE 00                13699 	.db #0x00
   32CF FF                13700 	.db #0xFF
   32D0 00                13701 	.db #0x00
   32D1 FF                13702 	.db #0xFF
   32D2 E0                13703 	.db #0xE0
   32D3 FF                13704 	.db #0xFF
   32D4 F0                13705 	.db #0xF0
   32D5 FF                13706 	.db #0xFF
   32D6 00                13707 	.db #0x00
   32D7 FF                13708 	.db #0xFF
   32D8 00                13709 	.db #0x00
   32D9 FF                13710 	.db #0xFF
   32DA 00                13711 	.db #0x00
   32DB FF                13712 	.db #0xFF
   32DC 00                13713 	.db #0x00
   32DD FF                13714 	.db #0xFF
   32DE 00                13715 	.db #0x00
   32DF FF                13716 	.db #0xFF
   32E0 00                13717 	.db #0x00
   32E1 FF                13718 	.db #0xFF
   32E2 E0                13719 	.db #0xE0
   32E3 FF                13720 	.db #0xFF
   32E4 E0                13721 	.db #0xE0
   32E5 FF                13722 	.db #0xFF
   32E6 00                13723 	.db #0x00
   32E7 FF                13724 	.db #0xFF
   32E8 00                13725 	.db #0x00
   32E9 FF                13726 	.db #0xFF
   32EA 00                13727 	.db #0x00
   32EB FF                13728 	.db #0xFF
   32EC 00                13729 	.db #0x00
   32ED FF                13730 	.db #0xFF
   32EE 00                13731 	.db #0x00
   32EF FF                13732 	.db #0xFF
   32F0 00                13733 	.db #0x00
   32F1 6F                13734 	.db #0x6F
   32F2 F0                13735 	.db #0xF0
   32F3 6F                13736 	.db #0x6F
   32F4 F0                13737 	.db #0xF0
   32F5 FF                13738 	.db #0xFF
   32F6 00                13739 	.db #0x00
   32F7 FF                13740 	.db #0xFF
   32F8 00                13741 	.db #0x00
   32F9 FF                13742 	.db #0xFF
   32FA 00                13743 	.db #0x00
   32FB FF                13744 	.db #0xFF
   32FC 00                13745 	.db #0x00
   32FD FF                13746 	.db #0xFF
   32FE 00                13747 	.db #0x00
   32FF FF                13748 	.db #0xFF
   3300 00                13749 	.db #0x00
   3301 F7                13750 	.db #0xF7
   3302 7F                13751 	.db #0x7F
   3303 F7                13752 	.db #0xF7
   3304 7F                13753 	.db #0x7F
   3305 FF                13754 	.db #0xFF
   3306 03                13755 	.db #0x03
   3307 FF                13756 	.db #0xFF
   3308 03                13757 	.db #0x03
   3309 FF                13758 	.db #0xFF
   330A 03                13759 	.db #0x03
   330B FF                13760 	.db #0xFF
   330C 03                13761 	.db #0x03
   330D FF                13762 	.db #0xFF
   330E 03                13763 	.db #0x03
   330F FF                13764 	.db #0xFF
   3310 01                13765 	.db #0x01
   3311 FF                13766 	.db #0xFF
   3312 00                13767 	.db #0x00
   3313 FD                13768 	.db #0xFD
   3314 02                13769 	.db #0x02
   3315 FF                13770 	.db #0xFF
   3316 F8                13771 	.db #0xF8
   3317 FF                13772 	.db #0xFF
   3318 FC                13773 	.db #0xFC
   3319 FF                13774 	.db #0xFF
   331A FE                13775 	.db #0xFE
   331B FF                13776 	.db #0xFF
   331C FF                13777 	.db #0xFF
   331D FF                13778 	.db #0xFF
   331E FF                13779 	.db #0xFF
   331F FF                13780 	.db #0xFF
   3320 FF                13781 	.db #0xFF
   3321 FF                13782 	.db #0xFF
   3322 FF                13783 	.db #0xFF
   3323 FF                13784 	.db #0xFF
   3324 7F                13785 	.db #0x7F
   3325 F6                13786 	.db #0xF6
   3326 7F                13787 	.db #0x7F
   3327 F6                13788 	.db #0xF6
   3328 7F                13789 	.db #0x7F
   3329 F6                13790 	.db #0xF6
   332A 7F                13791 	.db #0x7F
   332B F6                13792 	.db #0xF6
   332C 7F                13793 	.db #0x7F
   332D F6                13794 	.db #0xF6
   332E 7F                13795 	.db #0x7F
   332F F6                13796 	.db #0xF6
   3330 7F                13797 	.db #0x7F
   3331 F6                13798 	.db #0xF6
   3332 7F                13799 	.db #0x7F
   3333 F6                13800 	.db #0xF6
   3334 7F                13801 	.db #0x7F
   3335 FF                13802 	.db #0xFF
   3336 07                13803 	.db #0x07
   3337 F7                13804 	.db #0xF7
   3338 0F                13805 	.db #0x0F
   3339 F7                13806 	.db #0xF7
   333A 0F                13807 	.db #0x0F
   333B F7                13808 	.db #0xF7
   333C 0F                13809 	.db #0x0F
   333D FF                13810 	.db #0xFF
   333E 0F                13811 	.db #0x0F
   333F FF                13812 	.db #0xFF
   3340 0F                13813 	.db #0x0F
   3341 FF                13814 	.db #0xFF
   3342 0F                13815 	.db #0x0F
   3343 FD                13816 	.db #0xFD
   3344 0F                13817 	.db #0x0F
   3345 7F                13818 	.db #0x7F
   3346 80                13819 	.db #0x80
   3347 7F                13820 	.db #0x7F
   3348 80                13821 	.db #0x80
   3349 7F                13822 	.db #0x7F
   334A 80                13823 	.db #0x80
   334B 7F                13824 	.db #0x7F
   334C 80                13825 	.db #0x80
   334D FF                13826 	.db #0xFF
   334E 80                13827 	.db #0x80
   334F FF                13828 	.db #0xFF
   3350 80                13829 	.db #0x80
   3351 FF                13830 	.db #0xFF
   3352 80                13831 	.db #0x80
   3353 BF                13832 	.db #0xBF
   3354 C0                13833 	.db #0xC0
   3355 FB                13834 	.db #0xFB
   3356 07                13835 	.db #0x07
   3357 FB                13836 	.db #0xFB
   3358 07                13837 	.db #0x07
   3359 FB                13838 	.db #0xFB
   335A 07                13839 	.db #0x07
   335B FB                13840 	.db #0xFB
   335C 07                13841 	.db #0x07
   335D FB                13842 	.db #0xFB
   335E 07                13843 	.db #0x07
   335F FB                13844 	.db #0xFB
   3360 07                13845 	.db #0x07
   3361 FB                13846 	.db #0xFB
   3362 07                13847 	.db #0x07
   3363 FB                13848 	.db #0xFB
   3364 07                13849 	.db #0x07
   3365 77                13850 	.db #0x77
   3366 F8                13851 	.db #0xF8
   3367 77                13852 	.db #0x77
   3368 F8                13853 	.db #0xF8
   3369 77                13854 	.db #0x77
   336A F8                13855 	.db #0xF8
   336B 77                13856 	.db #0x77
   336C F8                13857 	.db #0xF8
   336D 77                13858 	.db #0x77
   336E F8                13859 	.db #0xF8
   336F 77                13860 	.db #0x77
   3370 F8                13861 	.db #0xF8
   3371 77                13862 	.db #0x77
   3372 F8                13863 	.db #0xF8
   3373 77                13864 	.db #0x77
   3374 F8                13865 	.db #0xF8
   3375 FF                13866 	.db #0xFF
   3376 E0                13867 	.db #0xE0
   3377 FF                13868 	.db #0xFF
   3378 E0                13869 	.db #0xE0
   3379 FF                13870 	.db #0xFF
   337A E0                13871 	.db #0xE0
   337B FF                13872 	.db #0xFF
   337C E0                13873 	.db #0xE0
   337D FF                13874 	.db #0xFF
   337E E0                13875 	.db #0xE0
   337F FF                13876 	.db #0xFF
   3380 E0                13877 	.db #0xE0
   3381 FF                13878 	.db #0xFF
   3382 E0                13879 	.db #0xE0
   3383 FF                13880 	.db #0xFF
   3384 E0                13881 	.db #0xE0
   3385 FF                13882 	.db #0xFF
   3386 00                13883 	.db #0x00
   3387 FF                13884 	.db #0xFF
   3388 00                13885 	.db #0x00
   3389 FF                13886 	.db #0xFF
   338A 00                13887 	.db #0x00
   338B FF                13888 	.db #0xFF
   338C 00                13889 	.db #0x00
   338D FF                13890 	.db #0xFF
   338E 00                13891 	.db #0x00
   338F FE                13892 	.db #0xFE
   3390 01                13893 	.db #0x01
   3391 FE                13894 	.db #0xFE
   3392 01                13895 	.db #0x01
   3393 FE                13896 	.db #0xFE
   3394 01                13897 	.db #0x01
   3395 FF                13898 	.db #0xFF
   3396 F0                13899 	.db #0xF0
   3397 FF                13900 	.db #0xFF
   3398 F0                13901 	.db #0xF0
   3399 FF                13902 	.db #0xFF
   339A F0                13903 	.db #0xF0
   339B F7                13904 	.db #0xF7
   339C F8                13905 	.db #0xF8
   339D F7                13906 	.db #0xF7
   339E F8                13907 	.db #0xF8
   339F F7                13908 	.db #0xF7
   33A0 F8                13909 	.db #0xF8
   33A1 F7                13910 	.db #0xF7
   33A2 F8                13911 	.db #0xF8
   33A3 F7                13912 	.db #0xF7
   33A4 F8                13913 	.db #0xF8
   33A5 F7                13914 	.db #0xF7
   33A6 7F                13915 	.db #0x7F
   33A7 F7                13916 	.db #0xF7
   33A8 7F                13917 	.db #0x7F
   33A9 FF                13918 	.db #0xFF
   33AA 7F                13919 	.db #0x7F
   33AB FF                13920 	.db #0xFF
   33AC 7F                13921 	.db #0x7F
   33AD FF                13922 	.db #0xFF
   33AE 7F                13923 	.db #0x7F
   33AF FF                13924 	.db #0xFF
   33B0 7F                13925 	.db #0x7F
   33B1 FF                13926 	.db #0xFF
   33B2 7F                13927 	.db #0x7F
   33B3 FF                13928 	.db #0xFF
   33B4 7F                13929 	.db #0x7F
   33B5 FE                13930 	.db #0xFE
   33B6 03                13931 	.db #0x03
   33B7 FF                13932 	.db #0xFF
   33B8 03                13933 	.db #0x03
   33B9 FF                13934 	.db #0xFF
   33BA 03                13935 	.db #0x03
   33BB FF                13936 	.db #0xFF
   33BC 03                13937 	.db #0x03
   33BD FF                13938 	.db #0xFF
   33BE 03                13939 	.db #0x03
   33BF FF                13940 	.db #0xFF
   33C0 03                13941 	.db #0x03
   33C1 FF                13942 	.db #0xFF
   33C2 03                13943 	.db #0x03
   33C3 FF                13944 	.db #0xFF
   33C4 03                13945 	.db #0x03
   33C5 FF                13946 	.db #0xFF
   33C6 3F                13947 	.db #0x3F
   33C7 7F                13948 	.db #0x7F
   33C8 9F                13949 	.db #0x9F
   33C9 BF                13950 	.db #0xBF
   33CA CF                13951 	.db #0xCF
   33CB DF                13952 	.db #0xDF
   33CC E7                13953 	.db #0xE7
   33CD EF                13954 	.db #0xEF
   33CE F3                13955 	.db #0xF3
   33CF F7                13956 	.db #0xF7
   33D0 F9                13957 	.db #0xF9
   33D1 FB                13958 	.db #0xFB
   33D2 FC                13959 	.db #0xFC
   33D3 FD                13960 	.db #0xFD
   33D4 FE                13961 	.db #0xFE
   33D5 FE                13962 	.db #0xFE
   33D6 7F                13963 	.db #0x7F
   33D7 FE                13964 	.db #0xFE
   33D8 7F                13965 	.db #0x7F
   33D9 F6                13966 	.db #0xF6
   33DA 7F                13967 	.db #0x7F
   33DB F6                13968 	.db #0xF6
   33DC 7F                13969 	.db #0x7F
   33DD F6                13970 	.db #0xF6
   33DE 7F                13971 	.db #0x7F
   33DF F6                13972 	.db #0xF6
   33E0 7F                13973 	.db #0x7F
   33E1 F6                13974 	.db #0xF6
   33E2 7F                13975 	.db #0x7F
   33E3 F6                13976 	.db #0xF6
   33E4 7F                13977 	.db #0x7F
   33E5 ED                13978 	.db #0xED
   33E6 1F                13979 	.db #0x1F
   33E7 ED                13980 	.db #0xED
   33E8 1F                13981 	.db #0x1F
   33E9 ED                13982 	.db #0xED
   33EA 1F                13983 	.db #0x1F
   33EB FF                13984 	.db #0xFF
   33EC 1D                13985 	.db #0x1D
   33ED FF                13986 	.db #0xFF
   33EE 1D                13987 	.db #0x1D
   33EF FF                13988 	.db #0xFF
   33F0 1D                13989 	.db #0x1D
   33F1 FF                13990 	.db #0xFF
   33F2 1D                13991 	.db #0x1D
   33F3 FF                13992 	.db #0xFF
   33F4 1D                13993 	.db #0x1D
   33F5 BF                13994 	.db #0xBF
   33F6 C0                13995 	.db #0xC0
   33F7 BF                13996 	.db #0xBF
   33F8 C0                13997 	.db #0xC0
   33F9 BF                13998 	.db #0xBF
   33FA C0                13999 	.db #0xC0
   33FB FF                14000 	.db #0xFF
   33FC C0                14001 	.db #0xC0
   33FD FF                14002 	.db #0xFF
   33FE C0                14003 	.db #0xC0
   33FF FF                14004 	.db #0xFF
   3400 C0                14005 	.db #0xC0
   3401 FF                14006 	.db #0xFF
   3402 C0                14007 	.db #0xC0
   3403 DF                14008 	.db #0xDF
   3404 E0                14009 	.db #0xE0
   3405 FF                14010 	.db #0xFF
   3406 01                14011 	.db #0x01
   3407 FF                14012 	.db #0xFF
   3408 01                14013 	.db #0x01
   3409 FF                14014 	.db #0xFF
   340A 01                14015 	.db #0x01
   340B FF                14016 	.db #0xFF
   340C 01                14017 	.db #0x01
   340D FD                14018 	.db #0xFD
   340E 03                14019 	.db #0x03
   340F FD                14020 	.db #0xFD
   3410 03                14021 	.db #0x03
   3411 FD                14022 	.db #0xFD
   3412 03                14023 	.db #0x03
   3413 FF                14024 	.db #0xFF
   3414 03                14025 	.db #0x03
   3415 FF                14026 	.db #0xFF
   3416 F8                14027 	.db #0xF8
   3417 BF                14028 	.db #0xBF
   3418 F8                14029 	.db #0xF8
   3419 9F                14030 	.db #0x9F
   341A F8                14031 	.db #0xF8
   341B 9B                14032 	.db #0x9B
   341C FC                14033 	.db #0xFC
   341D 9B                14034 	.db #0x9B
   341E FC                14035 	.db #0xFC
   341F 9B                14036 	.db #0x9B
   3420 FC                14037 	.db #0xFC
   3421 9B                14038 	.db #0x9B
   3422 FC                14039 	.db #0xFC
   3423 BF                14040 	.db #0xBF
   3424 DC                14041 	.db #0xDC
   3425 FF                14042 	.db #0xFF
   3426 7F                14043 	.db #0x7F
   3427 FF                14044 	.db #0xFF
   3428 7F                14045 	.db #0x7F
   3429 FF                14046 	.db #0xFF
   342A 7F                14047 	.db #0x7F
   342B FF                14048 	.db #0xFF
   342C 7F                14049 	.db #0x7F
   342D FF                14050 	.db #0xFF
   342E 7F                14051 	.db #0x7F
   342F FF                14052 	.db #0xFF
   3430 7F                14053 	.db #0x7F
   3431 F7                14054 	.db #0xF7
   3432 7F                14055 	.db #0x7F
   3433 F7                14056 	.db #0xF7
   3434 7F                14057 	.db #0x7F
   3435 FF                14058 	.db #0xFF
   3436 03                14059 	.db #0x03
   3437 FF                14060 	.db #0xFF
   3438 03                14061 	.db #0x03
   3439 FF                14062 	.db #0xFF
   343A 03                14063 	.db #0x03
   343B FF                14064 	.db #0xFF
   343C 03                14065 	.db #0x03
   343D FF                14066 	.db #0xFF
   343E 03                14067 	.db #0x03
   343F FF                14068 	.db #0xFF
   3440 03                14069 	.db #0x03
   3441 FF                14070 	.db #0xFF
   3442 03                14071 	.db #0x03
   3443 FF                14072 	.db #0xFF
   3444 03                14073 	.db #0x03
   3445 FE                14074 	.db #0xFE
   3446 FF                14075 	.db #0xFF
   3447 FF                14076 	.db #0xFF
   3448 FF                14077 	.db #0xFF
   3449 FF                14078 	.db #0xFF
   344A FF                14079 	.db #0xFF
   344B FF                14080 	.db #0xFF
   344C FF                14081 	.db #0xFF
   344D FF                14082 	.db #0xFF
   344E FF                14083 	.db #0xFF
   344F FF                14084 	.db #0xFF
   3450 FF                14085 	.db #0xFF
   3451 FF                14086 	.db #0xFF
   3452 FF                14087 	.db #0xFF
   3453 FF                14088 	.db #0xFF
   3454 FF                14089 	.db #0xFF
   3455 FF                14090 	.db #0xFF
   3456 F8                14091 	.db #0xF8
   3457 FF                14092 	.db #0xFF
   3458 FC                14093 	.db #0xFC
   3459 FF                14094 	.db #0xFF
   345A FE                14095 	.db #0xFE
   345B FF                14096 	.db #0xFF
   345C FF                14097 	.db #0xFF
   345D FF                14098 	.db #0xFF
   345E FF                14099 	.db #0xFF
   345F FF                14100 	.db #0xFF
   3460 FF                14101 	.db #0xFF
   3461 FF                14102 	.db #0xFF
   3462 FF                14103 	.db #0xFF
   3463 80                14104 	.db #0x80
   3464 7F                14105 	.db #0x7F
   3465 FF                14106 	.db #0xFF
   3466 00                14107 	.db #0x00
   3467 FF                14108 	.db #0xFF
   3468 00                14109 	.db #0x00
   3469 FF                14110 	.db #0xFF
   346A 00                14111 	.db #0x00
   346B FF                14112 	.db #0xFF
   346C 00                14113 	.db #0x00
   346D FF                14114 	.db #0xFF
   346E 80                14115 	.db #0x80
   346F FF                14116 	.db #0xFF
   3470 C0                14117 	.db #0xC0
   3471 FF                14118 	.db #0xFF
   3472 E0                14119 	.db #0xE0
   3473 0F                14120 	.db #0x0F
   3474 F0                14121 	.db #0xF0
   3475 F6                14122 	.db #0xF6
   3476 7F                14123 	.db #0x7F
   3477 F6                14124 	.db #0xF6
   3478 7F                14125 	.db #0x7F
   3479 FF                14126 	.db #0xFF
   347A 00                14127 	.db #0x00
   347B FF                14128 	.db #0xFF
   347C 00                14129 	.db #0x00
   347D FF                14130 	.db #0xFF
   347E 00                14131 	.db #0x00
   347F FF                14132 	.db #0xFF
   3480 00                14133 	.db #0x00
   3481 FF                14134 	.db #0xFF
   3482 00                14135 	.db #0x00
   3483 FF                14136 	.db #0xFF
   3484 00                14137 	.db #0x00
   3485 DA                14138 	.db #0xDA
   3486 3D                14139 	.db #0x3D
   3487 DA                14140 	.db #0xDA
   3488 3D                14141 	.db #0x3D
   3489 FF                14142 	.db #0xFF
   348A 00                14143 	.db #0x00
   348B FF                14144 	.db #0xFF
   348C 00                14145 	.db #0x00
   348D FF                14146 	.db #0xFF
   348E 00                14147 	.db #0x00
   348F FF                14148 	.db #0xFF
   3490 00                14149 	.db #0x00
   3491 FF                14150 	.db #0xFF
   3492 00                14151 	.db #0x00
   3493 FF                14152 	.db #0xFF
   3494 00                14153 	.db #0x00
   3495 DF                14154 	.db #0xDF
   3496 E0                14155 	.db #0xE0
   3497 DF                14156 	.db #0xDF
   3498 E0                14157 	.db #0xE0
   3499 FF                14158 	.db #0xFF
   349A 00                14159 	.db #0x00
   349B FF                14160 	.db #0xFF
   349C 00                14161 	.db #0x00
   349D FF                14162 	.db #0xFF
   349E 00                14163 	.db #0x00
   349F FF                14164 	.db #0xFF
   34A0 00                14165 	.db #0x00
   34A1 FF                14166 	.db #0xFF
   34A2 00                14167 	.db #0x00
   34A3 FF                14168 	.db #0xFF
   34A4 00                14169 	.db #0x00
   34A5 FB                14170 	.db #0xFB
   34A6 07                14171 	.db #0x07
   34A7 FB                14172 	.db #0xFB
   34A8 07                14173 	.db #0x07
   34A9 FF                14174 	.db #0xFF
   34AA 00                14175 	.db #0x00
   34AB FF                14176 	.db #0xFF
   34AC 00                14177 	.db #0x00
   34AD FF                14178 	.db #0xFF
   34AE 00                14179 	.db #0x00
   34AF FF                14180 	.db #0xFF
   34B0 00                14181 	.db #0x00
   34B1 FF                14182 	.db #0xFF
   34B2 00                14183 	.db #0x00
   34B3 FF                14184 	.db #0xFF
   34B4 00                14185 	.db #0x00
   34B5 FF                14186 	.db #0xFF
   34B6 F0                14187 	.db #0xF0
   34B7 EF                14188 	.db #0xEF
   34B8 F0                14189 	.db #0xF0
   34B9 FF                14190 	.db #0xFF
   34BA 00                14191 	.db #0x00
   34BB FF                14192 	.db #0xFF
   34BC 00                14193 	.db #0x00
   34BD FF                14194 	.db #0xFF
   34BE 00                14195 	.db #0x00
   34BF FF                14196 	.db #0xFF
   34C0 00                14197 	.db #0x00
   34C1 FF                14198 	.db #0xFF
   34C2 00                14199 	.db #0x00
   34C3 FF                14200 	.db #0xFF
   34C4 00                14201 	.db #0x00
   34C5 FF                14202 	.db #0xFF
   34C6 E0                14203 	.db #0xE0
   34C7 FF                14204 	.db #0xFF
   34C8 E0                14205 	.db #0xE0
   34C9 FF                14206 	.db #0xFF
   34CA 00                14207 	.db #0x00
   34CB FF                14208 	.db #0xFF
   34CC 00                14209 	.db #0x00
   34CD FF                14210 	.db #0xFF
   34CE 00                14211 	.db #0x00
   34CF FF                14212 	.db #0xFF
   34D0 00                14213 	.db #0x00
   34D1 FF                14214 	.db #0xFF
   34D2 00                14215 	.db #0x00
   34D3 FF                14216 	.db #0xFF
   34D4 00                14217 	.db #0x00
   34D5 FF                14218 	.db #0xFF
   34D6 03                14219 	.db #0x03
   34D7 FF                14220 	.db #0xFF
   34D8 03                14221 	.db #0x03
   34D9 FF                14222 	.db #0xFF
   34DA 00                14223 	.db #0x00
   34DB FF                14224 	.db #0xFF
   34DC 00                14225 	.db #0x00
   34DD FF                14226 	.db #0xFF
   34DE 00                14227 	.db #0x00
   34DF FF                14228 	.db #0xFF
   34E0 00                14229 	.db #0x00
   34E1 FF                14230 	.db #0xFF
   34E2 00                14231 	.db #0x00
   34E3 FF                14232 	.db #0xFF
   34E4 00                14233 	.db #0x00
   34E5 FF                14234 	.db #0xFF
   34E6 9C                14235 	.db #0x9C
   34E7 FF                14236 	.db #0xFF
   34E8 9C                14237 	.db #0x9C
   34E9 FF                14238 	.db #0xFF
   34EA 00                14239 	.db #0x00
   34EB FF                14240 	.db #0xFF
   34EC 00                14241 	.db #0x00
   34ED FF                14242 	.db #0xFF
   34EE 00                14243 	.db #0x00
   34EF FF                14244 	.db #0xFF
   34F0 00                14245 	.db #0x00
   34F1 FF                14246 	.db #0xFF
   34F2 00                14247 	.db #0x00
   34F3 FF                14248 	.db #0xFF
   34F4 00                14249 	.db #0x00
   34F5 F7                14250 	.db #0xF7
   34F6 7F                14251 	.db #0x7F
   34F7 FF                14252 	.db #0xFF
   34F8 77                14253 	.db #0x77
   34F9 FF                14254 	.db #0xFF
   34FA 00                14255 	.db #0x00
   34FB FF                14256 	.db #0xFF
   34FC 00                14257 	.db #0x00
   34FD FF                14258 	.db #0xFF
   34FE 00                14259 	.db #0x00
   34FF FF                14260 	.db #0xFF
   3500 00                14261 	.db #0x00
   3501 FF                14262 	.db #0xFF
   3502 00                14263 	.db #0x00
   3503 FF                14264 	.db #0xFF
   3504 00                14265 	.db #0x00
   3505 FF                14266 	.db #0xFF
   3506 FF                14267 	.db #0xFF
   3507 FF                14268 	.db #0xFF
   3508 FF                14269 	.db #0xFF
   3509 FD                14270 	.db #0xFD
   350A FF                14271 	.db #0xFF
   350B FE                14272 	.db #0xFE
   350C FD                14273 	.db #0xFD
   350D FF                14274 	.db #0xFF
   350E FC                14275 	.db #0xFC
   350F FF                14276 	.db #0xFF
   3510 FC                14277 	.db #0xFC
   3511 FF                14278 	.db #0xFF
   3512 FC                14279 	.db #0xFC
   3513 FF                14280 	.db #0xFF
   3514 FC                14281 	.db #0xFC
   3515 FE                14282 	.db #0xFE
   3516 FF                14283 	.db #0xFF
   3517 FF                14284 	.db #0xFF
   3518 FF                14285 	.db #0xFF
   3519 FF                14286 	.db #0xFF
   351A FF                14287 	.db #0xFF
   351B FF                14288 	.db #0xFF
   351C FF                14289 	.db #0xFF
   351D 7F                14290 	.db #0x7F
   351E FF                14291 	.db #0xFF
   351F BF                14292 	.db #0xBF
   3520 7F                14293 	.db #0x7F
   3521 DF                14294 	.db #0xDF
   3522 3F                14295 	.db #0x3F
   3523 EF                14296 	.db #0xEF
   3524 1F                14297 	.db #0x1F
   3525 FF                14298 	.db #0xFF
   3526 00                14299 	.db #0x00
   3527 7F                14300 	.db #0x7F
   3528 80                14301 	.db #0x80
   3529 BF                14302 	.db #0xBF
   352A C0                14303 	.db #0xC0
   352B DF                14304 	.db #0xDF
   352C E0                14305 	.db #0xE0
   352D EF                14306 	.db #0xEF
   352E F0                14307 	.db #0xF0
   352F F7                14308 	.db #0xF7
   3530 F8                14309 	.db #0xF8
   3531 FB                14310 	.db #0xFB
   3532 FC                14311 	.db #0xFC
   3533 FD                14312 	.db #0xFD
   3534 FE                14313 	.db #0xFE
   3535 FF                14314 	.db #0xFF
   3536 00                14315 	.db #0x00
   3537 FF                14316 	.db #0xFF
   3538 00                14317 	.db #0x00
   3539 FF                14318 	.db #0xFF
   353A 00                14319 	.db #0x00
   353B FF                14320 	.db #0xFF
   353C 7F                14321 	.db #0x7F
   353D FF                14322 	.db #0xFF
   353E 7F                14323 	.db #0x7F
   353F FF                14324 	.db #0xFF
   3540 7F                14325 	.db #0x7F
   3541 FF                14326 	.db #0xFF
   3542 00                14327 	.db #0x00
   3543 FF                14328 	.db #0xFF
   3544 00                14329 	.db #0x00
   3545 FF                14330 	.db #0xFF
   3546 00                14331 	.db #0x00
   3547 FF                14332 	.db #0xFF
   3548 00                14333 	.db #0x00
   3549 FF                14334 	.db #0xFF
   354A 00                14335 	.db #0x00
   354B FF                14336 	.db #0xFF
   354C FF                14337 	.db #0xFF
   354D FF                14338 	.db #0xFF
   354E FF                14339 	.db #0xFF
   354F FF                14340 	.db #0xFF
   3550 FF                14341 	.db #0xFF
   3551 FF                14342 	.db #0xFF
   3552 00                14343 	.db #0x00
   3553 FF                14344 	.db #0xFF
   3554 00                14345 	.db #0x00
   3555 FF                14346 	.db #0xFF
   3556 00                14347 	.db #0x00
   3557 FF                14348 	.db #0xFF
   3558 00                14349 	.db #0x00
   3559 FF                14350 	.db #0xFF
   355A 00                14351 	.db #0x00
   355B FF                14352 	.db #0xFF
   355C F0                14353 	.db #0xF0
   355D FF                14354 	.db #0xFF
   355E F0                14355 	.db #0xF0
   355F FF                14356 	.db #0xFF
   3560 F0                14357 	.db #0xF0
   3561 FF                14358 	.db #0xFF
   3562 00                14359 	.db #0x00
   3563 FF                14360 	.db #0xFF
   3564 00                14361 	.db #0x00
   3565 FF                14362 	.db #0xFF
   3566 00                14363 	.db #0x00
   3567 FF                14364 	.db #0xFF
   3568 00                14365 	.db #0x00
   3569 FA                14366 	.db #0xFA
   356A 07                14367 	.db #0x07
   356B FF                14368 	.db #0xFF
   356C 07                14369 	.db #0x07
   356D F7                14370 	.db #0xF7
   356E 0F                14371 	.db #0x0F
   356F FB                14372 	.db #0xFB
   3570 07                14373 	.db #0x07
   3571 FF                14374 	.db #0xFF
   3572 00                14375 	.db #0x00
   3573 FF                14376 	.db #0xFF
   3574 00                14377 	.db #0x00
   3575 FF                14378 	.db #0xFF
   3576 00                14379 	.db #0x00
   3577 FF                14380 	.db #0xFF
   3578 00                14381 	.db #0x00
   3579 FF                14382 	.db #0xFF
   357A 00                14383 	.db #0x00
   357B DF                14384 	.db #0xDF
   357C E0                14385 	.db #0xE0
   357D F7                14386 	.db #0xF7
   357E F8                14387 	.db #0xF8
   357F FD                14388 	.db #0xFD
   3580 FE                14389 	.db #0xFE
   3581 7F                14390 	.db #0x7F
   3582 FF                14391 	.db #0xFF
   3583 FE                14392 	.db #0xFE
   3584 1F                14393 	.db #0x1F
   3585 FF                14394 	.db #0xFF
   3586 00                14395 	.db #0x00
   3587 FF                14396 	.db #0xFF
   3588 00                14397 	.db #0x00
   3589 F5                14398 	.db #0xF5
   358A 0E                14399 	.db #0x0E
   358B BE                14400 	.db #0xBE
   358C 67                14401 	.db #0x67
   358D AA                14402 	.db #0xAA
   358E 77                14403 	.db #0x77
   358F F6                14404 	.db #0xF6
   3590 3B                14405 	.db #0x3B
   3591 D7                14406 	.db #0xD7
   3592 38                14407 	.db #0x38
   3593 FF                14408 	.db #0xFF
   3594 00                14409 	.db #0x00
   3595 FF                14410 	.db #0xFF
   3596 00                14411 	.db #0x00
   3597 FF                14412 	.db #0xFF
   3598 00                14413 	.db #0x00
   3599 FF                14414 	.db #0xFF
   359A 00                14415 	.db #0x00
   359B FF                14416 	.db #0xFF
   359C 0F                14417 	.db #0x0F
   359D FF                14418 	.db #0xFF
   359E 0F                14419 	.db #0x0F
   359F FF                14420 	.db #0xFF
   35A0 0F                14421 	.db #0x0F
   35A1 FF                14422 	.db #0xFF
   35A2 00                14423 	.db #0x00
   35A3 FF                14424 	.db #0xFF
   35A4 00                14425 	.db #0x00
   35A5 FF                14426 	.db #0xFF
   35A6 00                14427 	.db #0x00
   35A7 FF                14428 	.db #0xFF
   35A8 00                14429 	.db #0x00
   35A9 FF                14430 	.db #0xFF
   35AA 00                14431 	.db #0x00
   35AB FF                14432 	.db #0xFF
   35AC FF                14433 	.db #0xFF
   35AD FF                14434 	.db #0xFF
   35AE FF                14435 	.db #0xFF
   35AF FF                14436 	.db #0xFF
   35B0 FF                14437 	.db #0xFF
   35B1 FF                14438 	.db #0xFF
   35B2 00                14439 	.db #0x00
   35B3 FF                14440 	.db #0xFF
   35B4 0F                14441 	.db #0x0F
   35B5 FF                14442 	.db #0xFF
   35B6 00                14443 	.db #0x00
   35B7 FF                14444 	.db #0xFF
   35B8 00                14445 	.db #0x00
   35B9 FF                14446 	.db #0xFF
   35BA 00                14447 	.db #0x00
   35BB FF                14448 	.db #0xFF
   35BC FF                14449 	.db #0xFF
   35BD FF                14450 	.db #0xFF
   35BE FF                14451 	.db #0xFF
   35BF FF                14452 	.db #0xFF
   35C0 FF                14453 	.db #0xFF
   35C1 FB                14454 	.db #0xFB
   35C2 07                14455 	.db #0x07
   35C3 FF                14456 	.db #0xFF
   35C4 07                14457 	.db #0x07
   35C5 FF                14458 	.db #0xFF
   35C6 00                14459 	.db #0x00
   35C7 FF                14460 	.db #0xFF
   35C8 00                14461 	.db #0x00
   35C9 FF                14462 	.db #0xFF
   35CA 00                14463 	.db #0x00
   35CB DF                14464 	.db #0xDF
   35CC E0                14465 	.db #0xE0
   35CD DF                14466 	.db #0xDF
   35CE E0                14467 	.db #0xE0
   35CF DE                14468 	.db #0xDE
   35D0 E1                14469 	.db #0xE1
   35D1 FF                14470 	.db #0xFF
   35D2 C0                14471 	.db #0xC0
   35D3 BF                14472 	.db #0xBF
   35D4 C0                14473 	.db #0xC0
   35D5 FF                14474 	.db #0xFF
   35D6 00                14475 	.db #0x00
   35D7 FF                14476 	.db #0xFF
   35D8 00                14477 	.db #0x00
   35D9 FF                14478 	.db #0xFF
   35DA 00                14479 	.db #0x00
   35DB DF                14480 	.db #0xDF
   35DC 60                14481 	.db #0x60
   35DD F7                14482 	.db #0xF7
   35DE F8                14483 	.db #0xF8
   35DF FD                14484 	.db #0xFD
   35E0 FE                14485 	.db #0xFE
   35E1 7F                14486 	.db #0x7F
   35E2 FF                14487 	.db #0xFF
   35E3 DF                14488 	.db #0xDF
   35E4 3F                14489 	.db #0x3F
   35E5 FF                14490 	.db #0xFF
   35E6 00                14491 	.db #0x00
   35E7 FF                14492 	.db #0xFF
   35E8 00                14493 	.db #0x00
   35E9 FF                14494 	.db #0xFF
   35EA 00                14495 	.db #0x00
   35EB FF                14496 	.db #0xFF
   35EC 00                14497 	.db #0x00
   35ED FF                14498 	.db #0xFF
   35EE 00                14499 	.db #0x00
   35EF FF                14500 	.db #0xFF
   35F0 00                14501 	.db #0x00
   35F1 7F                14502 	.db #0x7F
   35F2 80                14503 	.db #0x80
   35F3 FF                14504 	.db #0xFF
   35F4 C0                14505 	.db #0xC0
   35F5 FF                14506 	.db #0xFF
   35F6 FC                14507 	.db #0xFC
   35F7 FF                14508 	.db #0xFF
   35F8 FC                14509 	.db #0xFC
   35F9 FF                14510 	.db #0xFF
   35FA FC                14511 	.db #0xFC
   35FB FF                14512 	.db #0xFF
   35FC FC                14513 	.db #0xFC
   35FD FF                14514 	.db #0xFF
   35FE FC                14515 	.db #0xFC
   35FF FF                14516 	.db #0xFF
   3600 FC                14517 	.db #0xFC
   3601 FF                14518 	.db #0xFF
   3602 FC                14519 	.db #0xFC
   3603 FF                14520 	.db #0xFF
   3604 FC                14521 	.db #0xFC
   3605 F7                14522 	.db #0xF7
   3606 0F                14523 	.db #0x0F
   3607 FB                14524 	.db #0xFB
   3608 07                14525 	.db #0x07
   3609 FD                14526 	.db #0xFD
   360A 03                14527 	.db #0x03
   360B FE                14528 	.db #0xFE
   360C 01                14529 	.db #0x01
   360D FF                14530 	.db #0xFF
   360E 00                14531 	.db #0x00
   360F FF                14532 	.db #0xFF
   3610 00                14533 	.db #0x00
   3611 FF                14534 	.db #0xFF
   3612 00                14535 	.db #0x00
   3613 FF                14536 	.db #0xFF
   3614 00                14537 	.db #0x00
   3615 FE                14538 	.db #0xFE
   3616 FF                14539 	.db #0xFF
   3617 FF                14540 	.db #0xFF
   3618 FF                14541 	.db #0xFF
   3619 FF                14542 	.db #0xFF
   361A FF                14543 	.db #0xFF
   361B FF                14544 	.db #0xFF
   361C FF                14545 	.db #0xFF
   361D 7F                14546 	.db #0x7F
   361E FF                14547 	.db #0xFF
   361F 80                14548 	.db #0x80
   3620 7F                14549 	.db #0x7F
   3621 FF                14550 	.db #0xFF
   3622 00                14551 	.db #0x00
   3623 FF                14552 	.db #0xFF
   3624 00                14553 	.db #0x00
   3625 FF                14554 	.db #0xFF
   3626 00                14555 	.db #0x00
   3627 7F                14556 	.db #0x7F
   3628 80                14557 	.db #0x80
   3629 BF                14558 	.db #0xBF
   362A C0                14559 	.db #0xC0
   362B DF                14560 	.db #0xDF
   362C E0                14561 	.db #0xE0
   362D EF                14562 	.db #0xEF
   362E F0                14563 	.db #0xF0
   362F 0F                14564 	.db #0x0F
   3630 F0                14565 	.db #0xF0
   3631 FF                14566 	.db #0xFF
   3632 00                14567 	.db #0x00
   3633 FF                14568 	.db #0xFF
   3634 00                14569 	.db #0x00
   3635 FF                14570 	.db #0xFF
   3636 00                14571 	.db #0x00
   3637 7F                14572 	.db #0x7F
   3638 FF                14573 	.db #0xFF
   3639 7F                14574 	.db #0x7F
   363A FF                14575 	.db #0xFF
   363B 7F                14576 	.db #0x7F
   363C FF                14577 	.db #0xFF
   363D FF                14578 	.db #0xFF
   363E 00                14579 	.db #0x00
   363F FF                14580 	.db #0xFF
   3640 00                14581 	.db #0x00
   3641 FF                14582 	.db #0xFF
   3642 00                14583 	.db #0x00
   3643 FF                14584 	.db #0xFF
   3644 00                14585 	.db #0x00
   3645 FF                14586 	.db #0xFF
   3646 00                14587 	.db #0x00
   3647 FF                14588 	.db #0xFF
   3648 FF                14589 	.db #0xFF
   3649 FF                14590 	.db #0xFF
   364A FF                14591 	.db #0xFF
   364B FF                14592 	.db #0xFF
   364C FF                14593 	.db #0xFF
   364D FF                14594 	.db #0xFF
   364E 00                14595 	.db #0x00
   364F FF                14596 	.db #0xFF
   3650 00                14597 	.db #0x00
   3651 FE                14598 	.db #0xFE
   3652 01                14599 	.db #0x01
   3653 FF                14600 	.db #0xFF
   3654 01                14601 	.db #0x01
   3655 FF                14602 	.db #0xFF
   3656 00                14603 	.db #0x00
   3657 FF                14604 	.db #0xFF
   3658 F8                14605 	.db #0xF8
   3659 FF                14606 	.db #0xFF
   365A F8                14607 	.db #0xF8
   365B F7                14608 	.db #0xF7
   365C F8                14609 	.db #0xF8
   365D 77                14610 	.db #0x77
   365E F8                14611 	.db #0xF8
   365F F7                14612 	.db #0xF7
   3660 F8                14613 	.db #0xF8
   3661 FF                14614 	.db #0xFF
   3662 F0                14615 	.db #0xF0
   3663 EF                14616 	.db #0xEF
   3664 F0                14617 	.db #0xF0
   3665 F9                14618 	.db #0xF9
   3666 1E                14619 	.db #0x1E
   3667 DF                14620 	.db #0xDF
   3668 3F                14621 	.db #0x3F
   3669 FF                14622 	.db #0xFF
   366A 3F                14623 	.db #0x3F
   366B EF                14624 	.db #0xEF
   366C 1F                14625 	.db #0x1F
   366D FE                14626 	.db #0xFE
   366E 01                14627 	.db #0x01
   366F FF                14628 	.db #0xFF
   3670 00                14629 	.db #0x00
   3671 FF                14630 	.db #0xFF
   3672 00                14631 	.db #0x00
   3673 FF                14632 	.db #0xFF
   3674 00                14633 	.db #0x00
   3675 FB                14634 	.db #0xFB
   3676 06                14635 	.db #0x06
   3677 BF                14636 	.db #0xBF
   3678 C0                14637 	.db #0xC0
   3679 F7                14638 	.db #0xF7
   367A F8                14639 	.db #0xF8
   367B FB                14640 	.db #0xFB
   367C FC                14641 	.db #0xFC
   367D FF                14642 	.db #0xFF
   367E F8                14643 	.db #0xF8
   367F D7                14644 	.db #0xD7
   3680 38                14645 	.db #0x38
   3681 FF                14646 	.db #0xFF
   3682 00                14647 	.db #0x00
   3683 FF                14648 	.db #0xFF
   3684 00                14649 	.db #0x00
   3685 FF                14650 	.db #0xFF
   3686 00                14651 	.db #0x00
   3687 FD                14652 	.db #0xFD
   3688 06                14653 	.db #0x06
   3689 F7                14654 	.db #0xF7
   368A 0F                14655 	.db #0x0F
   368B FF                14656 	.db #0xFF
   368C 0F                14657 	.db #0x0F
   368D FE                14658 	.db #0xFE
   368E 1F                14659 	.db #0x1F
   368F FF                14660 	.db #0xFF
   3690 3E                14661 	.db #0x3E
   3691 FF                14662 	.db #0xFF
   3692 7C                14663 	.db #0x7C
   3693 FB                14664 	.db #0xFB
   3694 FC                14665 	.db #0xFC
   3695 FF                14666 	.db #0xFF
   3696 00                14667 	.db #0x00
   3697 FF                14668 	.db #0xFF
   3698 00                14669 	.db #0x00
   3699 7F                14670 	.db #0x7F
   369A 80                14671 	.db #0x80
   369B 7F                14672 	.db #0x7F
   369C 80                14673 	.db #0x80
   369D FF                14674 	.db #0xFF
   369E 00                14675 	.db #0x00
   369F FF                14676 	.db #0xFF
   36A0 00                14677 	.db #0x00
   36A1 FF                14678 	.db #0xFF
   36A2 00                14679 	.db #0x00
   36A3 FF                14680 	.db #0xFF
   36A4 00                14681 	.db #0x00
   36A5 FF                14682 	.db #0xFF
   36A6 0F                14683 	.db #0x0F
   36A7 FF                14684 	.db #0xFF
   36A8 0F                14685 	.db #0x0F
   36A9 FF                14686 	.db #0xFF
   36AA 0F                14687 	.db #0x0F
   36AB FF                14688 	.db #0xFF
   36AC 0F                14689 	.db #0x0F
   36AD FF                14690 	.db #0xFF
   36AE 0F                14691 	.db #0x0F
   36AF EF                14692 	.db #0xEF
   36B0 1F                14693 	.db #0x1F
   36B1 EE                14694 	.db #0xEE
   36B2 1F                14695 	.db #0x1F
   36B3 FE                14696 	.db #0xFE
   36B4 1F                14697 	.db #0x1F
   36B5 FF                14698 	.db #0xFF
   36B6 0F                14699 	.db #0x0F
   36B7 FF                14700 	.db #0xFF
   36B8 1F                14701 	.db #0x1F
   36B9 FE                14702 	.db #0xFE
   36BA 3F                14703 	.db #0x3F
   36BB 7D                14704 	.db #0x7D
   36BC FE                14705 	.db #0xFE
   36BD FB                14706 	.db #0xFB
   36BE FC                14707 	.db #0xFC
   36BF 77                14708 	.db #0x77
   36C0 F8                14709 	.db #0xF8
   36C1 BF                14710 	.db #0xBF
   36C2 60                14711 	.db #0x60
   36C3 FF                14712 	.db #0xFF
   36C4 00                14713 	.db #0x00
   36C5 FF                14714 	.db #0xFF
   36C6 80                14715 	.db #0x80
   36C7 7F                14716 	.db #0x7F
   36C8 80                14717 	.db #0x80
   36C9 FF                14718 	.db #0xFF
   36CA 00                14719 	.db #0x00
   36CB FF                14720 	.db #0xFF
   36CC 00                14721 	.db #0x00
   36CD FF                14722 	.db #0xFF
   36CE 00                14723 	.db #0x00
   36CF FF                14724 	.db #0xFF
   36D0 00                14725 	.db #0x00
   36D1 FF                14726 	.db #0xFF
   36D2 00                14727 	.db #0x00
   36D3 FF                14728 	.db #0xFF
   36D4 00                14729 	.db #0x00
   36D5 F7                14730 	.db #0xF7
   36D6 0F                14731 	.db #0x0F
   36D7 FD                14732 	.db #0xFD
   36D8 03                14733 	.db #0x03
   36D9 FF                14734 	.db #0xFF
   36DA 00                14735 	.db #0x00
   36DB FF                14736 	.db #0xFF
   36DC 00                14737 	.db #0x00
   36DD FF                14738 	.db #0xFF
   36DE 00                14739 	.db #0x00
   36DF FF                14740 	.db #0xFF
   36E0 00                14741 	.db #0x00
   36E1 FF                14742 	.db #0xFF
   36E2 00                14743 	.db #0x00
   36E3 FF                14744 	.db #0xFF
   36E4 00                14745 	.db #0x00
   36E5 FF                14746 	.db #0xFF
   36E6 E0                14747 	.db #0xE0
   36E7 DF                14748 	.db #0xDF
   36E8 E0                14749 	.db #0xE0
   36E9 BF                14750 	.db #0xBF
   36EA C0                14751 	.db #0xC0
   36EB FF                14752 	.db #0xFF
   36EC 00                14753 	.db #0x00
   36ED FE                14754 	.db #0xFE
   36EE 01                14755 	.db #0x01
   36EF FD                14756 	.db #0xFD
   36F0 03                14757 	.db #0x03
   36F1 FB                14758 	.db #0xFB
   36F2 07                14759 	.db #0x07
   36F3 F7                14760 	.db #0xF7
   36F4 0F                14761 	.db #0x0F
   36F5 FF                14762 	.db #0xFF
   36F6 00                14763 	.db #0x00
   36F7 BF                14764 	.db #0xBF
   36F8 60                14765 	.db #0x60
   36F9 F7                14766 	.db #0xF7
   36FA 78                14767 	.db #0x78
   36FB 7F                14768 	.db #0x7F
   36FC F8                14769 	.db #0xF8
   36FD F7                14770 	.db #0xF7
   36FE F8                14771 	.db #0xF8
   36FF EF                14772 	.db #0xEF
   3700 F0                14773 	.db #0xF0
   3701 FF                14774 	.db #0xFF
   3702 E0                14775 	.db #0xE0
   3703 FF                14776 	.db #0xFF
   3704 C0                14777 	.db #0xC0
   3705 FF                14778 	.db #0xFF
   3706 03                14779 	.db #0x03
   3707 FF                14780 	.db #0xFF
   3708 03                14781 	.db #0x03
   3709 FF                14782 	.db #0xFF
   370A 03                14783 	.db #0x03
   370B FF                14784 	.db #0xFF
   370C 01                14785 	.db #0x01
   370D FF                14786 	.db #0xFF
   370E 00                14787 	.db #0x00
   370F FF                14788 	.db #0xFF
   3710 00                14789 	.db #0x00
   3711 FF                14790 	.db #0xFF
   3712 00                14791 	.db #0x00
   3713 FF                14792 	.db #0xFF
   3714 00                14793 	.db #0x00
   3715 FF                14794 	.db #0xFF
   3716 FC                14795 	.db #0xFC
   3717 FF                14796 	.db #0xFF
   3718 FC                14797 	.db #0xFC
   3719 FF                14798 	.db #0xFF
   371A FC                14799 	.db #0xFC
   371B FF                14800 	.db #0xFF
   371C FC                14801 	.db #0xFC
   371D FF                14802 	.db #0xFF
   371E FC                14803 	.db #0xFC
   371F FF                14804 	.db #0xFF
   3720 7C                14805 	.db #0x7C
   3721 FF                14806 	.db #0xFF
   3722 3C                14807 	.db #0x3C
   3723 EF                14808 	.db #0xEF
   3724 1C                14809 	.db #0x1C
   3725 FF                14810 	.db #0xFF
   3726 00                14811 	.db #0x00
   3727 FF                14812 	.db #0xFF
   3728 00                14813 	.db #0x00
   3729 FF                14814 	.db #0xFF
   372A 00                14815 	.db #0x00
   372B FC                14816 	.db #0xFC
   372C 03                14817 	.db #0x03
   372D FF                14818 	.db #0xFF
   372E 1F                14819 	.db #0x1F
   372F FF                14820 	.db #0xFF
   3730 1F                14821 	.db #0x1F
   3731 EF                14822 	.db #0xEF
   3732 1F                14823 	.db #0x1F
   3733 FF                14824 	.db #0xFF
   3734 00                14825 	.db #0x00
   3735 FD                14826 	.db #0xFD
   3736 03                14827 	.db #0x03
   3737 FF                14828 	.db #0xFF
   3738 07                14829 	.db #0x07
   3739 FF                14830 	.db #0xFF
   373A 1F                14831 	.db #0x1F
   373B FF                14832 	.db #0xFF
   373C FF                14833 	.db #0xFF
   373D FF                14834 	.db #0xFF
   373E FE                14835 	.db #0xFE
   373F FF                14836 	.db #0xFF
   3740 F8                14837 	.db #0xF8
   3741 3F                14838 	.db #0x3F
   3742 C0                14839 	.db #0xC0
   3743 FF                14840 	.db #0xFF
   3744 00                14841 	.db #0x00
   3745 FF                14842 	.db #0xFF
   3746 E0                14843 	.db #0xE0
   3747 DF                14844 	.db #0xDF
   3748 E0                14845 	.db #0xE0
   3749 BF                14846 	.db #0xBF
   374A C0                14847 	.db #0xC0
   374B 7F                14848 	.db #0x7F
   374C 80                14849 	.db #0x80
   374D FF                14850 	.db #0xFF
   374E 00                14851 	.db #0x00
   374F FF                14852 	.db #0xFF
   3750 00                14853 	.db #0x00
   3751 FF                14854 	.db #0xFF
   3752 00                14855 	.db #0x00
   3753 FF                14856 	.db #0xFF
   3754 00                14857 	.db #0x00
   3755 FF                14858 	.db #0xFF
   3756 00                14859 	.db #0x00
   3757 FF                14860 	.db #0xFF
   3758 00                14861 	.db #0x00
   3759 FF                14862 	.db #0xFF
   375A 00                14863 	.db #0x00
   375B F9                14864 	.db #0xF9
   375C 07                14865 	.db #0x07
   375D FF                14866 	.db #0xFF
   375E 1F                14867 	.db #0x1F
   375F EF                14868 	.db #0xEF
   3760 1F                14869 	.db #0x1F
   3761 FE                14870 	.db #0xFE
   3762 0F                14871 	.db #0x0F
   3763 FF                14872 	.db #0xFF
   3764 00                14873 	.db #0x00
   3765 FD                14874 	.db #0xFD
   3766 03                14875 	.db #0x03
   3767 F7                14876 	.db #0xF7
   3768 0F                14877 	.db #0x0F
   3769 BF                14878 	.db #0xBF
   376A 7F                14879 	.db #0x7F
   376B FF                14880 	.db #0xFF
   376C FF                14881 	.db #0xFF
   376D FD                14882 	.db #0xFD
   376E FE                14883 	.db #0xFE
   376F EF                14884 	.db #0xEF
   3770 F0                14885 	.db #0xF0
   3771 7F                14886 	.db #0x7F
   3772 80                14887 	.db #0x80
   3773 FF                14888 	.db #0xFF
   3774 00                14889 	.db #0x00
   3775 F7                14890 	.db #0xF7
   3776 F8                14891 	.db #0xF8
   3777 EF                14892 	.db #0xEF
   3778 F0                14893 	.db #0xF0
   3779 FF                14894 	.db #0xFF
   377A C0                14895 	.db #0xC0
   377B 7F                14896 	.db #0x7F
   377C 80                14897 	.db #0x80
   377D FF                14898 	.db #0xFF
   377E 00                14899 	.db #0x00
   377F FF                14900 	.db #0xFF
   3780 00                14901 	.db #0x00
   3781 FF                14902 	.db #0xFF
   3782 00                14903 	.db #0x00
   3783 FF                14904 	.db #0xFF
   3784 00                14905 	.db #0x00
   3785 FF                14906 	.db #0xFF
   3786 00                14907 	.db #0x00
   3787 FF                14908 	.db #0xFF
   3788 00                14909 	.db #0x00
   3789 FE                14910 	.db #0xFE
   378A 01                14911 	.db #0x01
   378B FB                14912 	.db #0xFB
   378C 07                14913 	.db #0x07
   378D F7                14914 	.db #0xF7
   378E 0F                14915 	.db #0x0F
   378F FF                14916 	.db #0xFF
   3790 07                14917 	.db #0x07
   3791 FA                14918 	.db #0xFA
   3792 07                14919 	.db #0x07
   3793 FF                14920 	.db #0xFF
   3794 00                14921 	.db #0x00
   3795 FF                14922 	.db #0xFF
   3796 3E                14923 	.db #0x3E
   3797 BD                14924 	.db #0xBD
   3798 7E                14925 	.db #0x7E
   3799 FB                14926 	.db #0xFB
   379A FC                14927 	.db #0xFC
   379B F7                14928 	.db #0xF7
   379C F8                14929 	.db #0xF8
   379D EF                14930 	.db #0xEF
   379E F0                14931 	.db #0xF0
   379F FF                14932 	.db #0xFF
   37A0 C0                14933 	.db #0xC0
   37A1 FF                14934 	.db #0xFF
   37A2 00                14935 	.db #0x00
   37A3 FF                14936 	.db #0xFF
   37A4 00                14937 	.db #0x00
   37A5 FF                14938 	.db #0xFF
   37A6 00                14939 	.db #0x00
   37A7 FF                14940 	.db #0xFF
   37A8 00                14941 	.db #0x00
   37A9 FF                14942 	.db #0xFF
   37AA 00                14943 	.db #0x00
   37AB FF                14944 	.db #0xFF
   37AC 00                14945 	.db #0x00
   37AD FE                14946 	.db #0xFE
   37AE 01                14947 	.db #0x01
   37AF FF                14948 	.db #0xFF
   37B0 00                14949 	.db #0x00
   37B1 FF                14950 	.db #0xFF
   37B2 00                14951 	.db #0x00
   37B3 FF                14952 	.db #0xFF
   37B4 00                14953 	.db #0x00
   37B5 FF                14954 	.db #0xFF
   37B6 00                14955 	.db #0x00
   37B7 FF                14956 	.db #0xFF
   37B8 00                14957 	.db #0x00
   37B9 FD                14958 	.db #0xFD
   37BA 03                14959 	.db #0x03
   37BB CF                14960 	.db #0xCF
   37BC 3F                14961 	.db #0x3F
   37BD FF                14962 	.db #0xFF
   37BE FF                14963 	.db #0xFF
   37BF FF                14964 	.db #0xFF
   37C0 FF                14965 	.db #0xFF
   37C1 F3                14966 	.db #0xF3
   37C2 FC                14967 	.db #0xFC
   37C3 FF                14968 	.db #0xFF
   37C4 00                14969 	.db #0x00
   37C5 FF                14970 	.db #0xFF
   37C6 1F                14971 	.db #0x1F
   37C7 BF                14972 	.db #0xBF
   37C8 7F                14973 	.db #0x7F
   37C9 FD                14974 	.db #0xFD
   37CA FE                14975 	.db #0xFE
   37CB FF                14976 	.db #0xFF
   37CC F8                14977 	.db #0xF8
   37CD EF                14978 	.db #0xEF
   37CE F0                14979 	.db #0xF0
   37CF 7F                14980 	.db #0x7F
   37D0 80                14981 	.db #0x80
   37D1 FF                14982 	.db #0xFF
   37D2 00                14983 	.db #0x00
   37D3 FF                14984 	.db #0xFF
   37D4 00                14985 	.db #0x00
   37D5 FF                14986 	.db #0xFF
   37D6 80                14987 	.db #0x80
   37D7 FF                14988 	.db #0xFF
   37D8 00                14989 	.db #0x00
   37D9 FF                14990 	.db #0xFF
   37DA 00                14991 	.db #0x00
   37DB FF                14992 	.db #0xFF
   37DC 00                14993 	.db #0x00
   37DD FF                14994 	.db #0xFF
   37DE 00                14995 	.db #0x00
   37DF FF                14996 	.db #0xFF
   37E0 00                14997 	.db #0x00
   37E1 FF                14998 	.db #0xFF
   37E2 00                14999 	.db #0x00
   37E3 FF                15000 	.db #0xFF
   37E4 00                15001 	.db #0x00
   37E5 F7                15002 	.db #0xF7
   37E6 0C                15003 	.db #0x0C
   37E7 FB                15004 	.db #0xFB
   37E8 04                15005 	.db #0x04
   37E9 FF                15006 	.db #0xFF
   37EA 00                15007 	.db #0x00
   37EB FF                15008 	.db #0xFF
   37EC 00                15009 	.db #0x00
   37ED FF                15010 	.db #0xFF
   37EE 00                15011 	.db #0x00
   37EF FF                15012 	.db #0xFF
   37F0 00                15013 	.db #0x00
   37F1 FF                15014 	.db #0xFF
   37F2 00                15015 	.db #0x00
   37F3 FF                15016 	.db #0xFF
   37F4 00                15017 	.db #0x00
   37F5 FF                15018 	.db #0xFF
   37F6 00                15019 	.db #0x00
   37F7 FF                15020 	.db #0xFF
   37F8 00                15021 	.db #0x00
   37F9 00                15022 	.db #0x00
   37FA 00                15023 	.db #0x00
   37FB 00                15024 	.db #0x00
   37FC 00                15025 	.db #0x00
   37FD 00                15026 	.db #0x00
   37FE 00                15027 	.db #0x00
   37FF 00                15028 	.db #0x00
   3800 00                15029 	.db #0x00
   3801 00                15030 	.db #0x00
   3802 00                15031 	.db #0x00
   3803 00                15032 	.db #0x00
   3804 00                15033 	.db #0x00
   3805 FF                15034 	.db #0xFF
   3806 00                15035 	.db #0x00
   3807 FF                15036 	.db #0xFF
   3808 00                15037 	.db #0x00
   3809 00                15038 	.db #0x00
   380A 00                15039 	.db #0x00
   380B 00                15040 	.db #0x00
   380C 00                15041 	.db #0x00
   380D 00                15042 	.db #0x00
   380E 00                15043 	.db #0x00
   380F 00                15044 	.db #0x00
   3810 00                15045 	.db #0x00
   3811 00                15046 	.db #0x00
   3812 00                15047 	.db #0x00
   3813 07                15048 	.db #0x07
   3814 00                15049 	.db #0x00
   3815 FF                15050 	.db #0xFF
   3816 00                15051 	.db #0x00
   3817 FF                15052 	.db #0xFF
   3818 00                15053 	.db #0x00
   3819 00                15054 	.db #0x00
   381A 00                15055 	.db #0x00
   381B 00                15056 	.db #0x00
   381C 00                15057 	.db #0x00
   381D 00                15058 	.db #0x00
   381E 00                15059 	.db #0x00
   381F 00                15060 	.db #0x00
   3820 00                15061 	.db #0x00
   3821 00                15062 	.db #0x00
   3822 00                15063 	.db #0x00
   3823 E0                15064 	.db #0xE0
   3824 00                15065 	.db #0x00
   3825 FF                15066 	.db #0xFF
   3826 00                15067 	.db #0x00
   3827 FF                15068 	.db #0xFF
   3828 00                15069 	.db #0x00
   3829 00                15070 	.db #0x00
   382A 00                15071 	.db #0x00
   382B 00                15072 	.db #0x00
   382C 00                15073 	.db #0x00
   382D 00                15074 	.db #0x00
   382E 00                15075 	.db #0x00
   382F 00                15076 	.db #0x00
   3830 00                15077 	.db #0x00
   3831 00                15078 	.db #0x00
   3832 00                15079 	.db #0x00
   3833 3F                15080 	.db #0x3F
   3834 00                15081 	.db #0x00
   3835 FF                15082 	.db #0xFF
   3836 00                15083 	.db #0x00
   3837 FF                15084 	.db #0xFF
   3838 00                15085 	.db #0x00
   3839 00                15086 	.db #0x00
   383A 00                15087 	.db #0x00
   383B 00                15088 	.db #0x00
   383C 00                15089 	.db #0x00
   383D 00                15090 	.db #0x00
   383E 00                15091 	.db #0x00
   383F 00                15092 	.db #0x00
   3840 00                15093 	.db #0x00
   3841 00                15094 	.db #0x00
   3842 00                15095 	.db #0x00
   3843 03                15096 	.db #0x03
   3844 00                15097 	.db #0x00
   3845 FF                15098 	.db #0xFF
   3846 00                15099 	.db #0x00
   3847 FF                15100 	.db #0xFF
   3848 00                15101 	.db #0x00
   3849 00                15102 	.db #0x00
   384A 00                15103 	.db #0x00
   384B 00                15104 	.db #0x00
   384C 00                15105 	.db #0x00
   384D 00                15106 	.db #0x00
   384E 00                15107 	.db #0x00
   384F 00                15108 	.db #0x00
   3850 00                15109 	.db #0x00
   3851 00                15110 	.db #0x00
   3852 00                15111 	.db #0x00
   3853 FE                15112 	.db #0xFE
   3854 00                15113 	.db #0x00
   3855 FF                15114 	.db #0xFF
   3856 00                15115 	.db #0x00
   3857 FF                15116 	.db #0xFF
   3858 00                15117 	.db #0x00
   3859 00                15118 	.db #0x00
   385A 00                15119 	.db #0x00
   385B 00                15120 	.db #0x00
   385C 00                15121 	.db #0x00
   385D 00                15122 	.db #0x00
   385E 00                15123 	.db #0x00
   385F 00                15124 	.db #0x00
   3860 00                15125 	.db #0x00
   3861 00                15126 	.db #0x00
   3862 00                15127 	.db #0x00
   3863 18                15128 	.db #0x18
   3864 07                15129 	.db #0x07
   3865 FF                15130 	.db #0xFF
   3866 00                15131 	.db #0x00
   3867 FF                15132 	.db #0xFF
   3868 00                15133 	.db #0x00
   3869 00                15134 	.db #0x00
   386A 00                15135 	.db #0x00
   386B 00                15136 	.db #0x00
   386C 00                15137 	.db #0x00
   386D 00                15138 	.db #0x00
   386E 00                15139 	.db #0x00
   386F 00                15140 	.db #0x00
   3870 00                15141 	.db #0x00
   3871 00                15142 	.db #0x00
   3872 00                15143 	.db #0x00
   3873 81                15144 	.db #0x81
   3874 00                15145 	.db #0x00
   3875 FF                15146 	.db #0xFF
   3876 00                15147 	.db #0x00
   3877 FF                15148 	.db #0xFF
   3878 00                15149 	.db #0x00
   3879 00                15150 	.db #0x00
   387A 00                15151 	.db #0x00
   387B 00                15152 	.db #0x00
   387C 00                15153 	.db #0x00
   387D 00                15154 	.db #0x00
   387E 00                15155 	.db #0x00
   387F 00                15156 	.db #0x00
   3880 00                15157 	.db #0x00
   3881 00                15158 	.db #0x00
   3882 00                15159 	.db #0x00
   3883 88                15160 	.db #0x88
   3884 70                15161 	.db #0x70
   3885 FF                15162 	.db #0xFF
   3886 00                15163 	.db #0x00
   3887 FF                15164 	.db #0xFF
   3888 00                15165 	.db #0x00
   3889 00                15166 	.db #0x00
   388A 00                15167 	.db #0x00
   388B 00                15168 	.db #0x00
   388C 00                15169 	.db #0x00
   388D 00                15170 	.db #0x00
   388E 00                15171 	.db #0x00
   388F 00                15172 	.db #0x00
   3890 00                15173 	.db #0x00
   3891 00                15174 	.db #0x00
   3892 00                15175 	.db #0x00
   3893 62                15176 	.db #0x62
   3894 1C                15177 	.db #0x1C
   3895 FF                15178 	.db #0xFF
   3896 00                15179 	.db #0x00
   3897 FF                15180 	.db #0xFF
   3898 00                15181 	.db #0x00
   3899 00                15182 	.db #0x00
   389A 00                15183 	.db #0x00
   389B 00                15184 	.db #0x00
   389C 00                15185 	.db #0x00
   389D 00                15186 	.db #0x00
   389E 00                15187 	.db #0x00
   389F 00                15188 	.db #0x00
   38A0 00                15189 	.db #0x00
   38A1 00                15190 	.db #0x00
   38A2 00                15191 	.db #0x00
   38A3 1F                15192 	.db #0x1F
   38A4 00                15193 	.db #0x00
   38A5 FF                15194 	.db #0xFF
   38A6 00                15195 	.db #0x00
   38A7 FF                15196 	.db #0xFF
   38A8 00                15197 	.db #0x00
   38A9 00                15198 	.db #0x00
   38AA 00                15199 	.db #0x00
   38AB 00                15200 	.db #0x00
   38AC 00                15201 	.db #0x00
   38AD 00                15202 	.db #0x00
   38AE 00                15203 	.db #0x00
   38AF 00                15204 	.db #0x00
   38B0 00                15205 	.db #0x00
   38B1 00                15206 	.db #0x00
   38B2 00                15207 	.db #0x00
   38B3 FC                15208 	.db #0xFC
   38B4 00                15209 	.db #0x00
   38B5 FF                15210 	.db #0xFF
   38B6 00                15211 	.db #0x00
   38B7 FF                15212 	.db #0xFF
   38B8 00                15213 	.db #0x00
   38B9 00                15214 	.db #0x00
   38BA 00                15215 	.db #0x00
   38BB 00                15216 	.db #0x00
   38BC 00                15217 	.db #0x00
   38BD 00                15218 	.db #0x00
   38BE 00                15219 	.db #0x00
   38BF 00                15220 	.db #0x00
   38C0 00                15221 	.db #0x00
   38C1 00                15222 	.db #0x00
   38C2 00                15223 	.db #0x00
   38C3 14                15224 	.db #0x14
   38C4 08                15225 	.db #0x08
   38C5 FF                15226 	.db #0xFF
   38C6 00                15227 	.db #0x00
   38C7 FF                15228 	.db #0xFF
   38C8 00                15229 	.db #0x00
   38C9 00                15230 	.db #0x00
   38CA 00                15231 	.db #0x00
   38CB 00                15232 	.db #0x00
   38CC 00                15233 	.db #0x00
   38CD 00                15234 	.db #0x00
   38CE 00                15235 	.db #0x00
   38CF 00                15236 	.db #0x00
   38D0 00                15237 	.db #0x00
   38D1 00                15238 	.db #0x00
   38D2 00                15239 	.db #0x00
   38D3 F0                15240 	.db #0xF0
   38D4 00                15241 	.db #0x00
   38D5 FF                15242 	.db #0xFF
   38D6 00                15243 	.db #0x00
   38D7 FF                15244 	.db #0xFF
   38D8 00                15245 	.db #0x00
   38D9 00                15246 	.db #0x00
   38DA 00                15247 	.db #0x00
   38DB 00                15248 	.db #0x00
   38DC 00                15249 	.db #0x00
   38DD 00                15250 	.db #0x00
   38DE 00                15251 	.db #0x00
   38DF 00                15252 	.db #0x00
   38E0 00                15253 	.db #0x00
   38E1 00                15254 	.db #0x00
   38E2 00                15255 	.db #0x00
   38E3 7F                15256 	.db #0x7F
   38E4 00                15257 	.db #0x00
   38E5 0F                15258 	.db #0x0F
   38E6 0F                15259 	.db #0x0F
   38E7 1C                15260 	.db #0x1C
   38E8 0F                15261 	.db #0x0F
   38E9 1C                15262 	.db #0x1C
   38EA 0C                15263 	.db #0x0C
   38EB 1C                15264 	.db #0x1C
   38EC 0C                15265 	.db #0x0C
   38ED 1C                15266 	.db #0x1C
   38EE 0C                15267 	.db #0x0C
   38EF 1F                15268 	.db #0x1F
   38F0 0C                15269 	.db #0x0C
   38F1 1F                15270 	.db #0x1F
   38F2 0F                15271 	.db #0x0F
   38F3 1C                15272 	.db #0x1C
   38F4 0F                15273 	.db #0x0F
   38F5 F8                15274 	.db #0xF8
   38F6 F0                15275 	.db #0xF0
   38F7 3C                15276 	.db #0x3C
   38F8 F8                15277 	.db #0xF8
   38F9 18                15278 	.db #0x18
   38FA 1C                15279 	.db #0x1C
   38FB 0C                15280 	.db #0x0C
   38FC 1C                15281 	.db #0x1C
   38FD 0C                15282 	.db #0x0C
   38FE 1C                15283 	.db #0x1C
   38FF D8                15284 	.db #0xD8
   3900 3C                15285 	.db #0x3C
   3901 F0                15286 	.db #0xF0
   3902 F8                15287 	.db #0xF8
   3903 10                15288 	.db #0x10
   3904 E0                15289 	.db #0xE0
   3905 7F                15290 	.db #0x7F
   3906 7F                15291 	.db #0x7F
   3907 ED                15292 	.db #0xED
   3908 73                15293 	.db #0x73
   3909 E0                15294 	.db #0xE0
   390A 60                15295 	.db #0x60
   390B E0                15296 	.db #0xE0
   390C 60                15297 	.db #0x60
   390D E1                15298 	.db #0xE1
   390E 60                15299 	.db #0x60
   390F E3                15300 	.db #0xE3
   3910 7F                15301 	.db #0x7F
   3911 FF                15302 	.db #0xFF
   3912 7F                15303 	.db #0x7F
   3913 FB                15304 	.db #0xFB
   3914 67                15305 	.db #0x67
   3915 87                15306 	.db #0x87
   3916 C3                15307 	.db #0xC3
   3917 E7                15308 	.db #0xE7
   3918 C3                15309 	.db #0xC3
   3919 E7                15310 	.db #0xE7
   391A E3                15311 	.db #0xE3
   391B 67                15312 	.db #0x67
   391C E3                15313 	.db #0xE3
   391D C7                15314 	.db #0xC7
   391E E3                15315 	.db #0xE3
   391F E7                15316 	.db #0xE7
   3920 C3                15317 	.db #0xC3
   3921 47                15318 	.db #0x47
   3922 83                15319 	.db #0x83
   3923 87                15320 	.db #0x87
   3924 03                15321 	.db #0x03
   3925 FF                15322 	.db #0xFF
   3926 FE                15323 	.db #0xFE
   3927 00                15324 	.db #0x00
   3928 FE                15325 	.db #0xFE
   3929 00                15326 	.db #0x00
   392A 00                15327 	.db #0x00
   392B 00                15328 	.db #0x00
   392C 00                15329 	.db #0x00
   392D 00                15330 	.db #0x00
   392E 00                15331 	.db #0x00
   392F FE                15332 	.db #0xFE
   3930 FC                15333 	.db #0xFC
   3931 FE                15334 	.db #0xFE
   3932 FC                15335 	.db #0xFC
   3933 00                15336 	.db #0x00
   3934 00                15337 	.db #0x00
   3935 1F                15338 	.db #0x1F
   3936 3F                15339 	.db #0x3F
   3937 76                15340 	.db #0x76
   3938 39                15341 	.db #0x39
   3939 20                15342 	.db #0x20
   393A 70                15343 	.db #0x70
   393B 30                15344 	.db #0x30
   393C 70                15345 	.db #0x70
   393D 7C                15346 	.db #0x7C
   393E 38                15347 	.db #0x38
   393F 1F                15348 	.db #0x1F
   3940 3F                15349 	.db #0x3F
   3941 07                15350 	.db #0x07
   3942 0F                15351 	.db #0x0F
   3943 02                15352 	.db #0x02
   3944 01                15353 	.db #0x01
   3945 81                15354 	.db #0x81
   3946 C3                15355 	.db #0xC3
   3947 E7                15356 	.db #0xE7
   3948 C3                15357 	.db #0xC3
   3949 A2                15358 	.db #0xA2
   394A 47                15359 	.db #0x47
   394B 03                15360 	.db #0x03
   394C 07                15361 	.db #0x07
   394D 07                15362 	.db #0x07
   394E 03                15363 	.db #0x03
   394F 81                15364 	.db #0x81
   3950 03                15365 	.db #0x03
   3951 E0                15366 	.db #0xE0
   3952 C0                15367 	.db #0xC0
   3953 E0                15368 	.db #0xE0
   3954 E0                15369 	.db #0xE0
   3955 F8                15370 	.db #0xF8
   3956 FC                15371 	.db #0xFC
   3957 6E                15372 	.db #0x6E
   3958 9C                15373 	.db #0x9C
   3959 0A                15374 	.db #0x0A
   395A 04                15375 	.db #0x04
   395B 00                15376 	.db #0x00
   395C 00                15377 	.db #0x00
   395D C0                15378 	.db #0xC0
   395E 80                15379 	.db #0x80
   395F F8                15380 	.db #0xF8
   3960 F0                15381 	.db #0xF0
   3961 7E                15382 	.db #0x7E
   3962 FC                15383 	.db #0xFC
   3963 2E                15384 	.db #0x2E
   3964 1E                15385 	.db #0x1E
   3965 00                15386 	.db #0x00
   3966 00                15387 	.db #0x00
   3967 01                15388 	.db #0x01
   3968 00                15389 	.db #0x00
   3969 00                15390 	.db #0x00
   396A 01                15391 	.db #0x01
   396B 00                15392 	.db #0x00
   396C 01                15393 	.db #0x01
   396D 01                15394 	.db #0x01
   396E 00                15395 	.db #0x00
   396F 00                15396 	.db #0x00
   3970 00                15397 	.db #0x00
   3971 00                15398 	.db #0x00
   3972 00                15399 	.db #0x00
   3973 00                15400 	.db #0x00
   3974 00                15401 	.db #0x00
   3975 7E                15402 	.db #0x7E
   3976 FF                15403 	.db #0xFF
   3977 DB                15404 	.db #0xDB
   3978 E7                15405 	.db #0xE7
   3979 82                15406 	.db #0x82
   397A C1                15407 	.db #0xC1
   397B C0                15408 	.db #0xC0
   397C C0                15409 	.db #0xC0
   397D F0                15410 	.db #0xF0
   397E E0                15411 	.db #0xE0
   397F 7E                15412 	.db #0x7E
   3980 FC                15413 	.db #0xFC
   3981 1F                15414 	.db #0x1F
   3982 3F                15415 	.db #0x3F
   3983 0B                15416 	.db #0x0B
   3984 07                15417 	.db #0x07
   3985 1F                15418 	.db #0x1F
   3986 3F                15419 	.db #0x3F
   3987 A1                15420 	.db #0xA1
   3988 1F                15421 	.db #0x1F
   3989 81                15422 	.db #0x81
   398A 01                15423 	.db #0x01
   398B 01                15424 	.db #0x01
   398C 01                15425 	.db #0x01
   398D 01                15426 	.db #0x01
   398E 01                15427 	.db #0x01
   398F 01                15428 	.db #0x01
   3990 01                15429 	.db #0x01
   3991 81                15430 	.db #0x81
   3992 01                15431 	.db #0x01
   3993 81                15432 	.db #0x81
   3994 81                15433 	.db #0x81
   3995 FC                15434 	.db #0xFC
   3996 FC                15435 	.db #0xFC
   3997 C0                15436 	.db #0xC0
   3998 FC                15437 	.db #0xFC
   3999 C0                15438 	.db #0xC0
   399A 80                15439 	.db #0x80
   399B C0                15440 	.db #0xC0
   399C 80                15441 	.db #0x80
   399D C0                15442 	.db #0xC0
   399E 80                15443 	.db #0x80
   399F C0                15444 	.db #0xC0
   39A0 80                15445 	.db #0x80
   39A1 C0                15446 	.db #0xC0
   39A2 80                15447 	.db #0x80
   39A3 C0                15448 	.db #0xC0
   39A4 80                15449 	.db #0x80
   39A5 3E                15450 	.db #0x3E
   39A6 1C                15451 	.db #0x1C
   39A7 1C                15452 	.db #0x1C
   39A8 3E                15453 	.db #0x3E
   39A9 3E                15454 	.db #0x3E
   39AA 36                15455 	.db #0x36
   39AB 77                15456 	.db #0x77
   39AC 36                15457 	.db #0x36
   39AD 23                15458 	.db #0x23
   39AE 77                15459 	.db #0x77
   39AF F7                15460 	.db #0xF7
   39B0 63                15461 	.db #0x63
   39B1 63                15462 	.db #0x63
   39B2 E3                15463 	.db #0xE3
   39B3 E3                15464 	.db #0xE3
   39B4 FF                15465 	.db #0xFF
   39B5 07                15466 	.db #0x07
   39B6 07                15467 	.db #0x07
   39B7 0E                15468 	.db #0x0E
   39B8 07                15469 	.db #0x07
   39B9 0E                15470 	.db #0x0E
   39BA 06                15471 	.db #0x06
   39BB 0E                15472 	.db #0x0E
   39BC 06                15473 	.db #0x06
   39BD 0E                15474 	.db #0x0E
   39BE 06                15475 	.db #0x06
   39BF 8E                15476 	.db #0x8E
   39C0 07                15477 	.db #0x07
   39C1 0F                15478 	.db #0x0F
   39C2 87                15479 	.db #0x87
   39C3 8F                15480 	.db #0x8F
   39C4 86                15481 	.db #0x86
   39C5 F8                15482 	.db #0xF8
   39C6 FC                15483 	.db #0xFC
   39C7 DE                15484 	.db #0xDE
   39C8 3C                15485 	.db #0x3C
   39C9 0E                15486 	.db #0x0E
   39CA 0E                15487 	.db #0x0E
   39CB 06                15488 	.db #0x06
   39CC 0E                15489 	.db #0x0E
   39CD 1C                15490 	.db #0x1C
   39CE 0E                15491 	.db #0x0E
   39CF 3E                15492 	.db #0x3E
   39D0 FC                15493 	.db #0xFC
   39D1 F4                15494 	.db #0xF4
   39D2 F8                15495 	.db #0xF8
   39D3 B8                15496 	.db #0xB8
   39D4 70                15497 	.db #0x70
   39D5 7F                15498 	.db #0x7F
   39D6 FF                15499 	.db #0xFF
   39D7 87                15500 	.db #0x87
   39D8 7F                15501 	.db #0x7F
   39D9 07                15502 	.db #0x07
   39DA 06                15503 	.db #0x06
   39DB 07                15504 	.db #0x07
   39DC 06                15505 	.db #0x06
   39DD 07                15506 	.db #0x07
   39DE 06                15507 	.db #0x06
   39DF 07                15508 	.db #0x07
   39E0 06                15509 	.db #0x06
   39E1 07                15510 	.db #0x07
   39E2 06                15511 	.db #0x06
   39E3 07                15512 	.db #0x07
   39E4 06                15513 	.db #0x06
   39E5 F0                15514 	.db #0xF0
   39E6 F0                15515 	.db #0xF0
   39E7 00                15516 	.db #0x00
   39E8 F0                15517 	.db #0xF0
   39E9 00                15518 	.db #0x00
   39EA 00                15519 	.db #0x00
   39EB 00                15520 	.db #0x00
   39EC 00                15521 	.db #0x00
   39ED 00                15522 	.db #0x00
   39EE 00                15523 	.db #0x00
   39EF 00                15524 	.db #0x00
   39F0 00                15525 	.db #0x00
   39F1 00                15526 	.db #0x00
   39F2 00                15527 	.db #0x00
   39F3 00                15528 	.db #0x00
   39F4 00                15529 	.db #0x00
   39F5 1C                15530 	.db #0x1C
   39F6 0C                15531 	.db #0x0C
   39F7 1C                15532 	.db #0x1C
   39F8 0C                15533 	.db #0x0C
   39F9 1C                15534 	.db #0x1C
   39FA 0C                15535 	.db #0x0C
   39FB 1C                15536 	.db #0x1C
   39FC 0C                15537 	.db #0x0C
   39FD 08                15538 	.db #0x08
   39FE 0C                15539 	.db #0x0C
   39FF 00                15540 	.db #0x00
   3A00 00                15541 	.db #0x00
   3A01 00                15542 	.db #0x00
   3A02 00                15543 	.db #0x00
   3A03 00                15544 	.db #0x00
   3A04 00                15545 	.db #0x00
   3A05 E1                15546 	.db #0xE1
   3A06 63                15547 	.db #0x63
   3A07 E1                15548 	.db #0xE1
   3A08 61                15549 	.db #0x61
   3A09 E1                15550 	.db #0xE1
   3A0A 60                15551 	.db #0x60
   3A0B E0                15552 	.db #0xE0
   3A0C 60                15553 	.db #0x60
   3A0D 40                15554 	.db #0x40
   3A0E 60                15555 	.db #0x60
   3A0F 00                15556 	.db #0x00
   3A10 00                15557 	.db #0x00
   3A11 00                15558 	.db #0x00
   3A12 00                15559 	.db #0x00
   3A13 00                15560 	.db #0x00
   3A14 00                15561 	.db #0x00
   3A15 C7                15562 	.db #0xC7
   3A16 83                15563 	.db #0x83
   3A17 87                15564 	.db #0x87
   3A18 C3                15565 	.db #0xC3
   3A19 C7                15566 	.db #0xC7
   3A1A E3                15567 	.db #0xE3
   3A1B 77                15568 	.db #0x77
   3A1C E3                15569 	.db #0xE3
   3A1D 32                15570 	.db #0x32
   3A1E 61                15571 	.db #0x61
   3A1F 00                15572 	.db #0x00
   3A20 00                15573 	.db #0x00
   3A21 00                15574 	.db #0x00
   3A22 00                15575 	.db #0x00
   3A23 00                15576 	.db #0x00
   3A24 00                15577 	.db #0x00
   3A25 00                15578 	.db #0x00
   3A26 00                15579 	.db #0x00
   3A27 00                15580 	.db #0x00
   3A28 00                15581 	.db #0x00
   3A29 FE                15582 	.db #0xFE
   3A2A 00                15583 	.db #0x00
   3A2B FF                15584 	.db #0xFF
   3A2C FE                15585 	.db #0xFE
   3A2D 01                15586 	.db #0x01
   3A2E FE                15587 	.db #0xFE
   3A2F 00                15588 	.db #0x00
   3A30 00                15589 	.db #0x00
   3A31 00                15590 	.db #0x00
   3A32 00                15591 	.db #0x00
   3A33 00                15592 	.db #0x00
   3A34 00                15593 	.db #0x00
   3A35 00                15594 	.db #0x00
   3A36 00                15595 	.db #0x00
   3A37 00                15596 	.db #0x00
   3A38 60                15597 	.db #0x60
   3A39 79                15598 	.db #0x79
   3A3A 70                15599 	.db #0x70
   3A3B 7F                15600 	.db #0x7F
   3A3C 3F                15601 	.db #0x3F
   3A3D 0F                15602 	.db #0x0F
   3A3E 1F                15603 	.db #0x1F
   3A3F 00                15604 	.db #0x00
   3A40 00                15605 	.db #0x00
   3A41 00                15606 	.db #0x00
   3A42 00                15607 	.db #0x00
   3A43 00                15608 	.db #0x00
   3A44 00                15609 	.db #0x00
   3A45 F0                15610 	.db #0xF0
   3A46 60                15611 	.db #0x60
   3A47 F0                15612 	.db #0xF0
   3A48 66                15613 	.db #0x66
   3A49 67                15614 	.db #0x67
   3A4A E7                15615 	.db #0xE7
   3A4B E7                15616 	.db #0xE7
   3A4C C3                15617 	.db #0xC3
   3A4D 40                15618 	.db #0x40
   3A4E 81                15619 	.db #0x81
   3A4F 00                15620 	.db #0x00
   3A50 00                15621 	.db #0x00
   3A51 00                15622 	.db #0x00
   3A52 00                15623 	.db #0x00
   3A53 00                15624 	.db #0x00
   3A54 00                15625 	.db #0x00
   3A55 0F                15626 	.db #0x0F
   3A56 06                15627 	.db #0x06
   3A57 0F                15628 	.db #0x0F
   3A58 06                15629 	.db #0x06
   3A59 96                15630 	.db #0x96
   3A5A 0E                15631 	.db #0x0E
   3A5B FE                15632 	.db #0xFE
   3A5C FC                15633 	.db #0xFC
   3A5D F4                15634 	.db #0xF4
   3A5E F8                15635 	.db #0xF8
   3A5F 00                15636 	.db #0x00
   3A60 00                15637 	.db #0x00
   3A61 00                15638 	.db #0x00
   3A62 00                15639 	.db #0x00
   3A63 00                15640 	.db #0x00
   3A64 00                15641 	.db #0x00
   3A65 00                15642 	.db #0x00
   3A66 00                15643 	.db #0x00
   3A67 00                15644 	.db #0x00
   3A68 01                15645 	.db #0x01
   3A69 01                15646 	.db #0x01
   3A6A 01                15647 	.db #0x01
   3A6B 01                15648 	.db #0x01
   3A6C 00                15649 	.db #0x00
   3A6D 00                15650 	.db #0x00
   3A6E 00                15651 	.db #0x00
   3A6F 00                15652 	.db #0x00
   3A70 00                15653 	.db #0x00
   3A71 00                15654 	.db #0x00
   3A72 00                15655 	.db #0x00
   3A73 00                15656 	.db #0x00
   3A74 00                15657 	.db #0x00
   3A75 03                15658 	.db #0x03
   3A76 01                15659 	.db #0x01
   3A77 03                15660 	.db #0x03
   3A78 81                15661 	.db #0x81
   3A79 E5                15662 	.db #0xE5
   3A7A C3                15663 	.db #0xC3
   3A7B FF                15664 	.db #0xFF
   3A7C FF                15665 	.db #0xFF
   3A7D 3D                15666 	.db #0x3D
   3A7E 7E                15667 	.db #0x7E
   3A7F 00                15668 	.db #0x00
   3A80 00                15669 	.db #0x00
   3A81 00                15670 	.db #0x00
   3A82 00                15671 	.db #0x00
   3A83 00                15672 	.db #0x00
   3A84 00                15673 	.db #0x00
   3A85 C1                15674 	.db #0xC1
   3A86 81                15675 	.db #0x81
   3A87 C1                15676 	.db #0xC1
   3A88 81                15677 	.db #0x81
   3A89 81                15678 	.db #0x81
   3A8A 81                15679 	.db #0x81
   3A8B 81                15680 	.db #0x81
   3A8C 01                15681 	.db #0x01
   3A8D 00                15682 	.db #0x00
   3A8E 01                15683 	.db #0x01
   3A8F 00                15684 	.db #0x00
   3A90 00                15685 	.db #0x00
   3A91 00                15686 	.db #0x00
   3A92 00                15687 	.db #0x00
   3A93 00                15688 	.db #0x00
   3A94 00                15689 	.db #0x00
   3A95 C1                15690 	.db #0xC1
   3A96 80                15691 	.db #0x80
   3A97 C0                15692 	.db #0xC0
   3A98 81                15693 	.db #0x81
   3A99 C3                15694 	.db #0xC3
   3A9A 81                15695 	.db #0x81
   3A9B C1                15696 	.db #0xC1
   3A9C 83                15697 	.db #0x83
   3A9D C3                15698 	.db #0xC3
   3A9E 81                15699 	.db #0x81
   3A9F 00                15700 	.db #0x00
   3AA0 00                15701 	.db #0x00
   3AA1 00                15702 	.db #0x00
   3AA2 00                15703 	.db #0x00
   3AA3 00                15704 	.db #0x00
   3AA4 00                15705 	.db #0x00
   3AA5 FF                15706 	.db #0xFF
   3AA6 FF                15707 	.db #0xFF
   3AA7 FE                15708 	.db #0xFE
   3AA8 C1                15709 	.db #0xC1
   3AA9 C1                15710 	.db #0xC1
   3AAA 80                15711 	.db #0x80
   3AAB 80                15712 	.db #0x80
   3AAC 80                15713 	.db #0x80
   3AAD 80                15714 	.db #0x80
   3AAE 00                15715 	.db #0x00
   3AAF 00                15716 	.db #0x00
   3AB0 00                15717 	.db #0x00
   3AB1 00                15718 	.db #0x00
   3AB2 00                15719 	.db #0x00
   3AB3 00                15720 	.db #0x00
   3AB4 00                15721 	.db #0x00
   3AB5 CE                15722 	.db #0xCE
   3AB6 86                15723 	.db #0x86
   3AB7 CE                15724 	.db #0xCE
   3AB8 C6                15725 	.db #0xC6
   3AB9 EE                15726 	.db #0xEE
   3ABA C6                15727 	.db #0xC6
   3ABB CE                15728 	.db #0xCE
   3ABC E6                15729 	.db #0xE6
   3ABD E4                15730 	.db #0xE4
   3ABE 46                15731 	.db #0x46
   3ABF 00                15732 	.db #0x00
   3AC0 00                15733 	.db #0x00
   3AC1 00                15734 	.db #0x00
   3AC2 00                15735 	.db #0x00
   3AC3 00                15736 	.db #0x00
   3AC4 00                15737 	.db #0x00
   3AC5 1C                15738 	.db #0x1C
   3AC6 38                15739 	.db #0x38
   3AC7 18                15740 	.db #0x18
   3AC8 1C                15741 	.db #0x1C
   3AC9 1C                15742 	.db #0x1C
   3ACA 0E                15743 	.db #0x0E
   3ACB 07                15744 	.db #0x07
   3ACC 0E                15745 	.db #0x0E
   3ACD 03                15746 	.db #0x03
   3ACE 06                15747 	.db #0x06
   3ACF 00                15748 	.db #0x00
   3AD0 00                15749 	.db #0x00
   3AD1 00                15750 	.db #0x00
   3AD2 00                15751 	.db #0x00
   3AD3 00                15752 	.db #0x00
   3AD4 00                15753 	.db #0x00
   3AD5 07                15754 	.db #0x07
   3AD6 06                15755 	.db #0x06
   3AD7 07                15756 	.db #0x07
   3AD8 06                15757 	.db #0x06
   3AD9 07                15758 	.db #0x07
   3ADA 06                15759 	.db #0x06
   3ADB 07                15760 	.db #0x07
   3ADC 06                15761 	.db #0x06
   3ADD 03                15762 	.db #0x03
   3ADE 06                15763 	.db #0x06
   3ADF 00                15764 	.db #0x00
   3AE0 00                15765 	.db #0x00
   3AE1 00                15766 	.db #0x00
   3AE2 00                15767 	.db #0x00
   3AE3 00                15768 	.db #0x00
   3AE4 00                15769 	.db #0x00
   3AE5                   15770 _radianlogo_map:
   3AE5 00                15771 	.db #0x00
   3AE6 00                15772 	.db #0x00
   3AE7 00                15773 	.db #0x00
   3AE8 00                15774 	.db #0x00
   3AE9 00                15775 	.db #0x00
   3AEA 00                15776 	.db #0x00
   3AEB 00                15777 	.db #0x00
   3AEC 00                15778 	.db #0x00
   3AED 00                15779 	.db #0x00
   3AEE 00                15780 	.db #0x00
   3AEF 00                15781 	.db #0x00
   3AF0 00                15782 	.db #0x00
   3AF1 00                15783 	.db #0x00
   3AF2 00                15784 	.db #0x00
   3AF3 00                15785 	.db #0x00
   3AF4 00                15786 	.db #0x00
   3AF5 00                15787 	.db #0x00
   3AF6 00                15788 	.db #0x00
   3AF7 00                15789 	.db #0x00
   3AF8 00                15790 	.db #0x00
   3AF9 00                15791 	.db #0x00
   3AFA 00                15792 	.db #0x00
   3AFB 00                15793 	.db #0x00
   3AFC 00                15794 	.db #0x00
   3AFD 00                15795 	.db #0x00
   3AFE 00                15796 	.db #0x00
   3AFF 00                15797 	.db #0x00
   3B00 00                15798 	.db #0x00
   3B01 00                15799 	.db #0x00
   3B02 00                15800 	.db #0x00
   3B03 00                15801 	.db #0x00
   3B04 00                15802 	.db #0x00
   3B05 00                15803 	.db #0x00
   3B06 00                15804 	.db #0x00
   3B07 00                15805 	.db #0x00
   3B08 00                15806 	.db #0x00
   3B09 00                15807 	.db #0x00
   3B0A 00                15808 	.db #0x00
   3B0B 00                15809 	.db #0x00
   3B0C 00                15810 	.db #0x00
   3B0D 00                15811 	.db #0x00
   3B0E 00                15812 	.db #0x00
   3B0F 00                15813 	.db #0x00
   3B10 00                15814 	.db #0x00
   3B11 00                15815 	.db #0x00
   3B12 00                15816 	.db #0x00
   3B13 00                15817 	.db #0x00
   3B14 00                15818 	.db #0x00
   3B15 00                15819 	.db #0x00
   3B16 00                15820 	.db #0x00
   3B17 00                15821 	.db #0x00
   3B18 00                15822 	.db #0x00
   3B19 00                15823 	.db #0x00
   3B1A 00                15824 	.db #0x00
   3B1B 00                15825 	.db #0x00
   3B1C 00                15826 	.db #0x00
   3B1D 00                15827 	.db #0x00
   3B1E 00                15828 	.db #0x00
   3B1F 00                15829 	.db #0x00
   3B20 00                15830 	.db #0x00
   3B21 01                15831 	.db #0x01
   3B22 01                15832 	.db #0x01
   3B23 01                15833 	.db #0x01
   3B24 01                15834 	.db #0x01
   3B25 01                15835 	.db #0x01
   3B26 01                15836 	.db #0x01
   3B27 01                15837 	.db #0x01
   3B28 01                15838 	.db #0x01
   3B29 01                15839 	.db #0x01
   3B2A 01                15840 	.db #0x01
   3B2B 01                15841 	.db #0x01
   3B2C 01                15842 	.db #0x01
   3B2D 01                15843 	.db #0x01
   3B2E 01                15844 	.db #0x01
   3B2F 01                15845 	.db #0x01
   3B30 01                15846 	.db #0x01
   3B31 01                15847 	.db #0x01
   3B32 01                15848 	.db #0x01
   3B33 01                15849 	.db #0x01
   3B34 01                15850 	.db #0x01
   3B35 02                15851 	.db #0x02
   3B36 02                15852 	.db #0x02
   3B37 02                15853 	.db #0x02
   3B38 02                15854 	.db #0x02
   3B39 02                15855 	.db #0x02
   3B3A 02                15856 	.db #0x02
   3B3B 02                15857 	.db #0x02
   3B3C 02                15858 	.db #0x02
   3B3D 02                15859 	.db #0x02
   3B3E 02                15860 	.db #0x02
   3B3F 02                15861 	.db #0x02
   3B40 02                15862 	.db #0x02
   3B41 02                15863 	.db #0x02
   3B42 02                15864 	.db #0x02
   3B43 02                15865 	.db #0x02
   3B44 02                15866 	.db #0x02
   3B45 02                15867 	.db #0x02
   3B46 02                15868 	.db #0x02
   3B47 02                15869 	.db #0x02
   3B48 02                15870 	.db #0x02
   3B49 03                15871 	.db #0x03
   3B4A 04                15872 	.db #0x04
   3B4B 02                15873 	.db #0x02
   3B4C 02                15874 	.db #0x02
   3B4D 02                15875 	.db #0x02
   3B4E 02                15876 	.db #0x02
   3B4F 02                15877 	.db #0x02
   3B50 05                15878 	.db #0x05
   3B51 02                15879 	.db #0x02
   3B52 06                15880 	.db #0x06
   3B53 07                15881 	.db #0x07
   3B54 08                15882 	.db #0x08
   3B55 09                15883 	.db #0x09
   3B56 02                15884 	.db #0x02
   3B57 0A                15885 	.db #0x0A
   3B58 02                15886 	.db #0x02
   3B59 0B                15887 	.db #0x0B
   3B5A 02                15888 	.db #0x02
   3B5B 0C                15889 	.db #0x0C
   3B5C 02                15890 	.db #0x02
   3B5D 0D                15891 	.db #0x0D
   3B5E 0E                15892 	.db #0x0E
   3B5F 04                15893 	.db #0x04
   3B60 02                15894 	.db #0x02
   3B61 02                15895 	.db #0x02
   3B62 02                15896 	.db #0x02
   3B63 02                15897 	.db #0x02
   3B64 0F                15898 	.db #0x0F
   3B65 02                15899 	.db #0x02
   3B66 10                15900 	.db #0x10
   3B67 11                15901 	.db #0x11
   3B68 12                15902 	.db #0x12
   3B69 13                15903 	.db #0x13
   3B6A 02                15904 	.db #0x02
   3B6B 14                15905 	.db #0x14
   3B6C 15                15906 	.db #0x15
   3B6D 16                15907 	.db #0x16
   3B6E 02                15908 	.db #0x02
   3B6F 17                15909 	.db #0x17
   3B70 02                15910 	.db #0x02
   3B71 18                15911 	.db #0x18
   3B72 19                15912 	.db #0x19
   3B73 0E                15913 	.db #0x0E
   3B74 04                15914 	.db #0x04
   3B75 02                15915 	.db #0x02
   3B76 02                15916 	.db #0x02
   3B77 02                15917 	.db #0x02
   3B78 1A                15918 	.db #0x1A
   3B79 02                15919 	.db #0x02
   3B7A 1B                15920 	.db #0x1B
   3B7B 1C                15921 	.db #0x1C
   3B7C 12                15922 	.db #0x12
   3B7D 13                15923 	.db #0x13
   3B7E 02                15924 	.db #0x02
   3B7F 14                15925 	.db #0x14
   3B80 1D                15926 	.db #0x1D
   3B81 1E                15927 	.db #0x1E
   3B82 02                15928 	.db #0x02
   3B83 1F                15929 	.db #0x1F
   3B84 02                15930 	.db #0x02
   3B85 20                15931 	.db #0x20
   3B86 21                15932 	.db #0x21
   3B87 19                15933 	.db #0x19
   3B88 22                15934 	.db #0x22
   3B89 23                15935 	.db #0x23
   3B8A 02                15936 	.db #0x02
   3B8B 02                15937 	.db #0x02
   3B8C 24                15938 	.db #0x24
   3B8D 02                15939 	.db #0x02
   3B8E 25                15940 	.db #0x25
   3B8F 26                15941 	.db #0x26
   3B90 27                15942 	.db #0x27
   3B91 28                15943 	.db #0x28
   3B92 02                15944 	.db #0x02
   3B93 29                15945 	.db #0x29
   3B94 2A                15946 	.db #0x2A
   3B95 2B                15947 	.db #0x2B
   3B96 02                15948 	.db #0x02
   3B97 2C                15949 	.db #0x2C
   3B98 02                15950 	.db #0x02
   3B99 20                15951 	.db #0x20
   3B9A 2D                15952 	.db #0x2D
   3B9B 2E                15953 	.db #0x2E
   3B9C 2F                15954 	.db #0x2F
   3B9D 02                15955 	.db #0x02
   3B9E 02                15956 	.db #0x02
   3B9F 02                15957 	.db #0x02
   3BA0 30                15958 	.db #0x30
   3BA1 31                15959 	.db #0x31
   3BA2 32                15960 	.db #0x32
   3BA3 33                15961 	.db #0x33
   3BA4 34                15962 	.db #0x34
   3BA5 35                15963 	.db #0x35
   3BA6 36                15964 	.db #0x36
   3BA7 37                15965 	.db #0x37
   3BA8 38                15966 	.db #0x38
   3BA9 39                15967 	.db #0x39
   3BAA 3A                15968 	.db #0x3A
   3BAB 3B                15969 	.db #0x3B
   3BAC 02                15970 	.db #0x02
   3BAD 20                15971 	.db #0x20
   3BAE 3C                15972 	.db #0x3C
   3BAF 3D                15973 	.db #0x3D
   3BB0 3E                15974 	.db #0x3E
   3BB1 3F                15975 	.db #0x3F
   3BB2 02                15976 	.db #0x02
   3BB3 02                15977 	.db #0x02
   3BB4 40                15978 	.db #0x40
   3BB5 41                15979 	.db #0x41
   3BB6 42                15980 	.db #0x42
   3BB7 43                15981 	.db #0x43
   3BB8 44                15982 	.db #0x44
   3BB9 45                15983 	.db #0x45
   3BBA 46                15984 	.db #0x46
   3BBB 47                15985 	.db #0x47
   3BBC 48                15986 	.db #0x48
   3BBD 49                15987 	.db #0x49
   3BBE 4A                15988 	.db #0x4A
   3BBF 4B                15989 	.db #0x4B
   3BC0 4C                15990 	.db #0x4C
   3BC1 4D                15991 	.db #0x4D
   3BC2 4E                15992 	.db #0x4E
   3BC3 02                15993 	.db #0x02
   3BC4 02                15994 	.db #0x02
   3BC5 02                15995 	.db #0x02
   3BC6 02                15996 	.db #0x02
   3BC7 02                15997 	.db #0x02
   3BC8 4F                15998 	.db #0x4F
   3BC9 50                15999 	.db #0x50
   3BCA 51                16000 	.db #0x51
   3BCB 52                16001 	.db #0x52
   3BCC 53                16002 	.db #0x53
   3BCD 54                16003 	.db #0x54
   3BCE 55                16004 	.db #0x55
   3BCF 56                16005 	.db #0x56
   3BD0 02                16006 	.db #0x02
   3BD1 57                16007 	.db #0x57
   3BD2 58                16008 	.db #0x58
   3BD3 59                16009 	.db #0x59
   3BD4 5A                16010 	.db #0x5A
   3BD5 02                16011 	.db #0x02
   3BD6 5B                16012 	.db #0x5B
   3BD7 02                16013 	.db #0x02
   3BD8 02                16014 	.db #0x02
   3BD9 02                16015 	.db #0x02
   3BDA 02                16016 	.db #0x02
   3BDB 02                16017 	.db #0x02
   3BDC 02                16018 	.db #0x02
   3BDD 02                16019 	.db #0x02
   3BDE 02                16020 	.db #0x02
   3BDF 02                16021 	.db #0x02
   3BE0 02                16022 	.db #0x02
   3BE1 02                16023 	.db #0x02
   3BE2 02                16024 	.db #0x02
   3BE3 02                16025 	.db #0x02
   3BE4 02                16026 	.db #0x02
   3BE5 02                16027 	.db #0x02
   3BE6 02                16028 	.db #0x02
   3BE7 02                16029 	.db #0x02
   3BE8 02                16030 	.db #0x02
   3BE9 02                16031 	.db #0x02
   3BEA 02                16032 	.db #0x02
   3BEB 02                16033 	.db #0x02
   3BEC 02                16034 	.db #0x02
   3BED 02                16035 	.db #0x02
   3BEE 02                16036 	.db #0x02
   3BEF 02                16037 	.db #0x02
   3BF0 02                16038 	.db #0x02
   3BF1 02                16039 	.db #0x02
   3BF2 02                16040 	.db #0x02
   3BF3 02                16041 	.db #0x02
   3BF4 02                16042 	.db #0x02
   3BF5 02                16043 	.db #0x02
   3BF6 02                16044 	.db #0x02
   3BF7 02                16045 	.db #0x02
   3BF8 02                16046 	.db #0x02
   3BF9 02                16047 	.db #0x02
   3BFA 02                16048 	.db #0x02
   3BFB 02                16049 	.db #0x02
   3BFC 02                16050 	.db #0x02
   3BFD 5C                16051 	.db #0x5C
   3BFE 5C                16052 	.db #0x5C
   3BFF 5D                16053 	.db #0x5D
   3C00 5E                16054 	.db #0x5E
   3C01 5F                16055 	.db #0x5F
   3C02 60                16056 	.db #0x60
   3C03 61                16057 	.db #0x61
   3C04 62                16058 	.db #0x62
   3C05 63                16059 	.db #0x63
   3C06 64                16060 	.db #0x64
   3C07 5C                16061 	.db #0x5C
   3C08 65                16062 	.db #0x65
   3C09 66                16063 	.db #0x66
   3C0A 67                16064 	.db #0x67
   3C0B 68                16065 	.db #0x68
   3C0C 60                16066 	.db #0x60
   3C0D 69                16067 	.db #0x69
   3C0E 6A                16068 	.db #0x6A
   3C0F 69                16069 	.db #0x69
   3C10 5C                16070 	.db #0x5C
   3C11 00                16071 	.db #0x00
   3C12 00                16072 	.db #0x00
   3C13 6B                16073 	.db #0x6B
   3C14 6C                16074 	.db #0x6C
   3C15 6D                16075 	.db #0x6D
   3C16 6E                16076 	.db #0x6E
   3C17 6F                16077 	.db #0x6F
   3C18 70                16078 	.db #0x70
   3C19 71                16079 	.db #0x71
   3C1A 72                16080 	.db #0x72
   3C1B 73                16081 	.db #0x73
   3C1C 74                16082 	.db #0x74
   3C1D 75                16083 	.db #0x75
   3C1E 76                16084 	.db #0x76
   3C1F 77                16085 	.db #0x77
   3C20 78                16086 	.db #0x78
   3C21 79                16087 	.db #0x79
   3C22 7A                16088 	.db #0x7A
   3C23 7B                16089 	.db #0x7B
   3C24 00                16090 	.db #0x00
   3C25 00                16091 	.db #0x00
   3C26 00                16092 	.db #0x00
   3C27 7C                16093 	.db #0x7C
   3C28 00                16094 	.db #0x00
   3C29 7D                16095 	.db #0x7D
   3C2A 7E                16096 	.db #0x7E
   3C2B 7F                16097 	.db #0x7F
   3C2C 80                16098 	.db #0x80
   3C2D 81                16099 	.db #0x81
   3C2E 82                16100 	.db #0x82
   3C2F 83                16101 	.db #0x83
   3C30 84                16102 	.db #0x84
   3C31 85                16103 	.db #0x85
   3C32 86                16104 	.db #0x86
   3C33 87                16105 	.db #0x87
   3C34 88                16106 	.db #0x88
   3C35 89                16107 	.db #0x89
   3C36 8A                16108 	.db #0x8A
   3C37 00                16109 	.db #0x00
   3C38 00                16110 	.db #0x00
   3C39 00                16111 	.db #0x00
   3C3A 00                16112 	.db #0x00
   3C3B 00                16113 	.db #0x00
   3C3C 00                16114 	.db #0x00
   3C3D 00                16115 	.db #0x00
   3C3E 00                16116 	.db #0x00
   3C3F 00                16117 	.db #0x00
   3C40 00                16118 	.db #0x00
   3C41 00                16119 	.db #0x00
   3C42 00                16120 	.db #0x00
   3C43 00                16121 	.db #0x00
   3C44 00                16122 	.db #0x00
   3C45 00                16123 	.db #0x00
   3C46 00                16124 	.db #0x00
   3C47 00                16125 	.db #0x00
   3C48 00                16126 	.db #0x00
   3C49 00                16127 	.db #0x00
   3C4A 00                16128 	.db #0x00
   3C4B 00                16129 	.db #0x00
   3C4C 00                16130 	.db #0x00
   3C4D                   16131 _salaryGuyTiles:
   3C4D 00                16132 	.db #0x00
   3C4E 00                16133 	.db #0x00
   3C4F 00                16134 	.db #0x00
   3C50 00                16135 	.db #0x00
   3C51 00                16136 	.db #0x00
   3C52 00                16137 	.db #0x00
   3C53 00                16138 	.db #0x00
   3C54 00                16139 	.db #0x00
   3C55 00                16140 	.db #0x00
   3C56 00                16141 	.db #0x00
   3C57 01                16142 	.db #0x01
   3C58 01                16143 	.db #0x01
   3C59 00                16144 	.db #0x00
   3C5A 00                16145 	.db #0x00
   3C5B 01                16146 	.db #0x01
   3C5C 01                16147 	.db #0x01
   3C5D 1F                16148 	.db #0x1F
   3C5E 1F                16149 	.db #0x1F
   3C5F 7F                16150 	.db #0x7F
   3C60 7F                16151 	.db #0x7F
   3C61 7F                16152 	.db #0x7F
   3C62 7F                16153 	.db #0x7F
   3C63 FF                16154 	.db #0xFF
   3C64 E0                16155 	.db #0xE0
   3C65 FF                16156 	.db #0xFF
   3C66 E6                16157 	.db #0xE6
   3C67 FB                16158 	.db #0xFB
   3C68 E2                16159 	.db #0xE2
   3C69 FF                16160 	.db #0xFF
   3C6A E0                16161 	.db #0xE0
   3C6B FF                16162 	.db #0xFF
   3C6C E7                16163 	.db #0xE7
   3C6D 80                16164 	.db #0x80
   3C6E 80                16165 	.db #0x80
   3C6F 80                16166 	.db #0x80
   3C70 80                16167 	.db #0x80
   3C71 C0                16168 	.db #0xC0
   3C72 C0                16169 	.db #0xC0
   3C73 00                16170 	.db #0x00
   3C74 00                16171 	.db #0x00
   3C75 00                16172 	.db #0x00
   3C76 00                16173 	.db #0x00
   3C77 C0                16174 	.db #0xC0
   3C78 00                16175 	.db #0x00
   3C79 80                16176 	.db #0x80
   3C7A 00                16177 	.db #0x00
   3C7B 80                16178 	.db #0x80
   3C7C 80                16179 	.db #0x80
   3C7D 01                16180 	.db #0x01
   3C7E 01                16181 	.db #0x01
   3C7F 00                16182 	.db #0x00
   3C80 00                16183 	.db #0x00
   3C81 00                16184 	.db #0x00
   3C82 00                16185 	.db #0x00
   3C83 01                16186 	.db #0x01
   3C84 01                16187 	.db #0x01
   3C85 03                16188 	.db #0x03
   3C86 03                16189 	.db #0x03
   3C87 03                16190 	.db #0x03
   3C88 0F                16191 	.db #0x0F
   3C89 01                16192 	.db #0x01
   3C8A 0F                16193 	.db #0x0F
   3C8B 01                16194 	.db #0x01
   3C8C 0F                16195 	.db #0x0F
   3C8D 0F                16196 	.db #0x0F
   3C8E 00                16197 	.db #0x00
   3C8F 4F                16198 	.db #0x4F
   3C90 40                16199 	.db #0x40
   3C91 61                16200 	.db #0x61
   3C92 6F                16201 	.db #0x6F
   3C93 E0                16202 	.db #0xE0
   3C94 E4                16203 	.db #0xE4
   3C95 E0                16204 	.db #0xE0
   3C96 E6                16205 	.db #0xE6
   3C97 E1                16206 	.db #0xE1
   3C98 E7                16207 	.db #0xE7
   3C99 C2                16208 	.db #0xC2
   3C9A F2                16209 	.db #0xF2
   3C9B C0                16210 	.db #0xC0
   3C9C FA                16211 	.db #0xFA
   3C9D 80                16212 	.db #0x80
   3C9E 00                16213 	.db #0x00
   3C9F 00                16214 	.db #0x00
   3CA0 00                16215 	.db #0x00
   3CA1 80                16216 	.db #0x80
   3CA2 80                16217 	.db #0x80
   3CA3 DC                16218 	.db #0xDC
   3CA4 C0                16219 	.db #0xC0
   3CA5 7C                16220 	.db #0x7C
   3CA6 60                16221 	.db #0x60
   3CA7 0C                16222 	.db #0x0C
   3CA8 00                16223 	.db #0x00
   3CA9 88                16224 	.db #0x88
   3CAA 88                16225 	.db #0x88
   3CAB D8                16226 	.db #0xD8
   3CAC D8                16227 	.db #0xD8
   3CAD 0F                16228 	.db #0x0F
   3CAE 01                16229 	.db #0x01
   3CAF 0F                16230 	.db #0x0F
   3CB0 01                16231 	.db #0x01
   3CB1 0D                16232 	.db #0x0D
   3CB2 03                16233 	.db #0x03
   3CB3 07                16234 	.db #0x07
   3CB4 00                16235 	.db #0x00
   3CB5 00                16236 	.db #0x00
   3CB6 00                16237 	.db #0x00
   3CB7 00                16238 	.db #0x00
   3CB8 00                16239 	.db #0x00
   3CB9 00                16240 	.db #0x00
   3CBA 00                16241 	.db #0x00
   3CBB 00                16242 	.db #0x00
   3CBC 00                16243 	.db #0x00
   3CBD C0                16244 	.db #0xC0
   3CBE FA                16245 	.db #0xFA
   3CBF E0                16246 	.db #0xE0
   3CC0 F8                16247 	.db #0xF8
   3CC1 88                16248 	.db #0x88
   3CC2 F0                16249 	.db #0xF0
   3CC3 3E                16250 	.db #0x3E
   3CC4 C6                16251 	.db #0xC6
   3CC5 7E                16252 	.db #0x7E
   3CC6 7E                16253 	.db #0x7E
   3CC7 7E                16254 	.db #0x7E
   3CC8 7E                16255 	.db #0x7E
   3CC9 7F                16256 	.db #0x7F
   3CCA 7F                16257 	.db #0x7F
   3CCB 7F                16258 	.db #0x7F
   3CCC 7F                16259 	.db #0x7F
   3CCD 00                16260 	.db #0x00
   3CCE 00                16261 	.db #0x00
   3CCF 00                16262 	.db #0x00
   3CD0 00                16263 	.db #0x00
   3CD1 00                16264 	.db #0x00
   3CD2 00                16265 	.db #0x00
   3CD3 00                16266 	.db #0x00
   3CD4 00                16267 	.db #0x00
   3CD5 00                16268 	.db #0x00
   3CD6 00                16269 	.db #0x00
   3CD7 00                16270 	.db #0x00
   3CD8 00                16271 	.db #0x00
   3CD9 00                16272 	.db #0x00
   3CDA 00                16273 	.db #0x00
   3CDB 80                16274 	.db #0x80
   3CDC 80                16275 	.db #0x80
   3CDD 00                16276 	.db #0x00
   3CDE 00                16277 	.db #0x00
   3CDF 7F                16278 	.db #0x7F
   3CE0 7F                16279 	.db #0x7F
   3CE1 7F                16280 	.db #0x7F
   3CE2 7F                16281 	.db #0x7F
   3CE3 7F                16282 	.db #0x7F
   3CE4 7F                16283 	.db #0x7F
   3CE5 40                16284 	.db #0x40
   3CE6 40                16285 	.db #0x40
   3CE7 00                16286 	.db #0x00
   3CE8 00                16287 	.db #0x00
   3CE9 00                16288 	.db #0x00
   3CEA 00                16289 	.db #0x00
   3CEB 00                16290 	.db #0x00
   3CEC 00                16291 	.db #0x00
   3CED FF                16292 	.db #0xFF
   3CEE FF                16293 	.db #0xFF
   3CEF F3                16294 	.db #0xF3
   3CF0 F3                16295 	.db #0xF3
   3CF1 E1                16296 	.db #0xE1
   3CF2 E1                16297 	.db #0xE1
   3CF3 E0                16298 	.db #0xE0
   3CF4 E0                16299 	.db #0xE0
   3CF5 00                16300 	.db #0x00
   3CF6 00                16301 	.db #0x00
   3CF7 00                16302 	.db #0x00
   3CF8 00                16303 	.db #0x00
   3CF9 00                16304 	.db #0x00
   3CFA 00                16305 	.db #0x00
   3CFB 00                16306 	.db #0x00
   3CFC 00                16307 	.db #0x00
   3CFD 00                16308 	.db #0x00
   3CFE 00                16309 	.db #0x00
   3CFF C0                16310 	.db #0xC0
   3D00 C0                16311 	.db #0xC0
   3D01 F0                16312 	.db #0xF0
   3D02 F0                16313 	.db #0xF0
   3D03 F0                16314 	.db #0xF0
   3D04 F0                16315 	.db #0xF0
   3D05 FC                16316 	.db #0xFC
   3D06 FC                16317 	.db #0xFC
   3D07 3C                16318 	.db #0x3C
   3D08 3C                16319 	.db #0x3C
   3D09 3E                16320 	.db #0x3E
   3D0A 3E                16321 	.db #0x3E
   3D0B 00                16322 	.db #0x00
   3D0C 00                16323 	.db #0x00
   3D0D 00                16324 	.db #0x00
   3D0E 00                16325 	.db #0x00
   3D0F 00                16326 	.db #0x00
   3D10 00                16327 	.db #0x00
   3D11 00                16328 	.db #0x00
   3D12 00                16329 	.db #0x00
   3D13 00                16330 	.db #0x00
   3D14 00                16331 	.db #0x00
   3D15 00                16332 	.db #0x00
   3D16 00                16333 	.db #0x00
   3D17 03                16334 	.db #0x03
   3D18 03                16335 	.db #0x03
   3D19 02                16336 	.db #0x02
   3D1A 02                16337 	.db #0x02
   3D1B 01                16338 	.db #0x01
   3D1C 01                16339 	.db #0x01
   3D1D 1F                16340 	.db #0x1F
   3D1E 1F                16341 	.db #0x1F
   3D1F 7F                16342 	.db #0x7F
   3D20 7F                16343 	.db #0x7F
   3D21 7F                16344 	.db #0x7F
   3D22 7F                16345 	.db #0x7F
   3D23 FF                16346 	.db #0xFF
   3D24 E0                16347 	.db #0xE0
   3D25 FF                16348 	.db #0xFF
   3D26 E6                16349 	.db #0xE6
   3D27 FB                16350 	.db #0xFB
   3D28 E2                16351 	.db #0xE2
   3D29 FF                16352 	.db #0xFF
   3D2A E0                16353 	.db #0xE0
   3D2B FF                16354 	.db #0xFF
   3D2C E7                16355 	.db #0xE7
   3D2D 80                16356 	.db #0x80
   3D2E 80                16357 	.db #0x80
   3D2F 80                16358 	.db #0x80
   3D30 80                16359 	.db #0x80
   3D31 C0                16360 	.db #0xC0
   3D32 C0                16361 	.db #0xC0
   3D33 00                16362 	.db #0x00
   3D34 00                16363 	.db #0x00
   3D35 00                16364 	.db #0x00
   3D36 00                16365 	.db #0x00
   3D37 C0                16366 	.db #0xC0
   3D38 00                16367 	.db #0x00
   3D39 80                16368 	.db #0x80
   3D3A 00                16369 	.db #0x00
   3D3B 80                16370 	.db #0x80
   3D3C 80                16371 	.db #0x80
   3D3D 02                16372 	.db #0x02
   3D3E 02                16373 	.db #0x02
   3D3F 00                16374 	.db #0x00
   3D40 00                16375 	.db #0x00
   3D41 01                16376 	.db #0x01
   3D42 01                16377 	.db #0x01
   3D43 01                16378 	.db #0x01
   3D44 01                16379 	.db #0x01
   3D45 01                16380 	.db #0x01
   3D46 01                16381 	.db #0x01
   3D47 03                16382 	.db #0x03
   3D48 03                16383 	.db #0x03
   3D49 01                16384 	.db #0x01
   3D4A 07                16385 	.db #0x07
   3D4B 01                16386 	.db #0x01
   3D4C 07                16387 	.db #0x07
   3D4D FE                16388 	.db #0xFE
   3D4E C0                16389 	.db #0xC0
   3D4F 3E                16390 	.db #0x3E
   3D50 00                16391 	.db #0x00
   3D51 F1                16392 	.db #0xF1
   3D52 F7                16393 	.db #0xF7
   3D53 F0                16394 	.db #0xF0
   3D54 F2                16395 	.db #0xF2
   3D55 E0                16396 	.db #0xE0
   3D56 E2                16397 	.db #0xE2
   3D57 E0                16398 	.db #0xE0
   3D58 E2                16399 	.db #0xE2
   3D59 E0                16400 	.db #0xE0
   3D5A FA                16401 	.db #0xFA
   3D5B E6                16402 	.db #0xE6
   3D5C FA                16403 	.db #0xFA
   3D5D 00                16404 	.db #0x00
   3D5E 00                16405 	.db #0x00
   3D5F 00                16406 	.db #0x00
   3D60 00                16407 	.db #0x00
   3D61 80                16408 	.db #0x80
   3D62 80                16409 	.db #0x80
   3D63 80                16410 	.db #0x80
   3D64 80                16411 	.db #0x80
   3D65 80                16412 	.db #0x80
   3D66 80                16413 	.db #0x80
   3D67 E0                16414 	.db #0xE0
   3D68 80                16415 	.db #0x80
   3D69 F0                16416 	.db #0xF0
   3D6A 80                16417 	.db #0x80
   3D6B 70                16418 	.db #0x70
   3D6C 00                16419 	.db #0x00
   3D6D 01                16420 	.db #0x01
   3D6E 07                16421 	.db #0x07
   3D6F 01                16422 	.db #0x01
   3D70 07                16423 	.db #0x07
   3D71 01                16424 	.db #0x01
   3D72 06                16425 	.db #0x06
   3D73 01                16426 	.db #0x01
   3D74 00                16427 	.db #0x00
   3D75 01                16428 	.db #0x01
   3D76 01                16429 	.db #0x01
   3D77 01                16430 	.db #0x01
   3D78 01                16431 	.db #0x01
   3D79 00                16432 	.db #0x00
   3D7A 00                16433 	.db #0x00
   3D7B 00                16434 	.db #0x00
   3D7C 00                16435 	.db #0x00
   3D7D E1                16436 	.db #0xE1
   3D7E FD                16437 	.db #0xFD
   3D7F E0                16438 	.db #0xE0
   3D80 FC                16439 	.db #0xFC
   3D81 E0                16440 	.db #0xE0
   3D82 1C                16441 	.db #0x1C
   3D83 E0                16442 	.db #0xE0
   3D84 1C                16443 	.db #0x1C
   3D85 F8                16444 	.db #0xF8
   3D86 F8                16445 	.db #0xF8
   3D87 C8                16446 	.db #0xC8
   3D88 F8                16447 	.db #0xF8
   3D89 46                16448 	.db #0x46
   3D8A 7E                16449 	.db #0x7E
   3D8B 42                16450 	.db #0x42
   3D8C 7E                16451 	.db #0x7E
   3D8D 00                16452 	.db #0x00
   3D8E 00                16453 	.db #0x00
   3D8F 00                16454 	.db #0x00
   3D90 00                16455 	.db #0x00
   3D91 00                16456 	.db #0x00
   3D92 00                16457 	.db #0x00
   3D93 00                16458 	.db #0x00
   3D94 00                16459 	.db #0x00
   3D95 00                16460 	.db #0x00
   3D96 00                16461 	.db #0x00
   3D97 00                16462 	.db #0x00
   3D98 00                16463 	.db #0x00
   3D99 00                16464 	.db #0x00
   3D9A 00                16465 	.db #0x00
   3D9B 00                16466 	.db #0x00
   3D9C 00                16467 	.db #0x00
   3D9D 00                16468 	.db #0x00
   3D9E 00                16469 	.db #0x00
   3D9F 1F                16470 	.db #0x1F
   3DA0 1F                16471 	.db #0x1F
   3DA1 1C                16472 	.db #0x1C
   3DA2 1F                16473 	.db #0x1F
   3DA3 1F                16474 	.db #0x1F
   3DA4 1F                16475 	.db #0x1F
   3DA5 13                16476 	.db #0x13
   3DA6 13                16477 	.db #0x13
   3DA7 03                16478 	.db #0x03
   3DA8 03                16479 	.db #0x03
   3DA9 03                16480 	.db #0x03
   3DAA 03                16481 	.db #0x03
   3DAB 03                16482 	.db #0x03
   3DAC 03                16483 	.db #0x03
   3DAD 84                16484 	.db #0x84
   3DAE FC                16485 	.db #0xFC
   3DAF 8C                16486 	.db #0x8C
   3DB0 FC                16487 	.db #0xFC
   3DB1 18                16488 	.db #0x18
   3DB2 F8                16489 	.db #0xF8
   3DB3 70                16490 	.db #0x70
   3DB4 F0                16491 	.db #0xF0
   3DB5 E0                16492 	.db #0xE0
   3DB6 E0                16493 	.db #0xE0
   3DB7 80                16494 	.db #0x80
   3DB8 80                16495 	.db #0x80
   3DB9 80                16496 	.db #0x80
   3DBA 80                16497 	.db #0x80
   3DBB C0                16498 	.db #0xC0
   3DBC C0                16499 	.db #0xC0
   3DBD 00                16500 	.db #0x00
   3DBE 00                16501 	.db #0x00
   3DBF 00                16502 	.db #0x00
   3DC0 00                16503 	.db #0x00
   3DC1 00                16504 	.db #0x00
   3DC2 00                16505 	.db #0x00
   3DC3 00                16506 	.db #0x00
   3DC4 00                16507 	.db #0x00
   3DC5 00                16508 	.db #0x00
   3DC6 00                16509 	.db #0x00
   3DC7 00                16510 	.db #0x00
   3DC8 00                16511 	.db #0x00
   3DC9 00                16512 	.db #0x00
   3DCA 00                16513 	.db #0x00
   3DCB 00                16514 	.db #0x00
   3DCC 00                16515 	.db #0x00
ASxxxx Assembler V01.75  (GameBoy Z80-like CPU), page 1.

Symbol Table

  0 _Animate                           019F GR
    _BCPD_REG                          **** GX
    _BCPS_REG                          **** GX
    _BGP_REG                           **** GX
    _DIV_REG                           **** GX
    _DMA_REG                           **** GX
    _HDMA1_REG                         **** GX
    _HDMA2_REG                         **** GX
    _HDMA3_REG                         **** GX
    _HDMA4_REG                         **** GX
    _HDMA5_REG                         **** GX
    _IE_REG                            **** GX
    _IF_REG                            **** GX
  0 _Input                             057F GR
  0 _Jump                              04C7 GR
    _KEY1_REG                          **** GX
    _LCDC_REG                          **** GX
    _LYC_REG                           **** GX
    _LY_REG                            **** GX
  0 _MoveChar                          0037 GR
    _NR10_REG                          **** GX
    _NR11_REG                          **** GX
    _NR12_REG                          **** GX
    _NR13_REG                          **** GX
    _NR14_REG                          **** GX
    _NR21_REG                          **** GX
    _NR22_REG                          **** GX
    _NR23_REG                          **** GX
    _NR24_REG                          **** GX
    _NR30_REG                          **** GX
    _NR31_REG                          **** GX
    _NR32_REG                          **** GX
    _NR33_REG                          **** GX
    _NR34_REG                          **** GX
    _NR41_REG                          **** GX
    _NR42_REG                          **** GX
    _NR43_REG                          **** GX
    _NR44_REG                          **** GX
    _NR50_REG                          **** GX
    _NR51_REG                          **** GX
    _NR52_REG                          **** GX
    _OBP0_REG                          **** GX
    _OBP1_REG                          **** GX
    _OCPD_REG                          **** GX
    _OCPS_REG                          **** GX
    _P1_REG                            **** GX
  0 _PlaySound                         073F GR
    _RP_REG                            **** GX
    _SB_REG                            **** GX
    _SCX_REG                           **** GX
    _SCY_REG                           **** GX
    _SC_REG                            **** GX
    _STAT_REG                          **** GX
    _SVBK_REG                          **** GX
    _TAC_REG                           **** GX
    _TIMA_REG                          **** GX
    _TMA_REG                           **** GX
  0 _TileLabelo                        0CF9 GR
    _VBK_REG                           **** GX
    _WX_REG                            **** GX
    _WY_REG                            **** GX
  0 ___Animate_end                     02E4 R
  0 ___Animate_start                   019F R
  0 ___Input_end                       073F R
  0 ___Input_start                     057F R
  0 ___Jump_end                        057F R
  0 ___Jump_start                      04C7 R
  0 ___MoveChar_end                    0169 R
  0 ___MoveChar_start                  0037 R
  0 ___PlaySound_end                   0756 R
  0 ___PlaySound_start                 073F R
  0 ___checkStagecollision_end         0037 R
  0 ___checkStagecollision_start       0000 R
  0 ___checkcollision_end              019F R
  0 ___checkcollision_start            0169 R
  0 ___main_end                        0CD6 R
  0 ___main_start                      0A4D R
  0 ___playSong_end                    0A4D R
  0 ___playSong_start                  09A5 R
  0 ___setDirection_end                04C7 R
  0 ___setDirection_start              02E4 R
  0 ___setupCharacter_end              09A5 R
  0 ___setupCharacter_start            0756 R
    __cpu                              **** GX
    __io_in                            **** GX
    __io_out                           **** GX
    __io_status                        **** GX
    __mulsint                          **** GX
    __muluchar                         **** GX
    _add_LCD                           **** GX
    _add_TIM                           **** GX
    _add_VBL                           **** GX
  0 _backmap1_data                     0FF9 GR
  0 _backmap1_map                      1AB9 GR
  1 _base_Posy                         0008 GR
  1 _beachan                           0023 GR
  0 _beasprite                         205D GR
  1 _bullet                            0033 GR
  0 _bulletSprite                      21DD GR
  0 _bulletSprite2                     21ED GR
    _cgb_compatibility                 **** GX
  0 _checkStagecollision               0000 GR
  0 _checkcollision                    0169 GR
  0 _collisionData                     0CD6 GR
    _cpu_fast                          **** GX
    _cpu_slow                          **** GX
  1 _currentSpriteIndex                0010 GR
    _delay                             **** GX
    _disable_interrupts                **** GX
    _display_off                       **** GX
    _enable_interrupts                 **** GX
  0 _fontTiles                         2059 GR
    _font_ibm                          **** GX
    _font_ibm_fixed                    **** GX
    _font_init                         **** GX
    _font_italic                       **** GX
    _font_load                         **** GX
    _font_min                          **** GX
    _font_set                          **** GX
    _font_spect                        **** GX
    _get_bkg_tiles                     **** GX
    _get_data                          **** GX
    _get_mode                          **** GX
    _get_sprite_data                   **** GX
    _get_sprite_prop                   **** GX
    _get_sprite_tile                   **** GX
    _get_tiles                         **** GX
    _get_win_tiles                     **** GX
    _gets                              **** GX
  1 _gravity                           0000 GR
    _hiramcpy                          **** GX
  1 _i                                 000C GR
  1 _index                             0003 GR
  1 _isFalling                         000B GR
  1 _isJumping                         000A GR
  1 _j                                 000D GR
    _joypad                            **** GX
  1 _jumpHeight                        0007 GR
  0 _main                              0A4D GR
  1 _maxJumpHeight                     0006 GR
  1 _min_font                          0011 GR
    _mode                              **** GX
    _move_bkg                          **** GX
    _move_sprite                       **** GX
    _move_win                          **** GX
  1 _mrGuy                             0013 GR
  1 _numberOfOnigiris                  0004 GR
  1 _onigiri                           0043 GR
  1 _onigiriIndex                      0005 GR
  1 _originalY                         0009 GR
  0 _playSong                          09A5 GR
    _print_repeat                      **** GX
    _printf                            **** GX
    _putchar                           **** GX
    _puts                              **** GX
  0 _radianlogo_data                   3235 GR
  0 _radianlogo_map                    3AE5 GR
    _receive_byte                      **** GX
    _remove_JOY                        **** GX
    _remove_LCD                        **** GX
    _remove_SIO                        **** GX
    _remove_TIM                        **** GX
    _remove_VBL                        **** GX
    _reset                             **** GX
  1 _salaryGuy                         0093 GR
  0 _salaryGuyTiles                    3C4D GR
    _scroll_bkg                        **** GX
    _scroll_sprite                     **** GX
    _scroll_win                        **** GX
    _send_byte                         **** GX
  0 _setDirection                      02E4 GR
    _set_bkg_data                      **** GX
    _set_bkg_palette                   **** GX
    _set_bkg_palette_entry             **** GX
    _set_bkg_tiles                     **** GX
    _set_data                          **** GX
    _set_interrupts                    **** GX
    _set_sprite_data                   **** GX
    _set_sprite_palette                **** GX
    _set_sprite_palette_entry          **** GX
    _set_sprite_prop                   **** GX
    _set_sprite_tile                   **** GX
    _set_tiles                         **** GX
    _set_win_data                      **** GX
    _set_win_tiles                     **** GX
  0 _setupCharacter                    0756 GR
    _sgb_check                         **** GX
  1 _speed                             000F GR
  0 _splashscreen3_data                21FD GR
  0 _splashscreen3_map                 30CD GR
    _sprintf                           **** GX
    _sys_time                          **** GX
  1 _tile                              000E GR
  0 _tiosprite                         215D GR
    _wait_vbl_done                     **** GX
    _waitpad                           **** GX
    _waitpadup                         **** GX
  1 _x                                 0001 GR
  1 _y                                 0002 GR

ASxxxx Assembler V01.75  (GameBoy Z80-like CPU), page 2.

Area Table

   0 _CODE                              size 3DCD   flags 0
   1 _DATA                              size   A3   flags 0
   2 _OVERLAY                           size    0   flags 0
   3 _ISEG                              size    0   flags 0
   4 _BSEG                              size    0   flags 0
   5 _XSEG                              size    0   flags 0
   6 _GSINIT                            size   50   flags 0
   7 _GSFINAL                           size    0   flags 0
